
Discarded input sections

 .text          0x00000000        0x0 ..\obj\stm32f10x_tim.o
 .data          0x00000000        0x0 ..\obj\stm32f10x_tim.o
 .bss           0x00000000        0x0 ..\obj\stm32f10x_tim.o
 .text.TIM_DeInit
                0x00000000      0x22c ..\obj\stm32f10x_tim.o
 .text.TIM_OC1Init
                0x00000000      0x118 ..\obj\stm32f10x_tim.o
 .text.TIM_OC2Init
                0x00000000      0x110 ..\obj\stm32f10x_tim.o
 .text.TIM_OC3Init
                0x00000000      0x10c ..\obj\stm32f10x_tim.o
 .text.TIM_OC4Init
                0x00000000       0xd0 ..\obj\stm32f10x_tim.o
 .text.TIM_ICInit
                0x00000000       0xa8 ..\obj\stm32f10x_tim.o
 .text.TIM_PWMIConfig
                0x00000000       0xb8 ..\obj\stm32f10x_tim.o
 .text.TIM_BDTRConfig
                0x00000000       0x4e ..\obj\stm32f10x_tim.o
 .text.TIM_TimeBaseStructInit
                0x00000000       0x32 ..\obj\stm32f10x_tim.o
 .text.TIM_OCStructInit
                0x00000000       0x42 ..\obj\stm32f10x_tim.o
 .text.TIM_ICStructInit
                0x00000000       0x30 ..\obj\stm32f10x_tim.o
 .text.TIM_BDTRStructInit
                0x00000000       0x3c ..\obj\stm32f10x_tim.o
 .text.TIM_CtrlPWMOutputs
                0x00000000       0x4a ..\obj\stm32f10x_tim.o
 .text.TIM_GenerateEvent
                0x00000000       0x1c ..\obj\stm32f10x_tim.o
 .text.TIM_DMAConfig
                0x00000000       0x28 ..\obj\stm32f10x_tim.o
 .text.TIM_DMACmd
                0x00000000       0x46 ..\obj\stm32f10x_tim.o
 .text.TIM_InternalClockConfig
                0x00000000       0x22 ..\obj\stm32f10x_tim.o
 .text.TIM_ITRxExternalClockConfig
                0x00000000       0x2e ..\obj\stm32f10x_tim.o
 .text.TIM_TIxExternalClockConfig
                0x00000000       0x5c ..\obj\stm32f10x_tim.o
 .text.TIM_ETRClockMode1Config
                0x00000000       0x5e ..\obj\stm32f10x_tim.o
 .text.TIM_ETRClockMode2Config
                0x00000000       0x3e ..\obj\stm32f10x_tim.o
 .text.TIM_ETRConfig
                0x00000000       0x52 ..\obj\stm32f10x_tim.o
 .text.TIM_PrescalerConfig
                0x00000000       0x26 ..\obj\stm32f10x_tim.o
 .text.TIM_CounterModeConfig
                0x00000000       0x36 ..\obj\stm32f10x_tim.o
 .text.TIM_SelectInputTrigger
                0x00000000       0x36 ..\obj\stm32f10x_tim.o
 .text.TIM_EncoderInterfaceConfig
                0x00000000       0x96 ..\obj\stm32f10x_tim.o
 .text.TIM_ForcedOC1Config
                0x00000000       0x36 ..\obj\stm32f10x_tim.o
 .text.TIM_ForcedOC2Config
                0x00000000       0x3a ..\obj\stm32f10x_tim.o
 .text.TIM_ForcedOC3Config
                0x00000000       0x36 ..\obj\stm32f10x_tim.o
 .text.TIM_ForcedOC4Config
                0x00000000       0x3a ..\obj\stm32f10x_tim.o
 .text.TIM_ARRPreloadConfig
                0x00000000       0x3e ..\obj\stm32f10x_tim.o
 .text.TIM_SelectCOM
                0x00000000       0x3e ..\obj\stm32f10x_tim.o
 .text.TIM_SelectCCDMA
                0x00000000       0x3e ..\obj\stm32f10x_tim.o
 .text.TIM_CCPreloadControl
                0x00000000       0x3e ..\obj\stm32f10x_tim.o
 .text.TIM_OC1PreloadConfig
                0x00000000       0x36 ..\obj\stm32f10x_tim.o
 .text.TIM_OC2PreloadConfig
                0x00000000       0x3a ..\obj\stm32f10x_tim.o
 .text.TIM_OC3PreloadConfig
                0x00000000       0x36 ..\obj\stm32f10x_tim.o
 .text.TIM_OC4PreloadConfig
                0x00000000       0x3a ..\obj\stm32f10x_tim.o
 .text.TIM_OC1FastConfig
                0x00000000       0x36 ..\obj\stm32f10x_tim.o
 .text.TIM_OC2FastConfig
                0x00000000       0x3a ..\obj\stm32f10x_tim.o
 .text.TIM_OC3FastConfig
                0x00000000       0x36 ..\obj\stm32f10x_tim.o
 .text.TIM_OC4FastConfig
                0x00000000       0x3a ..\obj\stm32f10x_tim.o
 .text.TIM_ClearOC1Ref
                0x00000000       0x36 ..\obj\stm32f10x_tim.o
 .text.TIM_ClearOC2Ref
                0x00000000       0x3a ..\obj\stm32f10x_tim.o
 .text.TIM_ClearOC3Ref
                0x00000000       0x36 ..\obj\stm32f10x_tim.o
 .text.TIM_ClearOC4Ref
                0x00000000       0x3a ..\obj\stm32f10x_tim.o
 .text.TIM_OC1PolarityConfig
                0x00000000       0x36 ..\obj\stm32f10x_tim.o
 .text.TIM_OC1NPolarityConfig
                0x00000000       0x36 ..\obj\stm32f10x_tim.o
 .text.TIM_OC2PolarityConfig
                0x00000000       0x3a ..\obj\stm32f10x_tim.o
 .text.TIM_OC2NPolarityConfig
                0x00000000       0x3a ..\obj\stm32f10x_tim.o
 .text.TIM_OC3PolarityConfig
                0x00000000       0x3a ..\obj\stm32f10x_tim.o
 .text.TIM_OC3NPolarityConfig
                0x00000000       0x3a ..\obj\stm32f10x_tim.o
 .text.TIM_OC4PolarityConfig
                0x00000000       0x3a ..\obj\stm32f10x_tim.o
 .text.TIM_CCxCmd
                0x00000000       0x54 ..\obj\stm32f10x_tim.o
 .text.TIM_CCxNCmd
                0x00000000       0x54 ..\obj\stm32f10x_tim.o
 .text.TIM_SelectOCxM
                0x00000000       0xb0 ..\obj\stm32f10x_tim.o
 .text.TIM_UpdateDisableConfig
                0x00000000       0x3e ..\obj\stm32f10x_tim.o
 .text.TIM_UpdateRequestConfig
                0x00000000       0x3e ..\obj\stm32f10x_tim.o
 .text.TIM_SelectHallSensor
                0x00000000       0x3e ..\obj\stm32f10x_tim.o
 .text.TIM_SelectOnePulseMode
                0x00000000       0x36 ..\obj\stm32f10x_tim.o
 .text.TIM_SelectOutputTrigger
                0x00000000       0x36 ..\obj\stm32f10x_tim.o
 .text.TIM_SelectSlaveMode
                0x00000000       0x36 ..\obj\stm32f10x_tim.o
 .text.TIM_SelectMasterSlaveMode
                0x00000000       0x36 ..\obj\stm32f10x_tim.o
 .text.TIM_SetCounter
                0x00000000       0x1c ..\obj\stm32f10x_tim.o
 .text.TIM_SetAutoreload
                0x00000000       0x1c ..\obj\stm32f10x_tim.o
 .text.TIM_SetCompare1
                0x00000000       0x1c ..\obj\stm32f10x_tim.o
 .text.TIM_SetCompare2
                0x00000000       0x1c ..\obj\stm32f10x_tim.o
 .text.TIM_SetCompare3
                0x00000000       0x1c ..\obj\stm32f10x_tim.o
 .text.TIM_SetCompare4
                0x00000000       0x1e ..\obj\stm32f10x_tim.o
 .text.TIM_SetIC1Prescaler
                0x00000000       0x36 ..\obj\stm32f10x_tim.o
 .text.TIM_SetIC2Prescaler
                0x00000000       0x3a ..\obj\stm32f10x_tim.o
 .text.TIM_SetIC3Prescaler
                0x00000000       0x36 ..\obj\stm32f10x_tim.o
 .text.TIM_SetIC4Prescaler
                0x00000000       0x3a ..\obj\stm32f10x_tim.o
 .text.TIM_SetClockDivision
                0x00000000       0x36 ..\obj\stm32f10x_tim.o
 .text.TIM_GetCapture1
                0x00000000       0x18 ..\obj\stm32f10x_tim.o
 .text.TIM_GetCapture2
                0x00000000       0x18 ..\obj\stm32f10x_tim.o
 .text.TIM_GetCapture3
                0x00000000       0x18 ..\obj\stm32f10x_tim.o
 .text.TIM_GetCapture4
                0x00000000       0x1a ..\obj\stm32f10x_tim.o
 .text.TIM_GetCounter
                0x00000000       0x18 ..\obj\stm32f10x_tim.o
 .text.TIM_GetPrescaler
                0x00000000       0x18 ..\obj\stm32f10x_tim.o
 .text.TIM_GetFlagStatus
                0x00000000       0x36 ..\obj\stm32f10x_tim.o
 .text.TIM_ClearFlag
                0x00000000       0x20 ..\obj\stm32f10x_tim.o
 .text.TI1_Config
                0x00000000       0xe0 ..\obj\stm32f10x_tim.o
 .text.TI2_Config
                0x00000000       0xf4 ..\obj\stm32f10x_tim.o
 .text.TI3_Config
                0x00000000       0xec ..\obj\stm32f10x_tim.o
 .text.TI4_Config
                0x00000000       0xf8 ..\obj\stm32f10x_tim.o
 .text          0x00000000        0x0 ..\obj\system_stm32f10x.o
 .data          0x00000000       0x14 ..\obj\system_stm32f10x.o
 .bss           0x00000000        0x0 ..\obj\system_stm32f10x.o
 .text.SystemCoreClockUpdate
                0x00000000      0x14c ..\obj\system_stm32f10x.o
 .text          0x00000000        0x0 ..\obj\stm32f10x_gpio.o
 .data          0x00000000        0x0 ..\obj\stm32f10x_gpio.o
 .bss           0x00000000        0x0 ..\obj\stm32f10x_gpio.o
 .text.GPIO_DeInit
                0x00000000       0xe4 ..\obj\stm32f10x_gpio.o
 .text.GPIO_AFIODeInit
                0x00000000       0x18 ..\obj\stm32f10x_gpio.o
 .text.GPIO_StructInit
                0x00000000       0x26 ..\obj\stm32f10x_gpio.o
 .text.GPIO_ReadInputData
                0x00000000       0x18 ..\obj\stm32f10x_gpio.o
 .text.GPIO_ReadOutputData
                0x00000000       0x18 ..\obj\stm32f10x_gpio.o
 .text.GPIO_WriteBit
                0x00000000       0x2e ..\obj\stm32f10x_gpio.o
 .text.GPIO_Write
                0x00000000       0x1c ..\obj\stm32f10x_gpio.o
 .text.GPIO_PinLockConfig
                0x00000000       0x42 ..\obj\stm32f10x_gpio.o
 .text.GPIO_EventOutputConfig
                0x00000000       0x4c ..\obj\stm32f10x_gpio.o
 .text.GPIO_EventOutputCmd
                0x00000000       0x20 ..\obj\stm32f10x_gpio.o
 .text.GPIO_PinRemapConfig
                0x00000000       0xe0 ..\obj\stm32f10x_gpio.o
 .text.GPIO_ETH_MediaInterfaceConfig
                0x00000000       0x1c ..\obj\stm32f10x_gpio.o
 .text          0x00000000        0x0 ..\obj\main.o
 .data          0x00000000        0x0 ..\obj\main.o
 .text.Delay_ms
                0x00000000       0x30 ..\obj\main.o
 .text          0x00000000        0x0 ..\obj\stm32f10x_rcc.o
 .bss           0x00000000        0x0 ..\obj\stm32f10x_rcc.o
 .text.RCC_HSEConfig
                0x00000000       0x5c ..\obj\stm32f10x_rcc.o
 .text.RCC_WaitForHSEStartUp
                0x00000000       0x50 ..\obj\stm32f10x_rcc.o
 .text.RCC_AdjustHSICalibrationValue
                0x00000000       0x3c ..\obj\stm32f10x_rcc.o
 .text.RCC_HSICmd
                0x00000000       0x20 ..\obj\stm32f10x_rcc.o
 .text.RCC_PLLConfig
                0x00000000       0x3c ..\obj\stm32f10x_rcc.o
 .text.RCC_PLLCmd
                0x00000000       0x20 ..\obj\stm32f10x_rcc.o
 .text.RCC_PREDIV1Config
                0x00000000       0x40 ..\obj\stm32f10x_rcc.o
 .text.RCC_PREDIV2Config
                0x00000000       0x38 ..\obj\stm32f10x_rcc.o
 .text.RCC_PLL2Config
                0x00000000       0x38 ..\obj\stm32f10x_rcc.o
 .text.RCC_PLL2Cmd
                0x00000000       0x20 ..\obj\stm32f10x_rcc.o
 .text.RCC_PLL3Config
                0x00000000       0x38 ..\obj\stm32f10x_rcc.o
 .text.RCC_PLL3Cmd
                0x00000000       0x20 ..\obj\stm32f10x_rcc.o
 .text.RCC_ITConfig
                0x00000000       0x4c ..\obj\stm32f10x_rcc.o
 .text.RCC_OTGFSCLKConfig
                0x00000000       0x1c ..\obj\stm32f10x_rcc.o
 .text.RCC_ADCCLKConfig
                0x00000000       0x38 ..\obj\stm32f10x_rcc.o
 .text.RCC_I2S2CLKConfig
                0x00000000       0x1c ..\obj\stm32f10x_rcc.o
 .text.RCC_I2S3CLKConfig
                0x00000000       0x1c ..\obj\stm32f10x_rcc.o
 .text.RCC_LSEConfig
                0x00000000       0x40 ..\obj\stm32f10x_rcc.o
 .text.RCC_LSICmd
                0x00000000       0x20 ..\obj\stm32f10x_rcc.o
 .text.RCC_RTCCLKConfig
                0x00000000       0x24 ..\obj\stm32f10x_rcc.o
 .text.RCC_RTCCLKCmd
                0x00000000       0x20 ..\obj\stm32f10x_rcc.o
 .text.RCC_AHBPeriphClockCmd
                0x00000000       0x3c ..\obj\stm32f10x_rcc.o
 .text.RCC_AHBPeriphResetCmd
                0x00000000       0x3c ..\obj\stm32f10x_rcc.o
 .text.RCC_APB2PeriphResetCmd
                0x00000000       0x3c ..\obj\stm32f10x_rcc.o
 .text.RCC_APB1PeriphResetCmd
                0x00000000       0x3c ..\obj\stm32f10x_rcc.o
 .text.RCC_BackupResetCmd
                0x00000000       0x20 ..\obj\stm32f10x_rcc.o
 .text.RCC_ClockSecuritySystemCmd
                0x00000000       0x20 ..\obj\stm32f10x_rcc.o
 .text.RCC_MCOConfig
                0x00000000       0x20 ..\obj\stm32f10x_rcc.o
 .text.RCC_ClearFlag
                0x00000000       0x1c ..\obj\stm32f10x_rcc.o
 .text.RCC_GetITStatus
                0x00000000       0x34 ..\obj\stm32f10x_rcc.o
 .text.RCC_ClearITPendingBit
                0x00000000       0x20 ..\obj\stm32f10x_rcc.o
 .text          0x00000000        0x0 ..\obj\startup_stm32f10x_cl.o
 .data          0x00000000        0x0 ..\obj\startup_stm32f10x_cl.o
 .bss           0x00000000        0x0 ..\obj\startup_stm32f10x_cl.o
 .text          0x00000000        0x0 ..\obj\stm32f10x_exti.o
 .data          0x00000000        0x0 ..\obj\stm32f10x_exti.o
 .bss           0x00000000        0x0 ..\obj\stm32f10x_exti.o
 .text.EXTI_DeInit
                0x00000000       0x34 ..\obj\stm32f10x_exti.o
 .text.EXTI_StructInit
                0x00000000       0x2a ..\obj\stm32f10x_exti.o
 .text.EXTI_GenerateSWInterrupt
                0x00000000       0x24 ..\obj\stm32f10x_exti.o
 .text.EXTI_GetFlagStatus
                0x00000000       0x34 ..\obj\stm32f10x_exti.o
 .text.EXTI_ClearFlag
                0x00000000       0x1c ..\obj\stm32f10x_exti.o
 .text          0x00000000        0x0 ..\obj\stm32f10x_usart.o
 .data          0x00000000        0x0 ..\obj\stm32f10x_usart.o
 .bss           0x00000000        0x0 ..\obj\stm32f10x_usart.o
 .text.USART_DeInit
                0x00000000       0xb8 ..\obj\stm32f10x_usart.o
 .text.USART_StructInit
                0x00000000       0x38 ..\obj\stm32f10x_usart.o
 .text.USART_ClockInit
                0x00000000       0x56 ..\obj\stm32f10x_usart.o
 .text.USART_ClockStructInit
                0x00000000       0x2a ..\obj\stm32f10x_usart.o
 .text.USART_ITConfig
                0x00000000       0x8e ..\obj\stm32f10x_usart.o
 .text.USART_DMACmd
                0x00000000       0x46 ..\obj\stm32f10x_usart.o
 .text.USART_SetAddress
                0x00000000       0x38 ..\obj\stm32f10x_usart.o
 .text.USART_WakeUpConfig
                0x00000000       0x36 ..\obj\stm32f10x_usart.o
 .text.USART_ReceiverWakeUpCmd
                0x00000000       0x3e ..\obj\stm32f10x_usart.o
 .text.USART_LINBreakDetectLengthConfig
                0x00000000       0x36 ..\obj\stm32f10x_usart.o
 .text.USART_LINCmd
                0x00000000       0x3e ..\obj\stm32f10x_usart.o
 .text.USART_ReceiveData
                0x00000000       0x1e ..\obj\stm32f10x_usart.o
 .text.USART_SendBreak
                0x00000000       0x22 ..\obj\stm32f10x_usart.o
 .text.USART_SetGuardTime
                0x00000000       0x3a ..\obj\stm32f10x_usart.o
 .text.USART_SetPrescaler
                0x00000000       0x38 ..\obj\stm32f10x_usart.o
 .text.USART_SmartCardCmd
                0x00000000       0x3e ..\obj\stm32f10x_usart.o
 .text.USART_SmartCardNACKCmd
                0x00000000       0x3e ..\obj\stm32f10x_usart.o
 .text.USART_HalfDuplexCmd
                0x00000000       0x3e ..\obj\stm32f10x_usart.o
 .text.USART_OverSampling8Cmd
                0x00000000       0x42 ..\obj\stm32f10x_usart.o
 .text.USART_OneBitMethodCmd
                0x00000000       0x3e ..\obj\stm32f10x_usart.o
 .text.USART_IrDAConfig
                0x00000000       0x36 ..\obj\stm32f10x_usart.o
 .text.USART_IrDACmd
                0x00000000       0x3e ..\obj\stm32f10x_usart.o
 .text.USART_ClearFlag
                0x00000000       0x20 ..\obj\stm32f10x_usart.o
 .text.USART_GetITStatus
                0x00000000       0xb4 ..\obj\stm32f10x_usart.o
 .text.USART_ClearITPendingBit
                0x00000000       0x38 ..\obj\stm32f10x_usart.o
 .text          0x00000000        0x0 ..\obj\stm32f10x_flash.o
 .data          0x00000000        0x0 ..\obj\stm32f10x_flash.o
 .bss           0x00000000        0x0 ..\obj\stm32f10x_flash.o
 .text.FLASH_SetLatency
                0x00000000       0x38 ..\obj\stm32f10x_flash.o
 .text.FLASH_HalfCycleAccessCmd
                0x00000000       0x30 ..\obj\stm32f10x_flash.o
 .text.FLASH_PrefetchBufferCmd
                0x00000000       0x30 ..\obj\stm32f10x_flash.o
 .text.FLASH_Unlock
                0x00000000       0x24 ..\obj\stm32f10x_flash.o
 .text.FLASH_UnlockBank1
                0x00000000       0x24 ..\obj\stm32f10x_flash.o
 .text.FLASH_Lock
                0x00000000       0x1c ..\obj\stm32f10x_flash.o
 .text.FLASH_LockBank1
                0x00000000       0x1c ..\obj\stm32f10x_flash.o
 .text.FLASH_ErasePage
                0x00000000       0x64 ..\obj\stm32f10x_flash.o
 .text.FLASH_EraseAllPages
                0x00000000       0x5c ..\obj\stm32f10x_flash.o
 .text.FLASH_EraseAllBank1Pages
                0x00000000       0x5c ..\obj\stm32f10x_flash.o
 .text.FLASH_EraseOptionBytes
                0x00000000       0xd4 ..\obj\stm32f10x_flash.o
 .text.FLASH_ProgramWord
                0x00000000       0x94 ..\obj\stm32f10x_flash.o
 .text.FLASH_ProgramHalfWord
                0x00000000       0x5c ..\obj\stm32f10x_flash.o
 .text.FLASH_ProgramOptionByteData
                0x00000000       0x78 ..\obj\stm32f10x_flash.o
 .text.FLASH_EnableWriteProtection
                0x00000000      0x118 ..\obj\stm32f10x_flash.o
 .text.FLASH_ReadOutProtection
                0x00000000       0xd4 ..\obj\stm32f10x_flash.o
 .text.FLASH_UserOptionByteConfig
                0x00000000       0x94 ..\obj\stm32f10x_flash.o
 .text.FLASH_GetUserOptionByte
                0x00000000       0x18 ..\obj\stm32f10x_flash.o
 .text.FLASH_GetWriteProtectionOptionByte
                0x00000000       0x14 ..\obj\stm32f10x_flash.o
 .text.FLASH_GetReadOutProtectionStatus
                0x00000000       0x30 ..\obj\stm32f10x_flash.o
 .text.FLASH_GetPrefetchBufferStatus
                0x00000000       0x30 ..\obj\stm32f10x_flash.o
 .text.FLASH_ITConfig
                0x00000000       0x3c ..\obj\stm32f10x_flash.o
 .text.FLASH_GetFlagStatus
                0x00000000       0x50 ..\obj\stm32f10x_flash.o
 .text.FLASH_ClearFlag
                0x00000000       0x1c ..\obj\stm32f10x_flash.o
 .text.FLASH_GetStatus
                0x00000000       0x54 ..\obj\stm32f10x_flash.o
 .text.FLASH_GetBank1Status
                0x00000000       0x54 ..\obj\stm32f10x_flash.o
 .text.FLASH_WaitForLastOperation
                0x00000000       0x44 ..\obj\stm32f10x_flash.o
 .text.FLASH_WaitForLastBank1Operation
                0x00000000       0x44 ..\obj\stm32f10x_flash.o
 .debug_info    0x00000000      0x7fc ..\obj\stm32f10x_flash.o
 .debug_abbrev  0x00000000      0x1a4 ..\obj\stm32f10x_flash.o
 .debug_aranges
                0x00000000       0xf8 ..\obj\stm32f10x_flash.o
 .debug_ranges  0x00000000       0xe8 ..\obj\stm32f10x_flash.o
 .debug_line    0x00000000      0x76d ..\obj\stm32f10x_flash.o
 .debug_str     0x00000000      0x607 ..\obj\stm32f10x_flash.o
 .comment       0x00000000       0x4e ..\obj\stm32f10x_flash.o
 .debug_frame   0x00000000      0x410 ..\obj\stm32f10x_flash.o
 .ARM.attributes
                0x00000000       0x2d ..\obj\stm32f10x_flash.o
 .text          0x00000000        0x0 ..\obj\ConfigPeriph.o
 .data          0x00000000        0x0 ..\obj\ConfigPeriph.o
 .bss           0x00000000        0x0 ..\obj\ConfigPeriph.o
 .text          0x00000000        0x0 ..\obj\misc.o
 .data          0x00000000        0x0 ..\obj\misc.o
 .bss           0x00000000        0x0 ..\obj\misc.o
 .text.NVIC_PriorityGroupConfig
                0x00000000       0x24 ..\obj\misc.o
 .text.NVIC_SetVectorTable
                0x00000000       0x2c ..\obj\misc.o
 .text.NVIC_SystemLPConfig
                0x00000000       0x40 ..\obj\misc.o
 .text.SysTick_CLKSourceConfig
                0x00000000       0x38 ..\obj\misc.o

Memory Configuration

Name             Origin             Length             Attributes
rom              0x08000000         0x00040000         xr
ram              0x20000000         0x00010000         xrw
*default*        0x00000000         0xffffffff

Linker script and memory map

                0x20010000                _eram = 0x20010000

.text           0x08000000     0x13cf
 *(.isr_vector)
 .isr_vector    0x08000000      0x154 ..\obj\startup_stm32f10x_cl.o
                0x08000000                g_pfnVectors
 *(.text*)
 .text.TIM_TimeBaseInit
                0x08000154       0xf8 ..\obj\stm32f10x_tim.o
                0x08000154                TIM_TimeBaseInit
 .text.TIM_Cmd  0x0800024c       0x3e ..\obj\stm32f10x_tim.o
                0x0800024c                TIM_Cmd
 .text.TIM_ITConfig
                0x0800028a       0x46 ..\obj\stm32f10x_tim.o
                0x0800028a                TIM_ITConfig
 .text.TIM_GetITStatus
                0x080002d0       0x52 ..\obj\stm32f10x_tim.o
                0x080002d0                TIM_GetITStatus
 .text.TIM_ClearITPendingBit
                0x08000322       0x20 ..\obj\stm32f10x_tim.o
                0x08000322                TIM_ClearITPendingBit
 *fill*         0x08000342        0x2 
 .text.SystemInit
                0x08000344       0x7c ..\obj\system_stm32f10x.o
                0x08000344                SystemInit
 .text.SetSysClock
                0x080003c0        0xc ..\obj\system_stm32f10x.o
 .text.SetSysClockTo72
                0x080003cc      0x138 ..\obj\system_stm32f10x.o
 .text.GPIO_Init
                0x08000504      0x178 ..\obj\stm32f10x_gpio.o
                0x08000504                GPIO_Init
 .text.GPIO_ReadInputDataBit
                0x0800067c       0x32 ..\obj\stm32f10x_gpio.o
                0x0800067c                GPIO_ReadInputDataBit
 .text.GPIO_ReadOutputDataBit
                0x080006ae       0x32 ..\obj\stm32f10x_gpio.o
                0x080006ae                GPIO_ReadOutputDataBit
 .text.GPIO_SetBits
                0x080006e0       0x1c ..\obj\stm32f10x_gpio.o
                0x080006e0                GPIO_SetBits
 .text.GPIO_ResetBits
                0x080006fc       0x1c ..\obj\stm32f10x_gpio.o
                0x080006fc                GPIO_ResetBits
 .text.GPIO_EXTILineConfig
                0x08000718       0x80 ..\obj\stm32f10x_gpio.o
                0x08000718                GPIO_EXTILineConfig
 .text.USART_SendString
                0x08000798       0x52 ..\obj\main.o
                0x08000798                USART_SendString
 *fill*         0x080007ea        0x2 
 .text.millis   0x080007ec       0x14 ..\obj\main.o
                0x080007ec                millis
 .text.main     0x08000800       0x2c ..\obj\main.o
                0x08000800                main
 .text.EXTI9_5_IRQHandler
                0x0800082c       0x34 ..\obj\main.o
                0x0800082c                EXTI9_5_IRQHandler
 .text.TIM2_IRQHandler
                0x08000860       0x5c ..\obj\main.o
                0x08000860                TIM2_IRQHandler
 .text.Flag     0x080008bc       0x50 ..\obj\main.o
                0x080008bc                Flag
 .text.RCC_DeInit
                0x0800090c       0x70 ..\obj\stm32f10x_rcc.o
                0x0800090c                RCC_DeInit
 .text.RCC_SYSCLKConfig
                0x0800097c       0x38 ..\obj\stm32f10x_rcc.o
                0x0800097c                RCC_SYSCLKConfig
 .text.RCC_GetSYSCLKSource
                0x080009b4       0x1c ..\obj\stm32f10x_rcc.o
                0x080009b4                RCC_GetSYSCLKSource
 .text.RCC_HCLKConfig
                0x080009d0       0x38 ..\obj\stm32f10x_rcc.o
                0x080009d0                RCC_HCLKConfig
 .text.RCC_PCLK1Config
                0x08000a08       0x38 ..\obj\stm32f10x_rcc.o
                0x08000a08                RCC_PCLK1Config
 .text.RCC_PCLK2Config
                0x08000a40       0x38 ..\obj\stm32f10x_rcc.o
                0x08000a40                RCC_PCLK2Config
 .text.RCC_GetClocksFreq
                0x08000a78      0x1d4 ..\obj\stm32f10x_rcc.o
                0x08000a78                RCC_GetClocksFreq
 .text.RCC_APB2PeriphClockCmd
                0x08000c4c       0x3c ..\obj\stm32f10x_rcc.o
                0x08000c4c                RCC_APB2PeriphClockCmd
 .text.RCC_APB1PeriphClockCmd
                0x08000c88       0x3c ..\obj\stm32f10x_rcc.o
                0x08000c88                RCC_APB1PeriphClockCmd
 .text.RCC_GetFlagStatus
                0x08000cc4       0x74 ..\obj\stm32f10x_rcc.o
                0x08000cc4                RCC_GetFlagStatus
 .text.Default_Reset_Handler
                0x08000d38       0x60 ..\obj\startup_stm32f10x_cl.o
                0x08000d38                Default_Reset_Handler
                0x08000d38                Reset_Handler
 .text.Default_Handler
                0x08000d98        0x6 ..\obj\startup_stm32f10x_cl.o
                0x08000d98                EXTI2_IRQHandler
                0x08000d98                DebugMon_Handler
                0x08000d98                TIM1_CC_IRQHandler
                0x08000d98                HardFault_Handler
                0x08000d98                TIM6_IRQHandler
                0x08000d98                SysTick_Handler
                0x08000d98                PVD_IRQHandler
                0x08000d98                PendSV_Handler
                0x08000d98                NMI_Handler
                0x08000d98                CAN2_RX1_IRQHandler
                0x08000d98                EXTI3_IRQHandler
                0x08000d98                EXTI0_IRQHandler
                0x08000d98                I2C2_EV_IRQHandler
                0x08000d98                CAN1_RX0_IRQHandler
                0x08000d98                UsageFault_Handler
                0x08000d98                CAN2_SCE_IRQHandler
                0x08000d98                ADC1_2_IRQHandler
                0x08000d98                SPI1_IRQHandler
                0x08000d98                TAMPER_IRQHandler
                0x08000d98                CAN2_RX0_IRQHandler
                0x08000d98                DMA2_Channel2_IRQHandler
                0x08000d98                DMA1_Channel4_IRQHandler
                0x08000d98                USART3_IRQHandler
                0x08000d98                RTC_IRQHandler
                0x08000d98                DMA1_Channel7_IRQHandler
                0x08000d98                CAN1_RX1_IRQHandler
                0x08000d98                UART5_IRQHandler
                0x08000d98                TIM4_IRQHandler
                0x08000d98                DMA2_Channel1_IRQHandler
                0x08000d98                I2C1_EV_IRQHandler
                0x08000d98                DMA1_Channel6_IRQHandler
                0x08000d98                UART4_IRQHandler
                0x08000d98                DMA2_Channel4_IRQHandler
                0x08000d98                TIM3_IRQHandler
                0x08000d98                RCC_IRQHandler
                0x08000d98                TIM1_TRG_COM_IRQHandler
                0x08000d98                DMA1_Channel1_IRQHandler
                0x08000d98                EXTI15_10_IRQHandler
                0x08000d98                TIM7_IRQHandler
                0x08000d98                CAN2_TX_IRQHandler
                0x08000d98                TIM5_IRQHandler
                0x08000d98                ETH_WKUP_IRQHandler
                0x08000d98                SPI2_IRQHandler
                0x08000d98                MemManage_Handler
                0x08000d98                CAN1_TX_IRQHandler
                0x08000d98                SVC_Handler
                0x08000d98                DMA2_Channel5_IRQHandler
                0x08000d98                DMA1_Channel5_IRQHandler
                0x08000d98                EXTI4_IRQHandler
                0x08000d98                DMA1_Channel3_IRQHandler
                0x08000d98                ETH_IRQHandler
                0x08000d98                TIM1_UP_IRQHandler
                0x08000d98                WWDG_IRQHandler
                0x08000d98                OTG_FS_WKUP_IRQHandler
                0x08000d98                TIM1_BRK_IRQHandler
                0x08000d98                EXTI1_IRQHandler
                0x08000d98                RTCAlarm_IRQHandler
                0x08000d98                USART2_IRQHandler
                0x08000d98                I2C2_ER_IRQHandler
                0x08000d98                DMA1_Channel2_IRQHandler
                0x08000d98                CAN1_SCE_IRQHandler
                0x08000d98                FLASH_IRQHandler
                0x08000d98                BusFault_Handler
                0x08000d98                USART1_IRQHandler
                0x08000d98                OTG_FS_IRQHandler
                0x08000d98                SPI3_IRQHandler
                0x08000d98                I2C1_ER_IRQHandler
                0x08000d98                DMA2_Channel3_IRQHandler
 *fill*         0x08000d9e        0x2 
 .text.EXTI_Init
                0x08000da0       0xe4 ..\obj\stm32f10x_exti.o
                0x08000da0                EXTI_Init
 .text.EXTI_GetITStatus
                0x08000e84       0x48 ..\obj\stm32f10x_exti.o
                0x08000e84                EXTI_GetITStatus
 .text.EXTI_ClearITPendingBit
                0x08000ecc       0x1c ..\obj\stm32f10x_exti.o
                0x08000ecc                EXTI_ClearITPendingBit
 .text.USART_Init
                0x08000ee8      0x174 ..\obj\stm32f10x_usart.o
                0x08000ee8                USART_Init
 .text.USART_Cmd
                0x0800105c       0x3e ..\obj\stm32f10x_usart.o
                0x0800105c                USART_Cmd
 .text.USART_SendData
                0x0800109a       0x22 ..\obj\stm32f10x_usart.o
                0x0800109a                USART_SendData
 .text.USART_GetFlagStatus
                0x080010bc       0x36 ..\obj\stm32f10x_usart.o
                0x080010bc                USART_GetFlagStatus
 *fill*         0x080010f2        0x2 
 .text.NVIC_EnableIRQ
                0x080010f4       0x30 ..\obj\ConfigPeriph.o
 .text.SystemClock_Config
                0x08001124       0x3e ..\obj\ConfigPeriph.o
                0x08001124                SystemClock_Config
 *fill*         0x08001162        0x2 
 .text.USART_Config
                0x08001164       0x7c ..\obj\ConfigPeriph.o
                0x08001164                USART_Config
 .text.LED_GPIO_Config
                0x080011e0       0x3c ..\obj\ConfigPeriph.o
                0x080011e0                LED_GPIO_Config
 .text.EXTI1_Config
                0x0800121c       0x6c ..\obj\ConfigPeriph.o
                0x0800121c                EXTI1_Config
 .text.TIM2_Config
                0x08001288       0x74 ..\obj\ConfigPeriph.o
                0x08001288                TIM2_Config
 .text.NVIC_Init
                0x080012fc       0xc4 ..\obj\misc.o
                0x080012fc                NVIC_Init
 *(.init)
 *(.fini)
 *crtbegin.o(.ctors)
 *crtbegin?.o(.ctors)
 *(EXCLUDE_FILE(*crtend.o *crtend?.o) .ctors)
 *(SORT_BY_NAME(.ctors.*))
 *(.ctors)
 *crtbegin.o(.dtors)
 *crtbegin?.o(.dtors)
 *(EXCLUDE_FILE(*crtend.o *crtend?.o) .dtors)
 *(SORT_BY_NAME(.dtors.*))
 *(.dtors)
 *(.rodata*)
 .rodata        0x080013c0        0xf ..\obj\main.o
 *(.eh_fram e*)

.glue_7         0x080013d0        0x0
 .glue_7        0x080013d0        0x0 linker stubs

.glue_7t        0x080013d0        0x0
 .glue_7t       0x080013d0        0x0 linker stubs

.vfp11_veneer   0x080013d0        0x0
 .vfp11_veneer  0x080013d0        0x0 linker stubs

.v4_bx          0x080013d0        0x0
 .v4_bx         0x080013d0        0x0 linker stubs

.iplt           0x080013d0        0x0
 .iplt          0x080013d0        0x0 ..\obj\system_stm32f10x.o

.rel.dyn        0x080013d0        0x0
 .rel.iplt      0x080013d0        0x0 ..\obj\system_stm32f10x.o

.ARM.extab
 *(.ARM.extab* .gnu.linkonce.armextab.*)
                0x080013cf                __exidx_start = .

.ARM.exidx
 *(.ARM.exidx* .gnu.linkonce.armexidx.*)
                0x080013cf                __exidx_end = .
                0x080013cf                __etext = .
                0x080013cf                _sidata = __etext

.data           0x20000000       0x14 load address 0x080013cf
                0x20000000                __data_start__ = .
                0x20000000                _sdata = __data_start__
 *(vtable)
 *(.data*)
 .data          0x20000000       0x14 ..\obj\stm32f10x_rcc.o
                0x20000014                . = ALIGN (0x4)
                [!provide]                PROVIDE (__preinit_array_start = .)
 *(.preinit_array)
                [!provide]                PROVIDE (__preinit_array_end = .)
                0x20000014                . = ALIGN (0x4)
                [!provide]                PROVIDE (__init_array_start = .)
 *(SORT_BY_NAME(.init_array.*))
 *(.init_array)
                [!provide]                PROVIDE (__init_array_end = .)
                0x20000014                . = ALIGN (0x4)
                [!provide]                PROVIDE (__fini_array_start = .)
 *(SORT_BY_NAME(.fini_array.*))
 *(.fini_array)
                [!provide]                PROVIDE (__fini_array_end = .)
 *(.jcr*)
                0x20000014                . = ALIGN (0x4)
                0x20000014                __data_end__ = .
                0x20000014                _edata = __data_end__

.igot.plt       0x20000014        0x0 load address 0x080013e4
 .igot.plt      0x20000014        0x0 ..\obj\system_stm32f10x.o

.bss            0x20000014       0x10 load address 0x080013e4
                0x20000014                . = ALIGN (0x4)
                0x20000014                __bss_start__ = .
                0x20000014                _sbss = __bss_start__
 *(.bss*)
 .bss           0x20000014       0x10 ..\obj\main.o
                0x20000014                uwTick
                0x20000018                lastTime
                0x2000001c                State
                0x20000020                flag
 *(COMMON)
                0x20000024                . = ALIGN (0x4)
                0x20000024                __bss_end__ = .
                0x20000024                _ebss = __bss_end__

.heap           0x20000024        0x0
                0x20000024                __end__ = .
                0x20000024                _end = __end__
                0x20000024                end = __end__
 *(.heap*)
                0x20000024                __HeapLimit = .

.co_stack       0x20000024      0x404 load address 0x080013f4
                0x20000028                . = ALIGN (0x8)
 *fill*         0x20000024        0x4 
 *(.co_stack .co_stack.*)
 .co_stack      0x20000028      0x400 ..\obj\startup_stm32f10x_cl.o
                0x20000028                pulStack
                0x20010000                __StackTop = (ORIGIN (ram) + LENGTH (ram))
                0x2000fbfc                __StackLimit = (__StackTop - SIZEOF (.co_stack))
                [!provide]                PROVIDE (__stack = __StackTop)
                0x00000001                ASSERT ((__StackLimit >= __HeapLimit), region ram  overflowed with stack)
LOAD ..\obj\stm32f10x_tim.o
LOAD ..\obj\system_stm32f10x.o
LOAD ..\obj\stm32f10x_gpio.o
LOAD ..\obj\main.o
LOAD ..\obj\stm32f10x_rcc.o
LOAD ..\obj\startup_stm32f10x_cl.o
LOAD ..\obj\stm32f10x_exti.o
LOAD ..\obj\stm32f10x_usart.o
LOAD ..\obj\stm32f10x_flash.o
LOAD ..\obj\ConfigPeriph.o
LOAD ..\obj\misc.o
START GROUP
LOAD c:/program files (x86)/gnu arm embedded toolchain/10 2020-q4-major/bin/../lib/gcc/arm-none-eabi/10.2.1/thumb/v7-m/nofp\libgcc.a
LOAD c:/program files (x86)/gnu arm embedded toolchain/10 2020-q4-major/bin/../lib/gcc/arm-none-eabi/10.2.1/../../../../arm-none-eabi/lib/thumb/v7-m/nofp\libg.a
LOAD c:/program files (x86)/gnu arm embedded toolchain/10 2020-q4-major/bin/../lib/gcc/arm-none-eabi/10.2.1/../../../../arm-none-eabi/lib/thumb/v7-m/nofp\libc.a
END GROUP
OUTPUT(USART Terminal.elf elf32-littlearm)
LOAD linker stubs

.debug_info     0x00000000     0x59fd
 .debug_info    0x00000000     0x1de8 ..\obj\stm32f10x_tim.o
 .debug_info    0x00001de8      0x512 ..\obj\system_stm32f10x.o
 .debug_info    0x000022fa      0x72e ..\obj\stm32f10x_gpio.o
 .debug_info    0x00002a28      0x5c0 ..\obj\main.o
 .debug_info    0x00002fe8      0xb17 ..\obj\stm32f10x_rcc.o
 .debug_info    0x00003aff       0xfb ..\obj\startup_stm32f10x_cl.o
 .debug_info    0x00003bfa      0x357 ..\obj\stm32f10x_exti.o
 .debug_info    0x00003f51      0xa5b ..\obj\stm32f10x_usart.o
 .debug_info    0x000049ac      0xaf5 ..\obj\ConfigPeriph.o
 .debug_info    0x000054a1      0x55c ..\obj\misc.o

.debug_abbrev   0x00000000      0xf87
 .debug_abbrev  0x00000000      0x1c9 ..\obj\stm32f10x_tim.o
 .debug_abbrev  0x000001c9      0x17d ..\obj\system_stm32f10x.o
 .debug_abbrev  0x00000346      0x1e9 ..\obj\stm32f10x_gpio.o
 .debug_abbrev  0x0000052f      0x1bb ..\obj\main.o
 .debug_abbrev  0x000006ea      0x1d3 ..\obj\stm32f10x_rcc.o
 .debug_abbrev  0x000008bd       0xb3 ..\obj\startup_stm32f10x_cl.o
 .debug_abbrev  0x00000970      0x168 ..\obj\stm32f10x_exti.o
 .debug_abbrev  0x00000ad8      0x191 ..\obj\stm32f10x_usart.o
 .debug_abbrev  0x00000c69      0x1ae ..\obj\ConfigPeriph.o
 .debug_abbrev  0x00000e17      0x170 ..\obj\misc.o

.debug_aranges  0x00000000      0x788
 .debug_aranges
                0x00000000      0x2f0 ..\obj\stm32f10x_tim.o
 .debug_aranges
                0x000002f0       0x38 ..\obj\system_stm32f10x.o
 .debug_aranges
                0x00000328       0xa8 ..\obj\stm32f10x_gpio.o
 .debug_aranges
                0x000003d0       0x50 ..\obj\main.o
 .debug_aranges
                0x00000420      0x160 ..\obj\stm32f10x_rcc.o
 .debug_aranges
                0x00000580       0x28 ..\obj\startup_stm32f10x_cl.o
 .debug_aranges
                0x000005a8       0x58 ..\obj\stm32f10x_exti.o
 .debug_aranges
                0x00000600      0x100 ..\obj\stm32f10x_usart.o
 .debug_aranges
                0x00000700       0x48 ..\obj\ConfigPeriph.o
 .debug_aranges
                0x00000748       0x40 ..\obj\misc.o

.debug_ranges   0x00000000      0x6e8
 .debug_ranges  0x00000000      0x2e0 ..\obj\stm32f10x_tim.o
 .debug_ranges  0x000002e0       0x28 ..\obj\system_stm32f10x.o
 .debug_ranges  0x00000308       0x98 ..\obj\stm32f10x_gpio.o
 .debug_ranges  0x000003a0       0x40 ..\obj\main.o
 .debug_ranges  0x000003e0      0x150 ..\obj\stm32f10x_rcc.o
 .debug_ranges  0x00000530       0x18 ..\obj\startup_stm32f10x_cl.o
 .debug_ranges  0x00000548       0x48 ..\obj\stm32f10x_exti.o
 .debug_ranges  0x00000590       0xf0 ..\obj\stm32f10x_usart.o
 .debug_ranges  0x00000680       0x38 ..\obj\ConfigPeriph.o
 .debug_ranges  0x000006b8       0x30 ..\obj\misc.o

.debug_line     0x00000000     0x389b
 .debug_line    0x00000000     0x11c5 ..\obj\stm32f10x_tim.o
 .debug_line    0x000011c5      0x390 ..\obj\system_stm32f10x.o
 .debug_line    0x00001555      0x5b8 ..\obj\stm32f10x_gpio.o
 .debug_line    0x00001b0d      0x300 ..\obj\main.o
 .debug_line    0x00001e0d      0x8c8 ..\obj\stm32f10x_rcc.o
 .debug_line    0x000026d5       0xc2 ..\obj\startup_stm32f10x_cl.o
 .debug_line    0x00002797      0x36f ..\obj\stm32f10x_exti.o
 .debug_line    0x00002b06      0x6ff ..\obj\stm32f10x_usart.o
 .debug_line    0x00003205      0x393 ..\obj\ConfigPeriph.o
 .debug_line    0x00003598      0x303 ..\obj\misc.o

.debug_str      0x00000000     0x252e
 .debug_str     0x00000000      0xd36 ..\obj\stm32f10x_tim.o
                                0xdfc (size before relaxing)
 .debug_str     0x00000d36      0x1b7 ..\obj\system_stm32f10x.o
                                0x34f (size before relaxing)
 .debug_str     0x00000eed      0x382 ..\obj\stm32f10x_gpio.o
                                0x538 (size before relaxing)
 .debug_str     0x0000126f       0xae ..\obj\main.o
                                0x367 (size before relaxing)
 .debug_str     0x0000131d      0x4f3 ..\obj\stm32f10x_rcc.o
                                0x781 (size before relaxing)
 .debug_str     0x00001810       0xb4 ..\obj\startup_stm32f10x_cl.o
                                0x18a (size before relaxing)
 .debug_str     0x000018c4      0x1d6 ..\obj\stm32f10x_exti.o
                                0x368 (size before relaxing)
 .debug_str     0x00001a9a      0x419 ..\obj\stm32f10x_usart.o
                                0x6af (size before relaxing)
 .debug_str     0x00001eb3      0x54f ..\obj\ConfigPeriph.o
                                0xade (size before relaxing)
 .debug_str     0x00002402      0x12c ..\obj\misc.o
                                0x3dd (size before relaxing)

.comment        0x00000000       0x4d
 .comment       0x00000000       0x4d ..\obj\stm32f10x_tim.o
                                 0x4e (size before relaxing)
 .comment       0x0000004d       0x4e ..\obj\system_stm32f10x.o
 .comment       0x0000004d       0x4e ..\obj\stm32f10x_gpio.o
 .comment       0x0000004d       0x4e ..\obj\main.o
 .comment       0x0000004d       0x4e ..\obj\stm32f10x_rcc.o
 .comment       0x0000004d       0x4e ..\obj\startup_stm32f10x_cl.o
 .comment       0x0000004d       0x4e ..\obj\stm32f10x_exti.o
 .comment       0x0000004d       0x4e ..\obj\stm32f10x_usart.o
 .comment       0x0000004d       0x4e ..\obj\ConfigPeriph.o
 .comment       0x0000004d       0x4e ..\obj\misc.o

.ARM.attributes
                0x00000000       0x2d
 .ARM.attributes
                0x00000000       0x2d ..\obj\stm32f10x_tim.o
 .ARM.attributes
                0x0000002d       0x2d ..\obj\system_stm32f10x.o
 .ARM.attributes
                0x0000005a       0x2d ..\obj\stm32f10x_gpio.o
 .ARM.attributes
                0x00000087       0x2d ..\obj\main.o
 .ARM.attributes
                0x000000b4       0x2d ..\obj\stm32f10x_rcc.o
 .ARM.attributes
                0x000000e1       0x2d ..\obj\startup_stm32f10x_cl.o
 .ARM.attributes
                0x0000010e       0x2d ..\obj\stm32f10x_exti.o
 .ARM.attributes
                0x0000013b       0x2d ..\obj\stm32f10x_usart.o
 .ARM.attributes
                0x00000168       0x2d ..\obj\ConfigPeriph.o
 .ARM.attributes
                0x00000195       0x2d ..\obj\misc.o

.debug_frame    0x00000000     0x20bc
 .debug_frame   0x00000000      0xe2c ..\obj\stm32f10x_tim.o
 .debug_frame   0x00000e2c       0x98 ..\obj\system_stm32f10x.o
 .debug_frame   0x00000ec4      0x2d0 ..\obj\stm32f10x_gpio.o
 .debug_frame   0x00001194       0xec ..\obj\main.o
 .debug_frame   0x00001280      0x65c ..\obj\stm32f10x_rcc.o
 .debug_frame   0x000018dc       0x4c ..\obj\startup_stm32f10x_cl.o
 .debug_frame   0x00001928      0x148 ..\obj\stm32f10x_exti.o
 .debug_frame   0x00001a70      0x490 ..\obj\stm32f10x_usart.o
 .debug_frame   0x00001f00       0xe4 ..\obj\ConfigPeriph.o
 .debug_frame   0x00001fe4       0xd8 ..\obj\misc.o
