
bin/MKXX_1024.elf:     file format elf32-littlearm


Disassembly of section .text:

00000000 <BreakHere>:
       0:	be00      	bkpt	0x0000
       2:	bf00      	nop

00000004 <ExecFunction>:
       4:	b580      	push	{r7, lr}
       6:	b086      	sub	sp, #24
       8:	af00      	add	r7, sp, #0
       a:	60f8      	str	r0, [r7, #12]
       c:	60b9      	str	r1, [r7, #8]
       e:	607a      	str	r2, [r7, #4]
      10:	603b      	str	r3, [r7, #0]
      12:	68fb      	ldr	r3, [r7, #12]
      14:	68b8      	ldr	r0, [r7, #8]
      16:	6879      	ldr	r1, [r7, #4]
      18:	683a      	ldr	r2, [r7, #0]
      1a:	4798      	blx	r3
      1c:	6178      	str	r0, [r7, #20]
      1e:	6978      	ldr	r0, [r7, #20]
      20:	f7ff ffee 	bl	0 <BreakHere>
      24:	697b      	ldr	r3, [r7, #20]
      26:	4618      	mov	r0, r3
      28:	f107 0718 	add.w	r7, r7, #24
      2c:	46bd      	mov	sp, r7
      2e:	bd80      	pop	{r7, pc}

00000030 <DEFlashPartition>:
      30:	b580      	push	{r7, lr}
      32:	b088      	sub	sp, #32
      34:	af00      	add	r7, sp, #0
      36:	60f8      	str	r0, [r7, #12]
      38:	607b      	str	r3, [r7, #4]
      3a:	460b      	mov	r3, r1
      3c:	72fb      	strb	r3, [r7, #11]
      3e:	4613      	mov	r3, r2
      40:	72bb      	strb	r3, [r7, #10]
      42:	f04f 0300 	mov.w	r3, #0
      46:	61fb      	str	r3, [r7, #28]
      48:	f04f 0380 	mov.w	r3, #128	; 0x80
      4c:	753b      	strb	r3, [r7, #20]
      4e:	7afb      	ldrb	r3, [r7, #11]
      50:	763b      	strb	r3, [r7, #24]
      52:	7abb      	ldrb	r3, [r7, #10]
      54:	767b      	strb	r3, [r7, #25]
      56:	f107 0214 	add.w	r2, r7, #20
      5a:	687b      	ldr	r3, [r7, #4]
      5c:	68f8      	ldr	r0, [r7, #12]
      5e:	f04f 0105 	mov.w	r1, #5
      62:	4798      	blx	r3
      64:	61f8      	str	r0, [r7, #28]
      66:	69fb      	ldr	r3, [r7, #28]
      68:	4618      	mov	r0, r3
      6a:	f107 0720 	add.w	r7, r7, #32
      6e:	46bd      	mov	sp, r7
      70:	bd80      	pop	{r7, pc}
      72:	bf00      	nop

00000074 <DFlashGetProtection>:
      74:	b480      	push	{r7}
      76:	b085      	sub	sp, #20
      78:	af00      	add	r7, sp, #0
      7a:	6078      	str	r0, [r7, #4]
      7c:	6039      	str	r1, [r7, #0]
      7e:	f04f 0300 	mov.w	r3, #0
      82:	60fb      	str	r3, [r7, #12]
      84:	687b      	ldr	r3, [r7, #4]
      86:	691b      	ldr	r3, [r3, #16]
      88:	2b00      	cmp	r3, #0
      8a:	d103      	bne.n	94 <DFlashGetProtection+0x20>
      8c:	f44f 6380 	mov.w	r3, #1024	; 0x400
      90:	60fb      	str	r3, [r7, #12]
      92:	e007      	b.n	a4 <DFlashGetProtection+0x30>
      94:	687b      	ldr	r3, [r7, #4]
      96:	681b      	ldr	r3, [r3, #0]
      98:	f103 0317 	add.w	r3, r3, #23
      9c:	781b      	ldrb	r3, [r3, #0]
      9e:	b2da      	uxtb	r2, r3
      a0:	683b      	ldr	r3, [r7, #0]
      a2:	701a      	strb	r2, [r3, #0]
      a4:	68fb      	ldr	r3, [r7, #12]
      a6:	4618      	mov	r0, r3
      a8:	f107 0714 	add.w	r7, r7, #20
      ac:	46bd      	mov	sp, r7
      ae:	bc80      	pop	{r7}
      b0:	4770      	bx	lr
      b2:	bf00      	nop

000000b4 <DFlashSetProtection>:
      b4:	b480      	push	{r7}
      b6:	b085      	sub	sp, #20
      b8:	af00      	add	r7, sp, #0
      ba:	6078      	str	r0, [r7, #4]
      bc:	460b      	mov	r3, r1
      be:	70fb      	strb	r3, [r7, #3]
      c0:	f04f 0300 	mov.w	r3, #0
      c4:	60fb      	str	r3, [r7, #12]
      c6:	687b      	ldr	r3, [r7, #4]
      c8:	681b      	ldr	r3, [r3, #0]
      ca:	781b      	ldrb	r3, [r3, #0]
      cc:	b2db      	uxtb	r3, r3
      ce:	b2db      	uxtb	r3, r3
      d0:	b25b      	sxtb	r3, r3
      d2:	2b00      	cmp	r3, #0
      d4:	db03      	blt.n	de <DFlashSetProtection+0x2a>
      d6:	f04f 0320 	mov.w	r3, #32
      da:	60fb      	str	r3, [r7, #12]
      dc:	e037      	b.n	14e <DFlashSetProtection+0x9a>
      de:	687b      	ldr	r3, [r7, #4]
      e0:	691b      	ldr	r3, [r3, #16]
      e2:	2b00      	cmp	r3, #0
      e4:	d103      	bne.n	ee <DFlashSetProtection+0x3a>
      e6:	f44f 6380 	mov.w	r3, #1024	; 0x400
      ea:	60fb      	str	r3, [r7, #12]
      ec:	e02f      	b.n	14e <DFlashSetProtection+0x9a>
      ee:	687b      	ldr	r3, [r7, #4]
      f0:	681b      	ldr	r3, [r3, #0]
      f2:	f103 0317 	add.w	r3, r3, #23
      f6:	781b      	ldrb	r3, [r3, #0]
      f8:	72fb      	strb	r3, [r7, #11]
      fa:	687b      	ldr	r3, [r7, #4]
      fc:	681b      	ldr	r3, [r3, #0]
      fe:	f103 0317 	add.w	r3, r3, #23
     102:	f04f 02ff 	mov.w	r2, #255	; 0xff
     106:	701a      	strb	r2, [r3, #0]
     108:	687b      	ldr	r3, [r7, #4]
     10a:	681b      	ldr	r3, [r3, #0]
     10c:	f103 0317 	add.w	r3, r3, #23
     110:	781b      	ldrb	r3, [r3, #0]
     112:	b2db      	uxtb	r3, r3
     114:	2bff      	cmp	r3, #255	; 0xff
     116:	d014      	beq.n	142 <DFlashSetProtection+0x8e>
     118:	78fa      	ldrb	r2, [r7, #3]
     11a:	7afb      	ldrb	r3, [r7, #11]
     11c:	4053      	eors	r3, r2
     11e:	72bb      	strb	r3, [r7, #10]
     120:	7aba      	ldrb	r2, [r7, #10]
     122:	78fb      	ldrb	r3, [r7, #3]
     124:	4013      	ands	r3, r2
     126:	b2db      	uxtb	r3, r3
     128:	2b00      	cmp	r3, #0
     12a:	d106      	bne.n	13a <DFlashSetProtection+0x86>
     12c:	687b      	ldr	r3, [r7, #4]
     12e:	681b      	ldr	r3, [r3, #0]
     130:	f103 0317 	add.w	r3, r3, #23
     134:	78fa      	ldrb	r2, [r7, #3]
     136:	701a      	strb	r2, [r3, #0]
     138:	e009      	b.n	14e <DFlashSetProtection+0x9a>
     13a:	f04f 0320 	mov.w	r3, #32
     13e:	60fb      	str	r3, [r7, #12]
     140:	e005      	b.n	14e <DFlashSetProtection+0x9a>
     142:	687b      	ldr	r3, [r7, #4]
     144:	681b      	ldr	r3, [r3, #0]
     146:	f103 0317 	add.w	r3, r3, #23
     14a:	78fa      	ldrb	r2, [r7, #3]
     14c:	701a      	strb	r2, [r3, #0]
     14e:	68fb      	ldr	r3, [r7, #12]
     150:	4618      	mov	r0, r3
     152:	f107 0714 	add.w	r7, r7, #20
     156:	46bd      	mov	sp, r7
     158:	bc80      	pop	{r7}
     15a:	4770      	bx	lr

0000015c <EEEWrite>:
     15c:	b480      	push	{r7}
     15e:	b087      	sub	sp, #28
     160:	af00      	add	r7, sp, #0
     162:	60f8      	str	r0, [r7, #12]
     164:	60b9      	str	r1, [r7, #8]
     166:	607a      	str	r2, [r7, #4]
     168:	603b      	str	r3, [r7, #0]
     16a:	f04f 0300 	mov.w	r3, #0
     16e:	617b      	str	r3, [r7, #20]
     170:	68fb      	ldr	r3, [r7, #12]
     172:	681b      	ldr	r3, [r3, #0]
     174:	f103 0301 	add.w	r3, r3, #1
     178:	781b      	ldrb	r3, [r3, #0]
     17a:	b2db      	uxtb	r3, r3
     17c:	f003 0301 	and.w	r3, r3, #1
     180:	2b00      	cmp	r3, #0
     182:	d03f      	beq.n	204 <EEEWrite+0xa8>
     184:	68fb      	ldr	r3, [r7, #12]
     186:	695a      	ldr	r2, [r3, #20]
     188:	68bb      	ldr	r3, [r7, #8]
     18a:	429a      	cmp	r2, r3
     18c:	d809      	bhi.n	1a2 <EEEWrite+0x46>
     18e:	68ba      	ldr	r2, [r7, #8]
     190:	687b      	ldr	r3, [r7, #4]
     192:	18d2      	adds	r2, r2, r3
     194:	68fb      	ldr	r3, [r7, #12]
     196:	6959      	ldr	r1, [r3, #20]
     198:	68fb      	ldr	r3, [r7, #12]
     19a:	69db      	ldr	r3, [r3, #28]
     19c:	18cb      	adds	r3, r1, r3
     19e:	429a      	cmp	r2, r3
     1a0:	d92c      	bls.n	1fc <EEEWrite+0xa0>
     1a2:	f04f 0302 	mov.w	r3, #2
     1a6:	617b      	str	r3, [r7, #20]
     1a8:	e030      	b.n	20c <EEEWrite+0xb0>
     1aa:	bf00      	nop
     1ac:	68fb      	ldr	r3, [r7, #12]
     1ae:	681b      	ldr	r3, [r3, #0]
     1b0:	f103 0301 	add.w	r3, r3, #1
     1b4:	781b      	ldrb	r3, [r3, #0]
     1b6:	b2db      	uxtb	r3, r3
     1b8:	f003 0301 	and.w	r3, r3, #1
     1bc:	2b00      	cmp	r3, #0
     1be:	d0f5      	beq.n	1ac <EEEWrite+0x50>
     1c0:	68bb      	ldr	r3, [r7, #8]
     1c2:	683a      	ldr	r2, [r7, #0]
     1c4:	7812      	ldrb	r2, [r2, #0]
     1c6:	b2d2      	uxtb	r2, r2
     1c8:	701a      	strb	r2, [r3, #0]
     1ca:	68fb      	ldr	r3, [r7, #12]
     1cc:	681b      	ldr	r3, [r3, #0]
     1ce:	781b      	ldrb	r3, [r3, #0]
     1d0:	b2db      	uxtb	r3, r3
     1d2:	f003 0310 	and.w	r3, r3, #16
     1d6:	2b00      	cmp	r3, #0
     1d8:	d004      	beq.n	1e4 <EEEWrite+0x88>
     1da:	f04f 0308 	mov.w	r3, #8
     1de:	617b      	str	r3, [r7, #20]
     1e0:	bf00      	nop
     1e2:	e013      	b.n	20c <EEEWrite+0xb0>
     1e4:	68bb      	ldr	r3, [r7, #8]
     1e6:	f103 0301 	add.w	r3, r3, #1
     1ea:	60bb      	str	r3, [r7, #8]
     1ec:	687b      	ldr	r3, [r7, #4]
     1ee:	f103 33ff 	add.w	r3, r3, #4294967295
     1f2:	607b      	str	r3, [r7, #4]
     1f4:	683b      	ldr	r3, [r7, #0]
     1f6:	f103 0301 	add.w	r3, r3, #1
     1fa:	603b      	str	r3, [r7, #0]
     1fc:	687b      	ldr	r3, [r7, #4]
     1fe:	2b00      	cmp	r3, #0
     200:	d1d3      	bne.n	1aa <EEEWrite+0x4e>
     202:	e003      	b.n	20c <EEEWrite+0xb0>
     204:	f44f 7300 	mov.w	r3, #512	; 0x200
     208:	617b      	str	r3, [r7, #20]
     20a:	bf00      	nop
     20c:	697b      	ldr	r3, [r7, #20]
     20e:	4618      	mov	r0, r3
     210:	f107 071c 	add.w	r7, r7, #28
     214:	46bd      	mov	sp, r7
     216:	bc80      	pop	{r7}
     218:	4770      	bx	lr
     21a:	bf00      	nop

0000021c <EERAMGetProtection>:
     21c:	b480      	push	{r7}
     21e:	b085      	sub	sp, #20
     220:	af00      	add	r7, sp, #0
     222:	6078      	str	r0, [r7, #4]
     224:	6039      	str	r1, [r7, #0]
     226:	f04f 0300 	mov.w	r3, #0
     22a:	60fb      	str	r3, [r7, #12]
     22c:	687b      	ldr	r3, [r7, #4]
     22e:	681b      	ldr	r3, [r3, #0]
     230:	f103 0301 	add.w	r3, r3, #1
     234:	781b      	ldrb	r3, [r3, #0]
     236:	b2db      	uxtb	r3, r3
     238:	f003 0301 	and.w	r3, r3, #1
     23c:	2b00      	cmp	r3, #0
     23e:	d008      	beq.n	252 <EERAMGetProtection+0x36>
     240:	687b      	ldr	r3, [r7, #4]
     242:	681b      	ldr	r3, [r3, #0]
     244:	f103 0316 	add.w	r3, r3, #22
     248:	781b      	ldrb	r3, [r3, #0]
     24a:	b2da      	uxtb	r2, r3
     24c:	683b      	ldr	r3, [r7, #0]
     24e:	701a      	strb	r2, [r3, #0]
     250:	e003      	b.n	25a <EERAMGetProtection+0x3e>
     252:	f44f 7300 	mov.w	r3, #512	; 0x200
     256:	60fb      	str	r3, [r7, #12]
     258:	bf00      	nop
     25a:	68fb      	ldr	r3, [r7, #12]
     25c:	4618      	mov	r0, r3
     25e:	f107 0714 	add.w	r7, r7, #20
     262:	46bd      	mov	sp, r7
     264:	bc80      	pop	{r7}
     266:	4770      	bx	lr

00000268 <EERAMSetProtection>:
     268:	b480      	push	{r7}
     26a:	b085      	sub	sp, #20
     26c:	af00      	add	r7, sp, #0
     26e:	6078      	str	r0, [r7, #4]
     270:	460b      	mov	r3, r1
     272:	70fb      	strb	r3, [r7, #3]
     274:	f04f 0300 	mov.w	r3, #0
     278:	60fb      	str	r3, [r7, #12]
     27a:	687b      	ldr	r3, [r7, #4]
     27c:	681b      	ldr	r3, [r3, #0]
     27e:	781b      	ldrb	r3, [r3, #0]
     280:	b2db      	uxtb	r3, r3
     282:	b2db      	uxtb	r3, r3
     284:	b25b      	sxtb	r3, r3
     286:	2b00      	cmp	r3, #0
     288:	db03      	blt.n	292 <EERAMSetProtection+0x2a>
     28a:	f04f 0320 	mov.w	r3, #32
     28e:	60fb      	str	r3, [r7, #12]
     290:	e03d      	b.n	30e <EERAMSetProtection+0xa6>
     292:	687b      	ldr	r3, [r7, #4]
     294:	681b      	ldr	r3, [r3, #0]
     296:	f103 0301 	add.w	r3, r3, #1
     29a:	781b      	ldrb	r3, [r3, #0]
     29c:	b2db      	uxtb	r3, r3
     29e:	f003 0301 	and.w	r3, r3, #1
     2a2:	2b00      	cmp	r3, #0
     2a4:	d103      	bne.n	2ae <EERAMSetProtection+0x46>
     2a6:	f44f 7300 	mov.w	r3, #512	; 0x200
     2aa:	60fb      	str	r3, [r7, #12]
     2ac:	e02f      	b.n	30e <EERAMSetProtection+0xa6>
     2ae:	687b      	ldr	r3, [r7, #4]
     2b0:	681b      	ldr	r3, [r3, #0]
     2b2:	f103 0316 	add.w	r3, r3, #22
     2b6:	781b      	ldrb	r3, [r3, #0]
     2b8:	72fb      	strb	r3, [r7, #11]
     2ba:	687b      	ldr	r3, [r7, #4]
     2bc:	681b      	ldr	r3, [r3, #0]
     2be:	f103 0316 	add.w	r3, r3, #22
     2c2:	f04f 02ff 	mov.w	r2, #255	; 0xff
     2c6:	701a      	strb	r2, [r3, #0]
     2c8:	687b      	ldr	r3, [r7, #4]
     2ca:	681b      	ldr	r3, [r3, #0]
     2cc:	f103 0316 	add.w	r3, r3, #22
     2d0:	781b      	ldrb	r3, [r3, #0]
     2d2:	b2db      	uxtb	r3, r3
     2d4:	2bff      	cmp	r3, #255	; 0xff
     2d6:	d014      	beq.n	302 <EERAMSetProtection+0x9a>
     2d8:	78fa      	ldrb	r2, [r7, #3]
     2da:	7afb      	ldrb	r3, [r7, #11]
     2dc:	4053      	eors	r3, r2
     2de:	72bb      	strb	r3, [r7, #10]
     2e0:	7aba      	ldrb	r2, [r7, #10]
     2e2:	78fb      	ldrb	r3, [r7, #3]
     2e4:	4013      	ands	r3, r2
     2e6:	b2db      	uxtb	r3, r3
     2e8:	2b00      	cmp	r3, #0
     2ea:	d106      	bne.n	2fa <EERAMSetProtection+0x92>
     2ec:	687b      	ldr	r3, [r7, #4]
     2ee:	681b      	ldr	r3, [r3, #0]
     2f0:	f103 0316 	add.w	r3, r3, #22
     2f4:	78fa      	ldrb	r2, [r7, #3]
     2f6:	701a      	strb	r2, [r3, #0]
     2f8:	e009      	b.n	30e <EERAMSetProtection+0xa6>
     2fa:	f04f 0320 	mov.w	r3, #32
     2fe:	60fb      	str	r3, [r7, #12]
     300:	e005      	b.n	30e <EERAMSetProtection+0xa6>
     302:	687b      	ldr	r3, [r7, #4]
     304:	681b      	ldr	r3, [r3, #0]
     306:	f103 0316 	add.w	r3, r3, #22
     30a:	78fa      	ldrb	r2, [r7, #3]
     30c:	701a      	strb	r2, [r3, #0]
     30e:	68fb      	ldr	r3, [r7, #12]
     310:	4618      	mov	r0, r3
     312:	f107 0714 	add.w	r7, r7, #20
     316:	46bd      	mov	sp, r7
     318:	bc80      	pop	{r7}
     31a:	4770      	bx	lr

0000031c <FlashProgramPhrase>:
     31c:	b580      	push	{r7, lr}
     31e:	b08a      	sub	sp, #40	; 0x28
     320:	af00      	add	r7, sp, #0
     322:	60f8      	str	r0, [r7, #12]
     324:	60b9      	str	r1, [r7, #8]
     326:	607a      	str	r2, [r7, #4]
     328:	603b      	str	r3, [r7, #0]
     32a:	f04f 0300 	mov.w	r3, #0
     32e:	627b      	str	r3, [r7, #36]	; 0x24
     330:	68ba      	ldr	r2, [r7, #8]
     332:	687b      	ldr	r3, [r7, #4]
     334:	18d3      	adds	r3, r2, r3
     336:	623b      	str	r3, [r7, #32]
     338:	68bb      	ldr	r3, [r7, #8]
     33a:	f003 0307 	and.w	r3, r3, #7
     33e:	2b00      	cmp	r3, #0
     340:	d003      	beq.n	34a <FlashProgramPhrase+0x2e>
     342:	f44f 7380 	mov.w	r3, #256	; 0x100
     346:	627b      	str	r3, [r7, #36]	; 0x24
     348:	e091      	b.n	46e <FlashProgramPhrase+0x152>
     34a:	687b      	ldr	r3, [r7, #4]
     34c:	f003 0307 	and.w	r3, r3, #7
     350:	2b00      	cmp	r3, #0
     352:	d003      	beq.n	35c <FlashProgramPhrase+0x40>
     354:	f04f 0301 	mov.w	r3, #1
     358:	627b      	str	r3, [r7, #36]	; 0x24
     35a:	e088      	b.n	46e <FlashProgramPhrase+0x152>
     35c:	68fb      	ldr	r3, [r7, #12]
     35e:	685a      	ldr	r2, [r3, #4]
     360:	68bb      	ldr	r3, [r7, #8]
     362:	429a      	cmp	r2, r3
     364:	d807      	bhi.n	376 <FlashProgramPhrase+0x5a>
     366:	68fb      	ldr	r3, [r7, #12]
     368:	685a      	ldr	r2, [r3, #4]
     36a:	68fb      	ldr	r3, [r7, #12]
     36c:	689b      	ldr	r3, [r3, #8]
     36e:	18d2      	adds	r2, r2, r3
     370:	6a3b      	ldr	r3, [r7, #32]
     372:	429a      	cmp	r2, r3
     374:	d218      	bcs.n	3a8 <FlashProgramPhrase+0x8c>
     376:	68fb      	ldr	r3, [r7, #12]
     378:	68da      	ldr	r2, [r3, #12]
     37a:	68bb      	ldr	r3, [r7, #8]
     37c:	429a      	cmp	r2, r3
     37e:	d807      	bhi.n	390 <FlashProgramPhrase+0x74>
     380:	68fb      	ldr	r3, [r7, #12]
     382:	68da      	ldr	r2, [r3, #12]
     384:	68fb      	ldr	r3, [r7, #12]
     386:	691b      	ldr	r3, [r3, #16]
     388:	18d2      	adds	r2, r2, r3
     38a:	6a3b      	ldr	r3, [r7, #32]
     38c:	429a      	cmp	r2, r3
     38e:	d203      	bcs.n	398 <FlashProgramPhrase+0x7c>
     390:	f04f 0302 	mov.w	r3, #2
     394:	627b      	str	r3, [r7, #36]	; 0x24
     396:	e06a      	b.n	46e <FlashProgramPhrase+0x152>
     398:	68fb      	ldr	r3, [r7, #12]
     39a:	68db      	ldr	r3, [r3, #12]
     39c:	68ba      	ldr	r2, [r7, #8]
     39e:	1ad3      	subs	r3, r2, r3
     3a0:	f503 0300 	add.w	r3, r3, #8388608	; 0x800000
     3a4:	60bb      	str	r3, [r7, #8]
     3a6:	e004      	b.n	3b2 <FlashProgramPhrase+0x96>
     3a8:	68fb      	ldr	r3, [r7, #12]
     3aa:	685b      	ldr	r3, [r3, #4]
     3ac:	68ba      	ldr	r2, [r7, #8]
     3ae:	1ad3      	subs	r3, r2, r3
     3b0:	60bb      	str	r3, [r7, #8]
     3b2:	6a7b      	ldr	r3, [r7, #36]	; 0x24
     3b4:	2b00      	cmp	r3, #0
     3b6:	d15a      	bne.n	46e <FlashProgramPhrase+0x152>
     3b8:	e054      	b.n	464 <FlashProgramPhrase+0x148>
     3ba:	f04f 0307 	mov.w	r3, #7
     3be:	753b      	strb	r3, [r7, #20]
     3c0:	68bb      	ldr	r3, [r7, #8]
     3c2:	ea4f 4313 	mov.w	r3, r3, lsr #16
     3c6:	b2db      	uxtb	r3, r3
     3c8:	757b      	strb	r3, [r7, #21]
     3ca:	68bb      	ldr	r3, [r7, #8]
     3cc:	ea4f 2313 	mov.w	r3, r3, lsr #8
     3d0:	b2db      	uxtb	r3, r3
     3d2:	75bb      	strb	r3, [r7, #22]
     3d4:	68bb      	ldr	r3, [r7, #8]
     3d6:	b2db      	uxtb	r3, r3
     3d8:	75fb      	strb	r3, [r7, #23]
     3da:	683b      	ldr	r3, [r7, #0]
     3dc:	f103 0303 	add.w	r3, r3, #3
     3e0:	781b      	ldrb	r3, [r3, #0]
     3e2:	b2db      	uxtb	r3, r3
     3e4:	763b      	strb	r3, [r7, #24]
     3e6:	683b      	ldr	r3, [r7, #0]
     3e8:	f103 0302 	add.w	r3, r3, #2
     3ec:	781b      	ldrb	r3, [r3, #0]
     3ee:	b2db      	uxtb	r3, r3
     3f0:	767b      	strb	r3, [r7, #25]
     3f2:	683b      	ldr	r3, [r7, #0]
     3f4:	f103 0301 	add.w	r3, r3, #1
     3f8:	781b      	ldrb	r3, [r3, #0]
     3fa:	b2db      	uxtb	r3, r3
     3fc:	76bb      	strb	r3, [r7, #26]
     3fe:	683b      	ldr	r3, [r7, #0]
     400:	781b      	ldrb	r3, [r3, #0]
     402:	b2db      	uxtb	r3, r3
     404:	76fb      	strb	r3, [r7, #27]
     406:	683b      	ldr	r3, [r7, #0]
     408:	f103 0307 	add.w	r3, r3, #7
     40c:	781b      	ldrb	r3, [r3, #0]
     40e:	b2db      	uxtb	r3, r3
     410:	773b      	strb	r3, [r7, #28]
     412:	683b      	ldr	r3, [r7, #0]
     414:	f103 0306 	add.w	r3, r3, #6
     418:	781b      	ldrb	r3, [r3, #0]
     41a:	b2db      	uxtb	r3, r3
     41c:	777b      	strb	r3, [r7, #29]
     41e:	683b      	ldr	r3, [r7, #0]
     420:	f103 0305 	add.w	r3, r3, #5
     424:	781b      	ldrb	r3, [r3, #0]
     426:	b2db      	uxtb	r3, r3
     428:	77bb      	strb	r3, [r7, #30]
     42a:	683b      	ldr	r3, [r7, #0]
     42c:	f103 0304 	add.w	r3, r3, #4
     430:	781b      	ldrb	r3, [r3, #0]
     432:	b2db      	uxtb	r3, r3
     434:	77fb      	strb	r3, [r7, #31]
     436:	f107 0214 	add.w	r2, r7, #20
     43a:	6b3b      	ldr	r3, [r7, #48]	; 0x30
     43c:	68f8      	ldr	r0, [r7, #12]
     43e:	f04f 010b 	mov.w	r1, #11
     442:	4798      	blx	r3
     444:	6278      	str	r0, [r7, #36]	; 0x24
     446:	6a7b      	ldr	r3, [r7, #36]	; 0x24
     448:	2b00      	cmp	r3, #0
     44a:	d10f      	bne.n	46c <FlashProgramPhrase+0x150>
     44c:	68bb      	ldr	r3, [r7, #8]
     44e:	f103 0308 	add.w	r3, r3, #8
     452:	60bb      	str	r3, [r7, #8]
     454:	687b      	ldr	r3, [r7, #4]
     456:	f1a3 0308 	sub.w	r3, r3, #8
     45a:	607b      	str	r3, [r7, #4]
     45c:	683b      	ldr	r3, [r7, #0]
     45e:	f103 0308 	add.w	r3, r3, #8
     462:	603b      	str	r3, [r7, #0]
     464:	687b      	ldr	r3, [r7, #4]
     466:	2b00      	cmp	r3, #0
     468:	d1a7      	bne.n	3ba <FlashProgramPhrase+0x9e>
     46a:	e000      	b.n	46e <FlashProgramPhrase+0x152>
     46c:	bf00      	nop
     46e:	6a7b      	ldr	r3, [r7, #36]	; 0x24
     470:	4618      	mov	r0, r3
     472:	f107 0728 	add.w	r7, r7, #40	; 0x28
     476:	46bd      	mov	sp, r7
     478:	bd80      	pop	{r7, pc}
     47a:	bf00      	nop

0000047c <FlashInit>:
     47c:	b580      	push	{r7, lr}
     47e:	b084      	sub	sp, #16
     480:	af00      	add	r7, sp, #0
     482:	60f8      	str	r0, [r7, #12]
     484:	60b9      	str	r1, [r7, #8]
     486:	607a      	str	r2, [r7, #4]
     488:	4b2e      	ldr	r3, [pc, #184]	; (544 <FlashInit+0xc8>)
     48a:	f859 3003 	ldr.w	r3, [r9, r3]
     48e:	68fa      	ldr	r2, [r7, #12]
     490:	601a      	str	r2, [r3, #0]
     492:	4b29      	ldr	r3, [pc, #164]	; (538 <FlashInit+0xbc>)
     494:	f24c 5220 	movw	r2, #50464	; 0xc520
     498:	801a      	strh	r2, [r3, #0]
     49a:	4b27      	ldr	r3, [pc, #156]	; (538 <FlashInit+0xbc>)
     49c:	f64d 1228 	movw	r2, #55592	; 0xd928
     4a0:	801a      	strh	r2, [r3, #0]
     4a2:	4b26      	ldr	r3, [pc, #152]	; (53c <FlashInit+0xc0>)
     4a4:	4a25      	ldr	r2, [pc, #148]	; (53c <FlashInit+0xc0>)
     4a6:	8812      	ldrh	r2, [r2, #0]
     4a8:	b292      	uxth	r2, r2
     4aa:	f022 0201 	bic.w	r2, r2, #1
     4ae:	b292      	uxth	r2, r2
     4b0:	801a      	strh	r2, [r3, #0]
     4b2:	4b25      	ldr	r3, [pc, #148]	; (548 <FlashInit+0xcc>)
     4b4:	f859 3003 	ldr.w	r3, [r9, r3]
     4b8:	4a21      	ldr	r2, [pc, #132]	; (540 <FlashInit+0xc4>)
     4ba:	601a      	str	r2, [r3, #0]
     4bc:	4b22      	ldr	r3, [pc, #136]	; (548 <FlashInit+0xcc>)
     4be:	f859 3003 	ldr.w	r3, [r9, r3]
     4c2:	f04f 0200 	mov.w	r2, #0
     4c6:	605a      	str	r2, [r3, #4]
     4c8:	4b1f      	ldr	r3, [pc, #124]	; (548 <FlashInit+0xcc>)
     4ca:	f859 3003 	ldr.w	r3, [r9, r3]
     4ce:	f44f 1280 	mov.w	r2, #1048576	; 0x100000
     4d2:	609a      	str	r2, [r3, #8]
     4d4:	4b1c      	ldr	r3, [pc, #112]	; (548 <FlashInit+0xcc>)
     4d6:	f859 3003 	ldr.w	r3, [r9, r3]
     4da:	f04f 5280 	mov.w	r2, #268435456	; 0x10000000
     4de:	60da      	str	r2, [r3, #12]
     4e0:	4b19      	ldr	r3, [pc, #100]	; (548 <FlashInit+0xcc>)
     4e2:	f859 3003 	ldr.w	r3, [r9, r3]
     4e6:	f04f 52a0 	mov.w	r2, #335544320	; 0x14000000
     4ea:	615a      	str	r2, [r3, #20]
     4ec:	4b16      	ldr	r3, [pc, #88]	; (548 <FlashInit+0xcc>)
     4ee:	f859 3003 	ldr.w	r3, [r9, r3]
     4f2:	f44f 4280 	mov.w	r2, #16384	; 0x4000
     4f6:	619a      	str	r2, [r3, #24]
     4f8:	4b13      	ldr	r3, [pc, #76]	; (548 <FlashInit+0xcc>)
     4fa:	f859 3003 	ldr.w	r3, [r9, r3]
     4fe:	f04f 0200 	mov.w	r2, #0
     502:	f883 2020 	strb.w	r2, [r3, #32]
     506:	4b10      	ldr	r3, [pc, #64]	; (548 <FlashInit+0xcc>)
     508:	f859 3003 	ldr.w	r3, [r9, r3]
     50c:	f04f 32ff 	mov.w	r2, #4294967295
     510:	625a      	str	r2, [r3, #36]	; 0x24
     512:	4b0d      	ldr	r3, [pc, #52]	; (548 <FlashInit+0xcc>)
     514:	f859 3003 	ldr.w	r3, [r9, r3]
     518:	4618      	mov	r0, r3
     51a:	f000 fb3f 	bl	b9c <FlashInit0>
     51e:	4603      	mov	r3, r0
     520:	2b00      	cmp	r3, #0
     522:	d002      	beq.n	52a <FlashInit+0xae>
     524:	f04f 0301 	mov.w	r3, #1
     528:	e001      	b.n	52e <FlashInit+0xb2>
     52a:	f04f 0300 	mov.w	r3, #0
     52e:	4618      	mov	r0, r3
     530:	f107 0710 	add.w	r7, r7, #16
     534:	46bd      	mov	sp, r7
     536:	bd80      	pop	{r7, pc}
     538:	4005200e 	andmi	r2, r5, lr
     53c:	40052000 	andmi	r2, r5, r0
     540:	40020000 	andmi	r0, r2, r0
     544:	00000008 	andeq	r0, r0, r8
     548:	00000000 	andeq	r0, r0, r0

0000054c <FlashUnInit>:
     54c:	b480      	push	{r7}
     54e:	b083      	sub	sp, #12
     550:	af00      	add	r7, sp, #0
     552:	6078      	str	r0, [r7, #4]
     554:	f04f 0300 	mov.w	r3, #0
     558:	4618      	mov	r0, r3
     55a:	f107 070c 	add.w	r7, r7, #12
     55e:	46bd      	mov	sp, r7
     560:	bc80      	pop	{r7}
     562:	4770      	bx	lr

00000564 <FlashEraseSector>:
     564:	b580      	push	{r7, lr}
     566:	b082      	sub	sp, #8
     568:	af00      	add	r7, sp, #0
     56a:	6078      	str	r0, [r7, #4]
     56c:	4b0c      	ldr	r3, [pc, #48]	; (5a0 <FlashEraseSector+0x3c>)
     56e:	f859 3003 	ldr.w	r3, [r9, r3]
     572:	4618      	mov	r0, r3
     574:	6879      	ldr	r1, [r7, #4]
     576:	f44f 6200 	mov.w	r2, #2048	; 0x800
     57a:	4b0a      	ldr	r3, [pc, #40]	; (5a4 <FlashEraseSector+0x40>)
     57c:	f859 3003 	ldr.w	r3, [r9, r3]
     580:	f000 fa5a 	bl	a38 <FlashEraseSector0>
     584:	4603      	mov	r3, r0
     586:	2b00      	cmp	r3, #0
     588:	d002      	beq.n	590 <FlashEraseSector+0x2c>
     58a:	f04f 0301 	mov.w	r3, #1
     58e:	e001      	b.n	594 <FlashEraseSector+0x30>
     590:	f04f 0300 	mov.w	r3, #0
     594:	4618      	mov	r0, r3
     596:	f107 0708 	add.w	r7, r7, #8
     59a:	46bd      	mov	sp, r7
     59c:	bd80      	pop	{r7, pc}
     59e:	bf00      	nop
     5a0:	00000000 	andeq	r0, r0, r0
     5a4:	00000004 	andeq	r0, r0, r4

000005a8 <FlashEraseChip>:
     5a8:	b580      	push	{r7, lr}
     5aa:	b082      	sub	sp, #8
     5ac:	af02      	add	r7, sp, #8
     5ae:	4b15      	ldr	r3, [pc, #84]	; (604 <FlashEraseChip+0x5c>)
     5b0:	f859 3003 	ldr.w	r3, [r9, r3]
     5b4:	4618      	mov	r0, r3
     5b6:	4b14      	ldr	r3, [pc, #80]	; (608 <FlashEraseChip+0x60>)
     5b8:	f859 3003 	ldr.w	r3, [r9, r3]
     5bc:	4619      	mov	r1, r3
     5be:	f000 f9b1 	bl	924 <FlashEraseAllBlock>
     5c2:	4603      	mov	r3, r0
     5c4:	2b00      	cmp	r3, #0
     5c6:	d002      	beq.n	5ce <FlashEraseChip+0x26>
     5c8:	f04f 0301 	mov.w	r3, #1
     5cc:	e017      	b.n	5fe <FlashEraseChip+0x56>
     5ce:	4b0f      	ldr	r3, [pc, #60]	; (60c <FlashEraseChip+0x64>)
     5d0:	447b      	add	r3, pc
     5d2:	4a0d      	ldr	r2, [pc, #52]	; (608 <FlashEraseChip+0x60>)
     5d4:	f859 2002 	ldr.w	r2, [r9, r2]
     5d8:	9200      	str	r2, [sp, #0]
     5da:	4a0a      	ldr	r2, [pc, #40]	; (604 <FlashEraseChip+0x5c>)
     5dc:	f859 2002 	ldr.w	r2, [r9, r2]
     5e0:	4610      	mov	r0, r2
     5e2:	f44f 6181 	mov.w	r1, #1032	; 0x408
     5e6:	f04f 0208 	mov.w	r2, #8
     5ea:	f7ff fe97 	bl	31c <FlashProgramPhrase>
     5ee:	4603      	mov	r3, r0
     5f0:	2b00      	cmp	r3, #0
     5f2:	d002      	beq.n	5fa <FlashEraseChip+0x52>
     5f4:	f04f 0301 	mov.w	r3, #1
     5f8:	e001      	b.n	5fe <FlashEraseChip+0x56>
     5fa:	f04f 0300 	mov.w	r3, #0
     5fe:	4618      	mov	r0, r3
     600:	46bd      	mov	sp, r7
     602:	bd80      	pop	{r7, pc}
     604:	00000000 	andeq	r0, r0, r0
     608:	00000004 	andeq	r0, r0, r4
     60c:	000017a4 	andeq	r1, r0, r4, lsr #15

00000610 <FlashProgramPage>:
     610:	b580      	push	{r7, lr}
     612:	b086      	sub	sp, #24
     614:	af02      	add	r7, sp, #8
     616:	60f8      	str	r0, [r7, #12]
     618:	60b9      	str	r1, [r7, #8]
     61a:	607a      	str	r2, [r7, #4]
     61c:	68bb      	ldr	r3, [r7, #8]
     61e:	f103 0307 	add.w	r3, r3, #7
     622:	f023 0307 	bic.w	r3, r3, #7
     626:	60bb      	str	r3, [r7, #8]
     628:	687b      	ldr	r3, [r7, #4]
     62a:	4a0c      	ldr	r2, [pc, #48]	; (65c <FlashProgramPage+0x4c>)
     62c:	f859 2002 	ldr.w	r2, [r9, r2]
     630:	9200      	str	r2, [sp, #0]
     632:	4a0b      	ldr	r2, [pc, #44]	; (660 <FlashProgramPage+0x50>)
     634:	f859 2002 	ldr.w	r2, [r9, r2]
     638:	4610      	mov	r0, r2
     63a:	68f9      	ldr	r1, [r7, #12]
     63c:	68ba      	ldr	r2, [r7, #8]
     63e:	f7ff fe6d 	bl	31c <FlashProgramPhrase>
     642:	4603      	mov	r3, r0
     644:	2b00      	cmp	r3, #0
     646:	d002      	beq.n	64e <FlashProgramPage+0x3e>
     648:	f04f 0301 	mov.w	r3, #1
     64c:	e001      	b.n	652 <FlashProgramPage+0x42>
     64e:	f04f 0300 	mov.w	r3, #0
     652:	4618      	mov	r0, r3
     654:	f107 0710 	add.w	r7, r7, #16
     658:	46bd      	mov	sp, r7
     65a:	bd80      	pop	{r7, pc}
     65c:	00000004 	andeq	r0, r0, r4
     660:	00000000 	andeq	r0, r0, r0

00000664 <FlashCheckSum>:
     664:	b580      	push	{r7, lr}
     666:	b088      	sub	sp, #32
     668:	af00      	add	r7, sp, #0
     66a:	60f8      	str	r0, [r7, #12]
     66c:	60b9      	str	r1, [r7, #8]
     66e:	607a      	str	r2, [r7, #4]
     670:	603b      	str	r3, [r7, #0]
     672:	f04f 0300 	mov.w	r3, #0
     676:	61fb      	str	r3, [r7, #28]
     678:	f04f 0300 	mov.w	r3, #0
     67c:	61bb      	str	r3, [r7, #24]
     67e:	68ba      	ldr	r2, [r7, #8]
     680:	687b      	ldr	r3, [r7, #4]
     682:	18d3      	adds	r3, r2, r3
     684:	617b      	str	r3, [r7, #20]
     686:	68fb      	ldr	r3, [r7, #12]
     688:	685a      	ldr	r2, [r3, #4]
     68a:	68bb      	ldr	r3, [r7, #8]
     68c:	429a      	cmp	r2, r3
     68e:	d807      	bhi.n	6a0 <FlashCheckSum+0x3c>
     690:	68fb      	ldr	r3, [r7, #12]
     692:	685a      	ldr	r2, [r3, #4]
     694:	68fb      	ldr	r3, [r7, #12]
     696:	689b      	ldr	r3, [r3, #8]
     698:	18d2      	adds	r2, r2, r3
     69a:	697b      	ldr	r3, [r7, #20]
     69c:	429a      	cmp	r2, r3
     69e:	d210      	bcs.n	6c2 <FlashCheckSum+0x5e>
     6a0:	68fb      	ldr	r3, [r7, #12]
     6a2:	68da      	ldr	r2, [r3, #12]
     6a4:	68bb      	ldr	r3, [r7, #8]
     6a6:	429a      	cmp	r2, r3
     6a8:	d807      	bhi.n	6ba <FlashCheckSum+0x56>
     6aa:	68fb      	ldr	r3, [r7, #12]
     6ac:	68da      	ldr	r2, [r3, #12]
     6ae:	68fb      	ldr	r3, [r7, #12]
     6b0:	691b      	ldr	r3, [r3, #16]
     6b2:	18d2      	adds	r2, r2, r3
     6b4:	697b      	ldr	r3, [r7, #20]
     6b6:	429a      	cmp	r2, r3
     6b8:	d203      	bcs.n	6c2 <FlashCheckSum+0x5e>
     6ba:	f04f 0302 	mov.w	r3, #2
     6be:	61bb      	str	r3, [r7, #24]
     6c0:	e02f      	b.n	722 <FlashCheckSum+0xbe>
     6c2:	69bb      	ldr	r3, [r7, #24]
     6c4:	2b00      	cmp	r3, #0
     6c6:	d12c      	bne.n	722 <FlashCheckSum+0xbe>
     6c8:	683b      	ldr	r3, [r7, #0]
     6ca:	f04f 0200 	mov.w	r2, #0
     6ce:	601a      	str	r2, [r3, #0]
     6d0:	e023      	b.n	71a <FlashCheckSum+0xb6>
     6d2:	68bb      	ldr	r3, [r7, #8]
     6d4:	781b      	ldrb	r3, [r3, #0]
     6d6:	b2db      	uxtb	r3, r3
     6d8:	613b      	str	r3, [r7, #16]
     6da:	683b      	ldr	r3, [r7, #0]
     6dc:	681a      	ldr	r2, [r3, #0]
     6de:	693b      	ldr	r3, [r7, #16]
     6e0:	18d2      	adds	r2, r2, r3
     6e2:	683b      	ldr	r3, [r7, #0]
     6e4:	601a      	str	r2, [r3, #0]
     6e6:	68bb      	ldr	r3, [r7, #8]
     6e8:	f103 0301 	add.w	r3, r3, #1
     6ec:	60bb      	str	r3, [r7, #8]
     6ee:	687b      	ldr	r3, [r7, #4]
     6f0:	f103 33ff 	add.w	r3, r3, #4294967295
     6f4:	607b      	str	r3, [r7, #4]
     6f6:	69fb      	ldr	r3, [r7, #28]
     6f8:	f103 0301 	add.w	r3, r3, #1
     6fc:	61fb      	str	r3, [r7, #28]
     6fe:	69fb      	ldr	r3, [r7, #28]
     700:	2b00      	cmp	r3, #0
     702:	d00a      	beq.n	71a <FlashCheckSum+0xb6>
     704:	68fb      	ldr	r3, [r7, #12]
     706:	6a5b      	ldr	r3, [r3, #36]	; 0x24
     708:	f1b3 3fff 	cmp.w	r3, #4294967295
     70c:	d002      	beq.n	714 <FlashCheckSum+0xb0>
     70e:	68fb      	ldr	r3, [r7, #12]
     710:	6a5b      	ldr	r3, [r3, #36]	; 0x24
     712:	4798      	blx	r3
     714:	f04f 0300 	mov.w	r3, #0
     718:	61fb      	str	r3, [r7, #28]
     71a:	68ba      	ldr	r2, [r7, #8]
     71c:	697b      	ldr	r3, [r7, #20]
     71e:	429a      	cmp	r2, r3
     720:	d3d7      	bcc.n	6d2 <FlashCheckSum+0x6e>
     722:	69bb      	ldr	r3, [r7, #24]
     724:	4618      	mov	r0, r3
     726:	f107 0720 	add.w	r7, r7, #32
     72a:	46bd      	mov	sp, r7
     72c:	bd80      	pop	{r7, pc}
     72e:	bf00      	nop

00000730 <FlashCommandSequence>:
     730:	b580      	push	{r7, lr}
     732:	b088      	sub	sp, #32
     734:	af00      	add	r7, sp, #0
     736:	60f8      	str	r0, [r7, #12]
     738:	460b      	mov	r3, r1
     73a:	607a      	str	r2, [r7, #4]
     73c:	72fb      	strb	r3, [r7, #11]
     73e:	f04f 0300 	mov.w	r3, #0
     742:	61bb      	str	r3, [r7, #24]
     744:	bf00      	nop
     746:	68fb      	ldr	r3, [r7, #12]
     748:	681b      	ldr	r3, [r3, #0]
     74a:	781b      	ldrb	r3, [r3, #0]
     74c:	b2db      	uxtb	r3, r3
     74e:	b2db      	uxtb	r3, r3
     750:	b25b      	sxtb	r3, r3
     752:	2b00      	cmp	r3, #0
     754:	daf7      	bge.n	746 <FlashCommandSequence+0x16>
     756:	68fb      	ldr	r3, [r7, #12]
     758:	681b      	ldr	r3, [r3, #0]
     75a:	f04f 0270 	mov.w	r2, #112	; 0x70
     75e:	701a      	strb	r2, [r3, #0]
     760:	f04f 0300 	mov.w	r3, #0
     764:	77fb      	strb	r3, [r7, #31]
     766:	e09e      	b.n	8a6 <FlashCommandSequence+0x176>
     768:	7ffb      	ldrb	r3, [r7, #31]
     76a:	2b0b      	cmp	r3, #11
     76c:	f200 8096 	bhi.w	89c <FlashCommandSequence+0x16c>
     770:	a102      	add	r1, pc, #8	; (adr r1, 77c <FlashCommandSequence+0x4c>)
     772:	f851 2023 	ldr.w	r2, [r1, r3, lsl #2]
     776:	4411      	add	r1, r2
     778:	4708      	bx	r1
     77a:	bf00      	nop
     77c:	00000031 	andeq	r0, r0, r1, lsr r0
     780:	00000045 	andeq	r0, r0, r5, asr #32
     784:	00000059 	andeq	r0, r0, r9, asr r0
     788:	0000006d 	andeq	r0, r0, sp, rrx
     78c:	00000081 	andeq	r0, r0, r1, lsl #1
     790:	00000095 	muleq	r0, r5, r0
     794:	000000a9 	andeq	r0, r0, r9, lsr #1
     798:	000000bd 	strheq	r0, [r0], -sp
     79c:	000000d1 	ldrdeq	r0, [r0], -r1
     7a0:	000000e5 	andeq	r0, r0, r5, ror #1
     7a4:	000000f9 	strdeq	r0, [r0], -r9
     7a8:	0000010d 	andeq	r0, r0, sp, lsl #2
     7ac:	68fb      	ldr	r3, [r7, #12]
     7ae:	681b      	ldr	r3, [r3, #0]
     7b0:	f103 0307 	add.w	r3, r3, #7
     7b4:	7ffa      	ldrb	r2, [r7, #31]
     7b6:	6879      	ldr	r1, [r7, #4]
     7b8:	188a      	adds	r2, r1, r2
     7ba:	7812      	ldrb	r2, [r2, #0]
     7bc:	701a      	strb	r2, [r3, #0]
     7be:	e06e      	b.n	89e <FlashCommandSequence+0x16e>
     7c0:	68fb      	ldr	r3, [r7, #12]
     7c2:	681b      	ldr	r3, [r3, #0]
     7c4:	f103 0306 	add.w	r3, r3, #6
     7c8:	7ffa      	ldrb	r2, [r7, #31]
     7ca:	6879      	ldr	r1, [r7, #4]
     7cc:	188a      	adds	r2, r1, r2
     7ce:	7812      	ldrb	r2, [r2, #0]
     7d0:	701a      	strb	r2, [r3, #0]
     7d2:	e064      	b.n	89e <FlashCommandSequence+0x16e>
     7d4:	68fb      	ldr	r3, [r7, #12]
     7d6:	681b      	ldr	r3, [r3, #0]
     7d8:	f103 0305 	add.w	r3, r3, #5
     7dc:	7ffa      	ldrb	r2, [r7, #31]
     7de:	6879      	ldr	r1, [r7, #4]
     7e0:	188a      	adds	r2, r1, r2
     7e2:	7812      	ldrb	r2, [r2, #0]
     7e4:	701a      	strb	r2, [r3, #0]
     7e6:	e05a      	b.n	89e <FlashCommandSequence+0x16e>
     7e8:	68fb      	ldr	r3, [r7, #12]
     7ea:	681b      	ldr	r3, [r3, #0]
     7ec:	f103 0304 	add.w	r3, r3, #4
     7f0:	7ffa      	ldrb	r2, [r7, #31]
     7f2:	6879      	ldr	r1, [r7, #4]
     7f4:	188a      	adds	r2, r1, r2
     7f6:	7812      	ldrb	r2, [r2, #0]
     7f8:	701a      	strb	r2, [r3, #0]
     7fa:	e050      	b.n	89e <FlashCommandSequence+0x16e>
     7fc:	68fb      	ldr	r3, [r7, #12]
     7fe:	681b      	ldr	r3, [r3, #0]
     800:	f103 030b 	add.w	r3, r3, #11
     804:	7ffa      	ldrb	r2, [r7, #31]
     806:	6879      	ldr	r1, [r7, #4]
     808:	188a      	adds	r2, r1, r2
     80a:	7812      	ldrb	r2, [r2, #0]
     80c:	701a      	strb	r2, [r3, #0]
     80e:	e046      	b.n	89e <FlashCommandSequence+0x16e>
     810:	68fb      	ldr	r3, [r7, #12]
     812:	681b      	ldr	r3, [r3, #0]
     814:	f103 030a 	add.w	r3, r3, #10
     818:	7ffa      	ldrb	r2, [r7, #31]
     81a:	6879      	ldr	r1, [r7, #4]
     81c:	188a      	adds	r2, r1, r2
     81e:	7812      	ldrb	r2, [r2, #0]
     820:	701a      	strb	r2, [r3, #0]
     822:	e03c      	b.n	89e <FlashCommandSequence+0x16e>
     824:	68fb      	ldr	r3, [r7, #12]
     826:	681b      	ldr	r3, [r3, #0]
     828:	f103 0309 	add.w	r3, r3, #9
     82c:	7ffa      	ldrb	r2, [r7, #31]
     82e:	6879      	ldr	r1, [r7, #4]
     830:	188a      	adds	r2, r1, r2
     832:	7812      	ldrb	r2, [r2, #0]
     834:	701a      	strb	r2, [r3, #0]
     836:	e032      	b.n	89e <FlashCommandSequence+0x16e>
     838:	68fb      	ldr	r3, [r7, #12]
     83a:	681b      	ldr	r3, [r3, #0]
     83c:	f103 0308 	add.w	r3, r3, #8
     840:	7ffa      	ldrb	r2, [r7, #31]
     842:	6879      	ldr	r1, [r7, #4]
     844:	188a      	adds	r2, r1, r2
     846:	7812      	ldrb	r2, [r2, #0]
     848:	701a      	strb	r2, [r3, #0]
     84a:	e028      	b.n	89e <FlashCommandSequence+0x16e>
     84c:	68fb      	ldr	r3, [r7, #12]
     84e:	681b      	ldr	r3, [r3, #0]
     850:	f103 030f 	add.w	r3, r3, #15
     854:	7ffa      	ldrb	r2, [r7, #31]
     856:	6879      	ldr	r1, [r7, #4]
     858:	188a      	adds	r2, r1, r2
     85a:	7812      	ldrb	r2, [r2, #0]
     85c:	701a      	strb	r2, [r3, #0]
     85e:	e01e      	b.n	89e <FlashCommandSequence+0x16e>
     860:	68fb      	ldr	r3, [r7, #12]
     862:	681b      	ldr	r3, [r3, #0]
     864:	f103 030e 	add.w	r3, r3, #14
     868:	7ffa      	ldrb	r2, [r7, #31]
     86a:	6879      	ldr	r1, [r7, #4]
     86c:	188a      	adds	r2, r1, r2
     86e:	7812      	ldrb	r2, [r2, #0]
     870:	701a      	strb	r2, [r3, #0]
     872:	e014      	b.n	89e <FlashCommandSequence+0x16e>
     874:	68fb      	ldr	r3, [r7, #12]
     876:	681b      	ldr	r3, [r3, #0]
     878:	f103 030d 	add.w	r3, r3, #13
     87c:	7ffa      	ldrb	r2, [r7, #31]
     87e:	6879      	ldr	r1, [r7, #4]
     880:	188a      	adds	r2, r1, r2
     882:	7812      	ldrb	r2, [r2, #0]
     884:	701a      	strb	r2, [r3, #0]
     886:	e00a      	b.n	89e <FlashCommandSequence+0x16e>
     888:	68fb      	ldr	r3, [r7, #12]
     88a:	681b      	ldr	r3, [r3, #0]
     88c:	f103 030c 	add.w	r3, r3, #12
     890:	7ffa      	ldrb	r2, [r7, #31]
     892:	6879      	ldr	r1, [r7, #4]
     894:	188a      	adds	r2, r1, r2
     896:	7812      	ldrb	r2, [r2, #0]
     898:	701a      	strb	r2, [r3, #0]
     89a:	e000      	b.n	89e <FlashCommandSequence+0x16e>
     89c:	bf00      	nop
     89e:	7ffb      	ldrb	r3, [r7, #31]
     8a0:	f103 0301 	add.w	r3, r3, #1
     8a4:	77fb      	strb	r3, [r7, #31]
     8a6:	7ffa      	ldrb	r2, [r7, #31]
     8a8:	7afb      	ldrb	r3, [r7, #11]
     8aa:	429a      	cmp	r2, r3
     8ac:	f67f af5c 	bls.w	768 <FlashCommandSequence+0x38>
     8b0:	68fb      	ldr	r3, [r7, #12]
     8b2:	681b      	ldr	r3, [r3, #0]
     8b4:	f04f 0280 	mov.w	r2, #128	; 0x80
     8b8:	701a      	strb	r2, [r3, #0]
     8ba:	e007      	b.n	8cc <FlashCommandSequence+0x19c>
     8bc:	68fb      	ldr	r3, [r7, #12]
     8be:	6a5b      	ldr	r3, [r3, #36]	; 0x24
     8c0:	f1b3 3fff 	cmp.w	r3, #4294967295
     8c4:	d002      	beq.n	8cc <FlashCommandSequence+0x19c>
     8c6:	68fb      	ldr	r3, [r7, #12]
     8c8:	6a5b      	ldr	r3, [r3, #36]	; 0x24
     8ca:	4798      	blx	r3
     8cc:	68fb      	ldr	r3, [r7, #12]
     8ce:	681b      	ldr	r3, [r3, #0]
     8d0:	781b      	ldrb	r3, [r3, #0]
     8d2:	b2db      	uxtb	r3, r3
     8d4:	b2db      	uxtb	r3, r3
     8d6:	b25b      	sxtb	r3, r3
     8d8:	2b00      	cmp	r3, #0
     8da:	daef      	bge.n	8bc <FlashCommandSequence+0x18c>
     8dc:	68fb      	ldr	r3, [r7, #12]
     8de:	681b      	ldr	r3, [r3, #0]
     8e0:	781b      	ldrb	r3, [r3, #0]
     8e2:	75fb      	strb	r3, [r7, #23]
     8e4:	7dfb      	ldrb	r3, [r7, #23]
     8e6:	f003 0320 	and.w	r3, r3, #32
     8ea:	2b00      	cmp	r3, #0
     8ec:	d003      	beq.n	8f6 <FlashCommandSequence+0x1c6>
     8ee:	f04f 0304 	mov.w	r3, #4
     8f2:	61bb      	str	r3, [r7, #24]
     8f4:	e010      	b.n	918 <FlashCommandSequence+0x1e8>
     8f6:	7dfb      	ldrb	r3, [r7, #23]
     8f8:	f003 0310 	and.w	r3, r3, #16
     8fc:	2b00      	cmp	r3, #0
     8fe:	d003      	beq.n	908 <FlashCommandSequence+0x1d8>
     900:	f04f 0308 	mov.w	r3, #8
     904:	61bb      	str	r3, [r7, #24]
     906:	e007      	b.n	918 <FlashCommandSequence+0x1e8>
     908:	7dfb      	ldrb	r3, [r7, #23]
     90a:	f003 0301 	and.w	r3, r3, #1
     90e:	2b00      	cmp	r3, #0
     910:	d002      	beq.n	918 <FlashCommandSequence+0x1e8>
     912:	f04f 0310 	mov.w	r3, #16
     916:	61bb      	str	r3, [r7, #24]
     918:	69bb      	ldr	r3, [r7, #24]
     91a:	4618      	mov	r0, r3
     91c:	f107 0720 	add.w	r7, r7, #32
     920:	46bd      	mov	sp, r7
     922:	bd80      	pop	{r7, pc}

00000924 <FlashEraseAllBlock>:
     924:	b580      	push	{r7, lr}
     926:	b084      	sub	sp, #16
     928:	af00      	add	r7, sp, #0
     92a:	6078      	str	r0, [r7, #4]
     92c:	6039      	str	r1, [r7, #0]
     92e:	f04f 0300 	mov.w	r3, #0
     932:	60fb      	str	r3, [r7, #12]
     934:	f04f 0344 	mov.w	r3, #68	; 0x44
     938:	723b      	strb	r3, [r7, #8]
     93a:	f107 0208 	add.w	r2, r7, #8
     93e:	683b      	ldr	r3, [r7, #0]
     940:	6878      	ldr	r0, [r7, #4]
     942:	f04f 0100 	mov.w	r1, #0
     946:	4798      	blx	r3
     948:	60f8      	str	r0, [r7, #12]
     94a:	68fb      	ldr	r3, [r7, #12]
     94c:	4618      	mov	r0, r3
     94e:	f107 0710 	add.w	r7, r7, #16
     952:	46bd      	mov	sp, r7
     954:	bd80      	pop	{r7, pc}
     956:	bf00      	nop

00000958 <FlashEraseBlock>:
     958:	b580      	push	{r7, lr}
     95a:	b086      	sub	sp, #24
     95c:	af00      	add	r7, sp, #0
     95e:	60f8      	str	r0, [r7, #12]
     960:	60b9      	str	r1, [r7, #8]
     962:	607a      	str	r2, [r7, #4]
     964:	f04f 0300 	mov.w	r3, #0
     968:	617b      	str	r3, [r7, #20]
     96a:	68bb      	ldr	r3, [r7, #8]
     96c:	f003 0303 	and.w	r3, r3, #3
     970:	2b00      	cmp	r3, #0
     972:	d003      	beq.n	97c <FlashEraseBlock+0x24>
     974:	f44f 7380 	mov.w	r3, #256	; 0x100
     978:	617b      	str	r3, [r7, #20]
     97a:	e042      	b.n	a02 <FlashEraseBlock+0xaa>
     97c:	68fb      	ldr	r3, [r7, #12]
     97e:	685a      	ldr	r2, [r3, #4]
     980:	68bb      	ldr	r3, [r7, #8]
     982:	429a      	cmp	r2, r3
     984:	d807      	bhi.n	996 <FlashEraseBlock+0x3e>
     986:	68fb      	ldr	r3, [r7, #12]
     988:	685a      	ldr	r2, [r3, #4]
     98a:	68fb      	ldr	r3, [r7, #12]
     98c:	689b      	ldr	r3, [r3, #8]
     98e:	18d2      	adds	r2, r2, r3
     990:	68bb      	ldr	r3, [r7, #8]
     992:	429a      	cmp	r2, r3
     994:	d818      	bhi.n	9c8 <FlashEraseBlock+0x70>
     996:	68fb      	ldr	r3, [r7, #12]
     998:	68da      	ldr	r2, [r3, #12]
     99a:	68bb      	ldr	r3, [r7, #8]
     99c:	429a      	cmp	r2, r3
     99e:	d807      	bhi.n	9b0 <FlashEraseBlock+0x58>
     9a0:	68fb      	ldr	r3, [r7, #12]
     9a2:	68da      	ldr	r2, [r3, #12]
     9a4:	68fb      	ldr	r3, [r7, #12]
     9a6:	691b      	ldr	r3, [r3, #16]
     9a8:	18d2      	adds	r2, r2, r3
     9aa:	68bb      	ldr	r3, [r7, #8]
     9ac:	429a      	cmp	r2, r3
     9ae:	d803      	bhi.n	9b8 <FlashEraseBlock+0x60>
     9b0:	f04f 0302 	mov.w	r3, #2
     9b4:	617b      	str	r3, [r7, #20]
     9b6:	e024      	b.n	a02 <FlashEraseBlock+0xaa>
     9b8:	68fb      	ldr	r3, [r7, #12]
     9ba:	68db      	ldr	r3, [r3, #12]
     9bc:	68ba      	ldr	r2, [r7, #8]
     9be:	1ad3      	subs	r3, r2, r3
     9c0:	f503 0300 	add.w	r3, r3, #8388608	; 0x800000
     9c4:	60bb      	str	r3, [r7, #8]
     9c6:	e004      	b.n	9d2 <FlashEraseBlock+0x7a>
     9c8:	68fb      	ldr	r3, [r7, #12]
     9ca:	685b      	ldr	r3, [r3, #4]
     9cc:	68ba      	ldr	r2, [r7, #8]
     9ce:	1ad3      	subs	r3, r2, r3
     9d0:	60bb      	str	r3, [r7, #8]
     9d2:	f04f 0308 	mov.w	r3, #8
     9d6:	743b      	strb	r3, [r7, #16]
     9d8:	68bb      	ldr	r3, [r7, #8]
     9da:	ea4f 4313 	mov.w	r3, r3, lsr #16
     9de:	b2db      	uxtb	r3, r3
     9e0:	747b      	strb	r3, [r7, #17]
     9e2:	68bb      	ldr	r3, [r7, #8]
     9e4:	ea4f 2313 	mov.w	r3, r3, lsr #8
     9e8:	b2db      	uxtb	r3, r3
     9ea:	74bb      	strb	r3, [r7, #18]
     9ec:	68bb      	ldr	r3, [r7, #8]
     9ee:	b2db      	uxtb	r3, r3
     9f0:	74fb      	strb	r3, [r7, #19]
     9f2:	f107 0210 	add.w	r2, r7, #16
     9f6:	687b      	ldr	r3, [r7, #4]
     9f8:	68f8      	ldr	r0, [r7, #12]
     9fa:	f04f 0103 	mov.w	r1, #3
     9fe:	4798      	blx	r3
     a00:	6178      	str	r0, [r7, #20]
     a02:	697b      	ldr	r3, [r7, #20]
     a04:	4618      	mov	r0, r3
     a06:	f107 0718 	add.w	r7, r7, #24
     a0a:	46bd      	mov	sp, r7
     a0c:	bd80      	pop	{r7, pc}
     a0e:	bf00      	nop

00000a10 <FlashEraseResume>:
     a10:	b480      	push	{r7}
     a12:	b085      	sub	sp, #20
     a14:	af00      	add	r7, sp, #0
     a16:	6078      	str	r0, [r7, #4]
     a18:	f04f 0300 	mov.w	r3, #0
     a1c:	60fb      	str	r3, [r7, #12]
     a1e:	687b      	ldr	r3, [r7, #4]
     a20:	681b      	ldr	r3, [r3, #0]
     a22:	f103 0301 	add.w	r3, r3, #1
     a26:	781b      	ldrb	r3, [r3, #0]
     a28:	68fb      	ldr	r3, [r7, #12]
     a2a:	4618      	mov	r0, r3
     a2c:	f107 0714 	add.w	r7, r7, #20
     a30:	46bd      	mov	sp, r7
     a32:	bc80      	pop	{r7}
     a34:	4770      	bx	lr
     a36:	bf00      	nop

00000a38 <FlashEraseSector0>:
     a38:	b580      	push	{r7, lr}
     a3a:	b088      	sub	sp, #32
     a3c:	af00      	add	r7, sp, #0
     a3e:	60f8      	str	r0, [r7, #12]
     a40:	60b9      	str	r1, [r7, #8]
     a42:	607a      	str	r2, [r7, #4]
     a44:	603b      	str	r3, [r7, #0]
     a46:	687b      	ldr	r3, [r7, #4]
     a48:	61bb      	str	r3, [r7, #24]
     a4a:	f04f 0300 	mov.w	r3, #0
     a4e:	61fb      	str	r3, [r7, #28]
     a50:	69fb      	ldr	r3, [r7, #28]
     a52:	2b00      	cmp	r3, #0
     a54:	d128      	bne.n	aa8 <FlashEraseSector0+0x70>
     a56:	e022      	b.n	a9e <FlashEraseSector0+0x66>
     a58:	f04f 0309 	mov.w	r3, #9
     a5c:	753b      	strb	r3, [r7, #20]
     a5e:	68bb      	ldr	r3, [r7, #8]
     a60:	ea4f 4313 	mov.w	r3, r3, lsr #16
     a64:	b2db      	uxtb	r3, r3
     a66:	757b      	strb	r3, [r7, #21]
     a68:	68bb      	ldr	r3, [r7, #8]
     a6a:	ea4f 2313 	mov.w	r3, r3, lsr #8
     a6e:	b2db      	uxtb	r3, r3
     a70:	75bb      	strb	r3, [r7, #22]
     a72:	68bb      	ldr	r3, [r7, #8]
     a74:	b2db      	uxtb	r3, r3
     a76:	75fb      	strb	r3, [r7, #23]
     a78:	f107 0214 	add.w	r2, r7, #20
     a7c:	683b      	ldr	r3, [r7, #0]
     a7e:	68f8      	ldr	r0, [r7, #12]
     a80:	f04f 0103 	mov.w	r1, #3
     a84:	4798      	blx	r3
     a86:	61f8      	str	r0, [r7, #28]
     a88:	69fb      	ldr	r3, [r7, #28]
     a8a:	2b00      	cmp	r3, #0
     a8c:	d10b      	bne.n	aa6 <FlashEraseSector0+0x6e>
     a8e:	687a      	ldr	r2, [r7, #4]
     a90:	69bb      	ldr	r3, [r7, #24]
     a92:	1ad3      	subs	r3, r2, r3
     a94:	607b      	str	r3, [r7, #4]
     a96:	68ba      	ldr	r2, [r7, #8]
     a98:	69bb      	ldr	r3, [r7, #24]
     a9a:	18d3      	adds	r3, r2, r3
     a9c:	60bb      	str	r3, [r7, #8]
     a9e:	687b      	ldr	r3, [r7, #4]
     aa0:	2b00      	cmp	r3, #0
     aa2:	d1d9      	bne.n	a58 <FlashEraseSector0+0x20>
     aa4:	e000      	b.n	aa8 <FlashEraseSector0+0x70>
     aa6:	bf00      	nop
     aa8:	69fb      	ldr	r3, [r7, #28]
     aaa:	4618      	mov	r0, r3
     aac:	f107 0720 	add.w	r7, r7, #32
     ab0:	46bd      	mov	sp, r7
     ab2:	bd80      	pop	{r7, pc}

00000ab4 <FlashEraseSuspend>:
     ab4:	b480      	push	{r7}
     ab6:	b085      	sub	sp, #20
     ab8:	af00      	add	r7, sp, #0
     aba:	6078      	str	r0, [r7, #4]
     abc:	f04f 0300 	mov.w	r3, #0
     ac0:	60fb      	str	r3, [r7, #12]
     ac2:	687b      	ldr	r3, [r7, #4]
     ac4:	681b      	ldr	r3, [r3, #0]
     ac6:	781b      	ldrb	r3, [r3, #0]
     ac8:	b2db      	uxtb	r3, r3
     aca:	b2db      	uxtb	r3, r3
     acc:	b25b      	sxtb	r3, r3
     ace:	2b00      	cmp	r3, #0
     ad0:	db0d      	blt.n	aee <FlashEraseSuspend+0x3a>
     ad2:	687b      	ldr	r3, [r7, #4]
     ad4:	681b      	ldr	r3, [r3, #0]
     ad6:	f103 0301 	add.w	r3, r3, #1
     ada:	687a      	ldr	r2, [r7, #4]
     adc:	6812      	ldr	r2, [r2, #0]
     ade:	f102 0201 	add.w	r2, r2, #1
     ae2:	7812      	ldrb	r2, [r2, #0]
     ae4:	b2d2      	uxtb	r2, r2
     ae6:	f042 0210 	orr.w	r2, r2, #16
     aea:	b2d2      	uxtb	r2, r2
     aec:	701a      	strb	r2, [r3, #0]
     aee:	68fb      	ldr	r3, [r7, #12]
     af0:	4618      	mov	r0, r3
     af2:	f107 0714 	add.w	r7, r7, #20
     af6:	46bd      	mov	sp, r7
     af8:	bc80      	pop	{r7}
     afa:	4770      	bx	lr

00000afc <FlashGetInterruptEnable>:
     afc:	b480      	push	{r7}
     afe:	b085      	sub	sp, #20
     b00:	af00      	add	r7, sp, #0
     b02:	6078      	str	r0, [r7, #4]
     b04:	6039      	str	r1, [r7, #0]
     b06:	683b      	ldr	r3, [r7, #0]
     b08:	f04f 0200 	mov.w	r2, #0
     b0c:	701a      	strb	r2, [r3, #0]
     b0e:	687b      	ldr	r3, [r7, #4]
     b10:	681b      	ldr	r3, [r3, #0]
     b12:	f103 0301 	add.w	r3, r3, #1
     b16:	781b      	ldrb	r3, [r3, #0]
     b18:	73fb      	strb	r3, [r7, #15]
     b1a:	683b      	ldr	r3, [r7, #0]
     b1c:	781b      	ldrb	r3, [r3, #0]
     b1e:	b2da      	uxtb	r2, r3
     b20:	7bfb      	ldrb	r3, [r7, #15]
     b22:	f023 033f 	bic.w	r3, r3, #63	; 0x3f
     b26:	b2db      	uxtb	r3, r3
     b28:	4313      	orrs	r3, r2
     b2a:	b2db      	uxtb	r3, r3
     b2c:	b2da      	uxtb	r2, r3
     b2e:	683b      	ldr	r3, [r7, #0]
     b30:	701a      	strb	r2, [r3, #0]
     b32:	f04f 0300 	mov.w	r3, #0
     b36:	4618      	mov	r0, r3
     b38:	f107 0714 	add.w	r7, r7, #20
     b3c:	46bd      	mov	sp, r7
     b3e:	bc80      	pop	{r7}
     b40:	4770      	bx	lr
     b42:	bf00      	nop

00000b44 <FlashGetSecurityState>:
     b44:	b480      	push	{r7}
     b46:	b085      	sub	sp, #20
     b48:	af00      	add	r7, sp, #0
     b4a:	6078      	str	r0, [r7, #4]
     b4c:	6039      	str	r1, [r7, #0]
     b4e:	687b      	ldr	r3, [r7, #4]
     b50:	681b      	ldr	r3, [r3, #0]
     b52:	f103 0302 	add.w	r3, r3, #2
     b56:	781b      	ldrb	r3, [r3, #0]
     b58:	73fb      	strb	r3, [r7, #15]
     b5a:	7bfb      	ldrb	r3, [r7, #15]
     b5c:	f003 0303 	and.w	r3, r3, #3
     b60:	2b02      	cmp	r3, #2
     b62:	d104      	bne.n	b6e <FlashGetSecurityState+0x2a>
     b64:	683b      	ldr	r3, [r7, #0]
     b66:	f04f 0201 	mov.w	r2, #1
     b6a:	701a      	strb	r2, [r3, #0]
     b6c:	e00d      	b.n	b8a <FlashGetSecurityState+0x46>
     b6e:	7bfb      	ldrb	r3, [r7, #15]
     b70:	f003 03c0 	and.w	r3, r3, #192	; 0xc0
     b74:	2b80      	cmp	r3, #128	; 0x80
     b76:	d104      	bne.n	b82 <FlashGetSecurityState+0x3e>
     b78:	683b      	ldr	r3, [r7, #0]
     b7a:	f04f 0202 	mov.w	r2, #2
     b7e:	701a      	strb	r2, [r3, #0]
     b80:	e003      	b.n	b8a <FlashGetSecurityState+0x46>
     b82:	683b      	ldr	r3, [r7, #0]
     b84:	f04f 0204 	mov.w	r2, #4
     b88:	701a      	strb	r2, [r3, #0]
     b8a:	f04f 0300 	mov.w	r3, #0
     b8e:	4618      	mov	r0, r3
     b90:	f107 0714 	add.w	r7, r7, #20
     b94:	46bd      	mov	sp, r7
     b96:	bc80      	pop	{r7}
     b98:	4770      	bx	lr
     b9a:	bf00      	nop

00000b9c <FlashInit0>:
     b9c:	b480      	push	{r7}
     b9e:	b085      	sub	sp, #20
     ba0:	af00      	add	r7, sp, #0
     ba2:	6078      	str	r0, [r7, #4]
     ba4:	f04f 0300 	mov.w	r3, #0
     ba8:	60fb      	str	r3, [r7, #12]
     baa:	bf00      	nop
     bac:	687b      	ldr	r3, [r7, #4]
     bae:	681b      	ldr	r3, [r3, #0]
     bb0:	781b      	ldrb	r3, [r3, #0]
     bb2:	b2db      	uxtb	r3, r3
     bb4:	b2db      	uxtb	r3, r3
     bb6:	b25b      	sxtb	r3, r3
     bb8:	2b00      	cmp	r3, #0
     bba:	daf7      	bge.n	bac <FlashInit0+0x10>
     bbc:	687b      	ldr	r3, [r7, #4]
     bbe:	681b      	ldr	r3, [r3, #0]
     bc0:	f04f 0270 	mov.w	r2, #112	; 0x70
     bc4:	701a      	strb	r2, [r3, #0]
     bc6:	687b      	ldr	r3, [r7, #4]
     bc8:	681b      	ldr	r3, [r3, #0]
     bca:	f103 0307 	add.w	r3, r3, #7
     bce:	f04f 0203 	mov.w	r2, #3
     bd2:	701a      	strb	r2, [r3, #0]
     bd4:	687b      	ldr	r3, [r7, #4]
     bd6:	681b      	ldr	r3, [r3, #0]
     bd8:	f103 0306 	add.w	r3, r3, #6
     bdc:	f04f 0280 	mov.w	r2, #128	; 0x80
     be0:	701a      	strb	r2, [r3, #0]
     be2:	687b      	ldr	r3, [r7, #4]
     be4:	681b      	ldr	r3, [r3, #0]
     be6:	f103 0305 	add.w	r3, r3, #5
     bea:	f04f 0200 	mov.w	r2, #0
     bee:	701a      	strb	r2, [r3, #0]
     bf0:	687b      	ldr	r3, [r7, #4]
     bf2:	681b      	ldr	r3, [r3, #0]
     bf4:	f103 0304 	add.w	r3, r3, #4
     bf8:	f04f 02fc 	mov.w	r2, #252	; 0xfc
     bfc:	701a      	strb	r2, [r3, #0]
     bfe:	687b      	ldr	r3, [r7, #4]
     c00:	681b      	ldr	r3, [r3, #0]
     c02:	f103 030f 	add.w	r3, r3, #15
     c06:	f04f 0200 	mov.w	r2, #0
     c0a:	701a      	strb	r2, [r3, #0]
     c0c:	687b      	ldr	r3, [r7, #4]
     c0e:	681b      	ldr	r3, [r3, #0]
     c10:	f04f 0280 	mov.w	r2, #128	; 0x80
     c14:	701a      	strb	r2, [r3, #0]
     c16:	bf00      	nop
     c18:	687b      	ldr	r3, [r7, #4]
     c1a:	681b      	ldr	r3, [r3, #0]
     c1c:	781b      	ldrb	r3, [r3, #0]
     c1e:	b2db      	uxtb	r3, r3
     c20:	b2db      	uxtb	r3, r3
     c22:	b25b      	sxtb	r3, r3
     c24:	2b00      	cmp	r3, #0
     c26:	daf7      	bge.n	c18 <FlashInit0+0x7c>
     c28:	687b      	ldr	r3, [r7, #4]
     c2a:	681b      	ldr	r3, [r3, #0]
     c2c:	f103 0309 	add.w	r3, r3, #9
     c30:	781b      	ldrb	r3, [r3, #0]
     c32:	72fb      	strb	r3, [r7, #11]
     c34:	687b      	ldr	r3, [r7, #4]
     c36:	681b      	ldr	r3, [r3, #0]
     c38:	f103 0308 	add.w	r3, r3, #8
     c3c:	781b      	ldrb	r3, [r3, #0]
     c3e:	72bb      	strb	r3, [r7, #10]
     c40:	7abb      	ldrb	r3, [r7, #10]
     c42:	f003 030f 	and.w	r3, r3, #15
     c46:	2b0f      	cmp	r3, #15
     c48:	d874      	bhi.n	d34 <FlashInit0+0x198>
     c4a:	a102      	add	r1, pc, #8	; (adr r1, c54 <FlashInit0+0xb8>)
     c4c:	f851 2023 	ldr.w	r2, [r1, r3, lsl #2]
     c50:	4411      	add	r1, r2
     c52:	4708      	bx	r1
     c54:	00000041 	andeq	r0, r0, r1, asr #32
     c58:	0000004b 	andeq	r0, r0, fp, asr #32
     c5c:	00000055 	andeq	r0, r0, r5, asr r0
     c60:	0000005f 	andeq	r0, r0, pc, asr r0
     c64:	00000069 	andeq	r0, r0, r9, rrx
     c68:	00000073 	andeq	r0, r0, r3, ror r0
     c6c:	0000007d 	andeq	r0, r0, sp, ror r0
     c70:	00000087 	andeq	r0, r0, r7, lsl #1
     c74:	00000091 	muleq	r0, r1, r0
     c78:	0000009b 	muleq	r0, fp, r0
     c7c:	000000a5 	andeq	r0, r0, r5, lsr #1
     c80:	000000af 	andeq	r0, r0, pc, lsr #1
     c84:	000000b9 	strheq	r0, [r0], -r9
     c88:	000000c3 	andeq	r0, r0, r3, asr #1
     c8c:	000000cd 	andeq	r0, r0, sp, asr #1
     c90:	000000d7 	ldrdeq	r0, [r0], -r7
     c94:	687b      	ldr	r3, [r7, #4]
     c96:	f44f 2280 	mov.w	r2, #262144	; 0x40000
     c9a:	611a      	str	r2, [r3, #16]
     c9c:	e04b      	b.n	d36 <FlashInit0+0x19a>
     c9e:	687b      	ldr	r3, [r7, #4]
     ca0:	f44f 2280 	mov.w	r2, #262144	; 0x40000
     ca4:	611a      	str	r2, [r3, #16]
     ca6:	e046      	b.n	d36 <FlashInit0+0x19a>
     ca8:	687b      	ldr	r3, [r7, #4]
     caa:	f44f 3270 	mov.w	r2, #245760	; 0x3c000
     cae:	611a      	str	r2, [r3, #16]
     cb0:	e041      	b.n	d36 <FlashInit0+0x19a>
     cb2:	687b      	ldr	r3, [r7, #4]
     cb4:	f44f 3260 	mov.w	r2, #229376	; 0x38000
     cb8:	611a      	str	r2, [r3, #16]
     cba:	e03c      	b.n	d36 <FlashInit0+0x19a>
     cbc:	687b      	ldr	r3, [r7, #4]
     cbe:	f44f 3240 	mov.w	r2, #196608	; 0x30000
     cc2:	611a      	str	r2, [r3, #16]
     cc4:	e037      	b.n	d36 <FlashInit0+0x19a>
     cc6:	687b      	ldr	r3, [r7, #4]
     cc8:	f44f 3200 	mov.w	r2, #131072	; 0x20000
     ccc:	611a      	str	r2, [r3, #16]
     cce:	e032      	b.n	d36 <FlashInit0+0x19a>
     cd0:	687b      	ldr	r3, [r7, #4]
     cd2:	f04f 0200 	mov.w	r2, #0
     cd6:	611a      	str	r2, [r3, #16]
     cd8:	e02d      	b.n	d36 <FlashInit0+0x19a>
     cda:	687b      	ldr	r3, [r7, #4]
     cdc:	f44f 2280 	mov.w	r2, #262144	; 0x40000
     ce0:	611a      	str	r2, [r3, #16]
     ce2:	e028      	b.n	d36 <FlashInit0+0x19a>
     ce4:	687b      	ldr	r3, [r7, #4]
     ce6:	f04f 0200 	mov.w	r2, #0
     cea:	611a      	str	r2, [r3, #16]
     cec:	e023      	b.n	d36 <FlashInit0+0x19a>
     cee:	687b      	ldr	r3, [r7, #4]
     cf0:	f44f 2280 	mov.w	r2, #262144	; 0x40000
     cf4:	611a      	str	r2, [r3, #16]
     cf6:	e01e      	b.n	d36 <FlashInit0+0x19a>
     cf8:	687b      	ldr	r3, [r7, #4]
     cfa:	f44f 4280 	mov.w	r2, #16384	; 0x4000
     cfe:	611a      	str	r2, [r3, #16]
     d00:	e019      	b.n	d36 <FlashInit0+0x19a>
     d02:	687b      	ldr	r3, [r7, #4]
     d04:	f44f 4200 	mov.w	r2, #32768	; 0x8000
     d08:	611a      	str	r2, [r3, #16]
     d0a:	e014      	b.n	d36 <FlashInit0+0x19a>
     d0c:	687b      	ldr	r3, [r7, #4]
     d0e:	f44f 3280 	mov.w	r2, #65536	; 0x10000
     d12:	611a      	str	r2, [r3, #16]
     d14:	e00f      	b.n	d36 <FlashInit0+0x19a>
     d16:	687b      	ldr	r3, [r7, #4]
     d18:	f44f 3200 	mov.w	r2, #131072	; 0x20000
     d1c:	611a      	str	r2, [r3, #16]
     d1e:	e00a      	b.n	d36 <FlashInit0+0x19a>
     d20:	687b      	ldr	r3, [r7, #4]
     d22:	f44f 2280 	mov.w	r2, #262144	; 0x40000
     d26:	611a      	str	r2, [r3, #16]
     d28:	e005      	b.n	d36 <FlashInit0+0x19a>
     d2a:	687b      	ldr	r3, [r7, #4]
     d2c:	f44f 2280 	mov.w	r2, #262144	; 0x40000
     d30:	611a      	str	r2, [r3, #16]
     d32:	e000      	b.n	d36 <FlashInit0+0x19a>
     d34:	bf00      	nop
     d36:	7afb      	ldrb	r3, [r7, #11]
     d38:	f003 030f 	and.w	r3, r3, #15
     d3c:	2b0f      	cmp	r3, #15
     d3e:	d875      	bhi.n	e2c <FlashInit0+0x290>
     d40:	a102      	add	r1, pc, #8	; (adr r1, d4c <FlashInit0+0x1b0>)
     d42:	f851 2023 	ldr.w	r2, [r1, r3, lsl #2]
     d46:	4411      	add	r1, r2
     d48:	4708      	bx	r1
     d4a:	bf00      	nop
     d4c:	00000041 	andeq	r0, r0, r1, asr #32
     d50:	0000004b 	andeq	r0, r0, fp, asr #32
     d54:	00000055 	andeq	r0, r0, r5, asr r0
     d58:	0000005f 	andeq	r0, r0, pc, asr r0
     d5c:	00000069 	andeq	r0, r0, r9, rrx
     d60:	00000073 	andeq	r0, r0, r3, ror r0
     d64:	0000007d 	andeq	r0, r0, sp, ror r0
     d68:	00000087 	andeq	r0, r0, r7, lsl #1
     d6c:	00000091 	muleq	r0, r1, r0
     d70:	0000009b 	muleq	r0, fp, r0
     d74:	000000a5 	andeq	r0, r0, r5, lsr #1
     d78:	000000af 	andeq	r0, r0, pc, lsr #1
     d7c:	000000b9 	strheq	r0, [r0], -r9
     d80:	000000c3 	andeq	r0, r0, r3, asr #1
     d84:	000000cd 	andeq	r0, r0, sp, asr #1
     d88:	000000d7 	ldrdeq	r0, [r0], -r7
     d8c:	687b      	ldr	r3, [r7, #4]
     d8e:	f04f 0200 	mov.w	r2, #0
     d92:	61da      	str	r2, [r3, #28]
     d94:	e04b      	b.n	e2e <FlashInit0+0x292>
     d96:	687b      	ldr	r3, [r7, #4]
     d98:	f04f 0200 	mov.w	r2, #0
     d9c:	61da      	str	r2, [r3, #28]
     d9e:	e046      	b.n	e2e <FlashInit0+0x292>
     da0:	687b      	ldr	r3, [r7, #4]
     da2:	f44f 5280 	mov.w	r2, #4096	; 0x1000
     da6:	61da      	str	r2, [r3, #28]
     da8:	e041      	b.n	e2e <FlashInit0+0x292>
     daa:	687b      	ldr	r3, [r7, #4]
     dac:	f44f 6200 	mov.w	r2, #2048	; 0x800
     db0:	61da      	str	r2, [r3, #28]
     db2:	e03c      	b.n	e2e <FlashInit0+0x292>
     db4:	687b      	ldr	r3, [r7, #4]
     db6:	f44f 6280 	mov.w	r2, #1024	; 0x400
     dba:	61da      	str	r2, [r3, #28]
     dbc:	e037      	b.n	e2e <FlashInit0+0x292>
     dbe:	687b      	ldr	r3, [r7, #4]
     dc0:	f44f 7200 	mov.w	r2, #512	; 0x200
     dc4:	61da      	str	r2, [r3, #28]
     dc6:	e032      	b.n	e2e <FlashInit0+0x292>
     dc8:	687b      	ldr	r3, [r7, #4]
     dca:	f44f 7280 	mov.w	r2, #256	; 0x100
     dce:	61da      	str	r2, [r3, #28]
     dd0:	e02d      	b.n	e2e <FlashInit0+0x292>
     dd2:	687b      	ldr	r3, [r7, #4]
     dd4:	f04f 0280 	mov.w	r2, #128	; 0x80
     dd8:	61da      	str	r2, [r3, #28]
     dda:	e028      	b.n	e2e <FlashInit0+0x292>
     ddc:	687b      	ldr	r3, [r7, #4]
     dde:	f04f 0240 	mov.w	r2, #64	; 0x40
     de2:	61da      	str	r2, [r3, #28]
     de4:	e023      	b.n	e2e <FlashInit0+0x292>
     de6:	687b      	ldr	r3, [r7, #4]
     de8:	f04f 0220 	mov.w	r2, #32
     dec:	61da      	str	r2, [r3, #28]
     dee:	e01e      	b.n	e2e <FlashInit0+0x292>
     df0:	687b      	ldr	r3, [r7, #4]
     df2:	f04f 0200 	mov.w	r2, #0
     df6:	61da      	str	r2, [r3, #28]
     df8:	e019      	b.n	e2e <FlashInit0+0x292>
     dfa:	687b      	ldr	r3, [r7, #4]
     dfc:	f04f 0200 	mov.w	r2, #0
     e00:	61da      	str	r2, [r3, #28]
     e02:	e014      	b.n	e2e <FlashInit0+0x292>
     e04:	687b      	ldr	r3, [r7, #4]
     e06:	f04f 0200 	mov.w	r2, #0
     e0a:	61da      	str	r2, [r3, #28]
     e0c:	e00f      	b.n	e2e <FlashInit0+0x292>
     e0e:	687b      	ldr	r3, [r7, #4]
     e10:	f04f 0200 	mov.w	r2, #0
     e14:	61da      	str	r2, [r3, #28]
     e16:	e00a      	b.n	e2e <FlashInit0+0x292>
     e18:	687b      	ldr	r3, [r7, #4]
     e1a:	f04f 0200 	mov.w	r2, #0
     e1e:	61da      	str	r2, [r3, #28]
     e20:	e005      	b.n	e2e <FlashInit0+0x292>
     e22:	687b      	ldr	r3, [r7, #4]
     e24:	f04f 0200 	mov.w	r2, #0
     e28:	61da      	str	r2, [r3, #28]
     e2a:	e000      	b.n	e2e <FlashInit0+0x292>
     e2c:	bf00      	nop
     e2e:	68fb      	ldr	r3, [r7, #12]
     e30:	4618      	mov	r0, r3
     e32:	f107 0714 	add.w	r7, r7, #20
     e36:	46bd      	mov	sp, r7
     e38:	bc80      	pop	{r7}
     e3a:	4770      	bx	lr

00000e3c <FlashProgramCheck>:
     e3c:	b580      	push	{r7, lr}
     e3e:	b088      	sub	sp, #32
     e40:	af00      	add	r7, sp, #0
     e42:	60f8      	str	r0, [r7, #12]
     e44:	60b9      	str	r1, [r7, #8]
     e46:	607a      	str	r2, [r7, #4]
     e48:	603b      	str	r3, [r7, #0]
     e4a:	f04f 0300 	mov.w	r3, #0
     e4e:	61fb      	str	r3, [r7, #28]
     e50:	68bb      	ldr	r3, [r7, #8]
     e52:	f003 0303 	and.w	r3, r3, #3
     e56:	2b00      	cmp	r3, #0
     e58:	d003      	beq.n	e62 <FlashProgramCheck+0x26>
     e5a:	f44f 7380 	mov.w	r3, #256	; 0x100
     e5e:	61fb      	str	r3, [r7, #28]
     e60:	e09f      	b.n	fa2 <FlashProgramCheck+0x166>
     e62:	687b      	ldr	r3, [r7, #4]
     e64:	f003 0303 	and.w	r3, r3, #3
     e68:	2b00      	cmp	r3, #0
     e6a:	d003      	beq.n	e74 <FlashProgramCheck+0x38>
     e6c:	f04f 0301 	mov.w	r3, #1
     e70:	61fb      	str	r3, [r7, #28]
     e72:	e096      	b.n	fa2 <FlashProgramCheck+0x166>
     e74:	68fb      	ldr	r3, [r7, #12]
     e76:	685a      	ldr	r2, [r3, #4]
     e78:	68bb      	ldr	r3, [r7, #8]
     e7a:	429a      	cmp	r2, r3
     e7c:	d809      	bhi.n	e92 <FlashProgramCheck+0x56>
     e7e:	68ba      	ldr	r2, [r7, #8]
     e80:	687b      	ldr	r3, [r7, #4]
     e82:	18d2      	adds	r2, r2, r3
     e84:	68fb      	ldr	r3, [r7, #12]
     e86:	6859      	ldr	r1, [r3, #4]
     e88:	68fb      	ldr	r3, [r7, #12]
     e8a:	689b      	ldr	r3, [r3, #8]
     e8c:	18cb      	adds	r3, r1, r3
     e8e:	429a      	cmp	r2, r3
     e90:	d91b      	bls.n	eca <FlashProgramCheck+0x8e>
     e92:	68fb      	ldr	r3, [r7, #12]
     e94:	68da      	ldr	r2, [r3, #12]
     e96:	68bb      	ldr	r3, [r7, #8]
     e98:	429a      	cmp	r2, r3
     e9a:	d809      	bhi.n	eb0 <FlashProgramCheck+0x74>
     e9c:	68ba      	ldr	r2, [r7, #8]
     e9e:	687b      	ldr	r3, [r7, #4]
     ea0:	18d2      	adds	r2, r2, r3
     ea2:	68fb      	ldr	r3, [r7, #12]
     ea4:	68d9      	ldr	r1, [r3, #12]
     ea6:	68fb      	ldr	r3, [r7, #12]
     ea8:	691b      	ldr	r3, [r3, #16]
     eaa:	18cb      	adds	r3, r1, r3
     eac:	429a      	cmp	r2, r3
     eae:	d903      	bls.n	eb8 <FlashProgramCheck+0x7c>
     eb0:	f04f 0302 	mov.w	r3, #2
     eb4:	61fb      	str	r3, [r7, #28]
     eb6:	e074      	b.n	fa2 <FlashProgramCheck+0x166>
     eb8:	68fb      	ldr	r3, [r7, #12]
     eba:	68db      	ldr	r3, [r3, #12]
     ebc:	68ba      	ldr	r2, [r7, #8]
     ebe:	1ad3      	subs	r3, r2, r3
     ec0:	f503 0300 	add.w	r3, r3, #8388608	; 0x800000
     ec4:	60bb      	str	r3, [r7, #8]
     ec6:	bf00      	nop
     ec8:	e068      	b.n	f9c <FlashProgramCheck+0x160>
     eca:	68fb      	ldr	r3, [r7, #12]
     ecc:	685b      	ldr	r3, [r3, #4]
     ece:	68ba      	ldr	r2, [r7, #8]
     ed0:	1ad3      	subs	r3, r2, r3
     ed2:	60bb      	str	r3, [r7, #8]
     ed4:	e062      	b.n	f9c <FlashProgramCheck+0x160>
     ed6:	69fb      	ldr	r3, [r7, #28]
     ed8:	2b00      	cmp	r3, #0
     eda:	d153      	bne.n	f84 <FlashProgramCheck+0x148>
     edc:	f04f 0302 	mov.w	r3, #2
     ee0:	743b      	strb	r3, [r7, #16]
     ee2:	68bb      	ldr	r3, [r7, #8]
     ee4:	ea4f 4313 	mov.w	r3, r3, lsr #16
     ee8:	b2db      	uxtb	r3, r3
     eea:	747b      	strb	r3, [r7, #17]
     eec:	68bb      	ldr	r3, [r7, #8]
     eee:	ea4f 2313 	mov.w	r3, r3, lsr #8
     ef2:	b2db      	uxtb	r3, r3
     ef4:	74bb      	strb	r3, [r7, #18]
     ef6:	68bb      	ldr	r3, [r7, #8]
     ef8:	b2db      	uxtb	r3, r3
     efa:	74fb      	strb	r3, [r7, #19]
     efc:	f897 3030 	ldrb.w	r3, [r7, #48]	; 0x30
     f00:	753b      	strb	r3, [r7, #20]
     f02:	683b      	ldr	r3, [r7, #0]
     f04:	78db      	ldrb	r3, [r3, #3]
     f06:	763b      	strb	r3, [r7, #24]
     f08:	683b      	ldr	r3, [r7, #0]
     f0a:	789b      	ldrb	r3, [r3, #2]
     f0c:	767b      	strb	r3, [r7, #25]
     f0e:	683b      	ldr	r3, [r7, #0]
     f10:	785b      	ldrb	r3, [r3, #1]
     f12:	76bb      	strb	r3, [r7, #26]
     f14:	683b      	ldr	r3, [r7, #0]
     f16:	781b      	ldrb	r3, [r3, #0]
     f18:	76fb      	strb	r3, [r7, #27]
     f1a:	f107 0210 	add.w	r2, r7, #16
     f1e:	6b7b      	ldr	r3, [r7, #52]	; 0x34
     f20:	68f8      	ldr	r0, [r7, #12]
     f22:	f04f 010b 	mov.w	r1, #11
     f26:	4798      	blx	r3
     f28:	61f8      	str	r0, [r7, #28]
     f2a:	69fb      	ldr	r3, [r7, #28]
     f2c:	2b00      	cmp	r3, #0
     f2e:	d029      	beq.n	f84 <FlashProgramCheck+0x148>
     f30:	6abb      	ldr	r3, [r7, #40]	; 0x28
     f32:	68ba      	ldr	r2, [r7, #8]
     f34:	601a      	str	r2, [r3, #0]
     f36:	6afb      	ldr	r3, [r7, #44]	; 0x2c
     f38:	f103 0303 	add.w	r3, r3, #3
     f3c:	68fa      	ldr	r2, [r7, #12]
     f3e:	6812      	ldr	r2, [r2, #0]
     f40:	f102 020b 	add.w	r2, r2, #11
     f44:	7812      	ldrb	r2, [r2, #0]
     f46:	b2d2      	uxtb	r2, r2
     f48:	701a      	strb	r2, [r3, #0]
     f4a:	6afb      	ldr	r3, [r7, #44]	; 0x2c
     f4c:	f103 0302 	add.w	r3, r3, #2
     f50:	68fa      	ldr	r2, [r7, #12]
     f52:	6812      	ldr	r2, [r2, #0]
     f54:	f102 020a 	add.w	r2, r2, #10
     f58:	7812      	ldrb	r2, [r2, #0]
     f5a:	b2d2      	uxtb	r2, r2
     f5c:	701a      	strb	r2, [r3, #0]
     f5e:	6afb      	ldr	r3, [r7, #44]	; 0x2c
     f60:	f103 0301 	add.w	r3, r3, #1
     f64:	68fa      	ldr	r2, [r7, #12]
     f66:	6812      	ldr	r2, [r2, #0]
     f68:	f102 0209 	add.w	r2, r2, #9
     f6c:	7812      	ldrb	r2, [r2, #0]
     f6e:	b2d2      	uxtb	r2, r2
     f70:	701a      	strb	r2, [r3, #0]
     f72:	68fb      	ldr	r3, [r7, #12]
     f74:	681b      	ldr	r3, [r3, #0]
     f76:	f103 0308 	add.w	r3, r3, #8
     f7a:	781b      	ldrb	r3, [r3, #0]
     f7c:	b2da      	uxtb	r2, r3
     f7e:	6afb      	ldr	r3, [r7, #44]	; 0x2c
     f80:	701a      	strb	r2, [r3, #0]
     f82:	e00e      	b.n	fa2 <FlashProgramCheck+0x166>
     f84:	687b      	ldr	r3, [r7, #4]
     f86:	f1a3 0304 	sub.w	r3, r3, #4
     f8a:	607b      	str	r3, [r7, #4]
     f8c:	683b      	ldr	r3, [r7, #0]
     f8e:	f103 0304 	add.w	r3, r3, #4
     f92:	603b      	str	r3, [r7, #0]
     f94:	68bb      	ldr	r3, [r7, #8]
     f96:	f103 0304 	add.w	r3, r3, #4
     f9a:	60bb      	str	r3, [r7, #8]
     f9c:	687b      	ldr	r3, [r7, #4]
     f9e:	2b00      	cmp	r3, #0
     fa0:	d199      	bne.n	ed6 <FlashProgramCheck+0x9a>
     fa2:	69fb      	ldr	r3, [r7, #28]
     fa4:	4618      	mov	r0, r3
     fa6:	f107 0720 	add.w	r7, r7, #32
     faa:	46bd      	mov	sp, r7
     fac:	bd80      	pop	{r7, pc}
     fae:	bf00      	nop

00000fb0 <FlashProgramLongword>:
     fb0:	b580      	push	{r7, lr}
     fb2:	b088      	sub	sp, #32
     fb4:	af00      	add	r7, sp, #0
     fb6:	60f8      	str	r0, [r7, #12]
     fb8:	60b9      	str	r1, [r7, #8]
     fba:	607a      	str	r2, [r7, #4]
     fbc:	603b      	str	r3, [r7, #0]
     fbe:	f04f 0300 	mov.w	r3, #0
     fc2:	61fb      	str	r3, [r7, #28]
     fc4:	687b      	ldr	r3, [r7, #4]
     fc6:	f103 0304 	add.w	r3, r3, #4
     fca:	f023 0304 	bic.w	r3, r3, #4
     fce:	607b      	str	r3, [r7, #4]
     fd0:	68fb      	ldr	r3, [r7, #12]
     fd2:	685b      	ldr	r3, [r3, #4]
     fd4:	68ba      	ldr	r2, [r7, #8]
     fd6:	1ad3      	subs	r3, r2, r3
     fd8:	60bb      	str	r3, [r7, #8]
     fda:	69fb      	ldr	r3, [r7, #28]
     fdc:	2b00      	cmp	r3, #0
     fde:	d142      	bne.n	1066 <FlashProgramLongword+0xb6>
     fe0:	e03c      	b.n	105c <FlashProgramLongword+0xac>
     fe2:	f04f 0306 	mov.w	r3, #6
     fe6:	753b      	strb	r3, [r7, #20]
     fe8:	68bb      	ldr	r3, [r7, #8]
     fea:	ea4f 4313 	mov.w	r3, r3, lsr #16
     fee:	b2db      	uxtb	r3, r3
     ff0:	757b      	strb	r3, [r7, #21]
     ff2:	68bb      	ldr	r3, [r7, #8]
     ff4:	ea4f 2313 	mov.w	r3, r3, lsr #8
     ff8:	b2db      	uxtb	r3, r3
     ffa:	75bb      	strb	r3, [r7, #22]
     ffc:	68bb      	ldr	r3, [r7, #8]
     ffe:	b2db      	uxtb	r3, r3
    1000:	75fb      	strb	r3, [r7, #23]
    1002:	683b      	ldr	r3, [r7, #0]
    1004:	f103 0303 	add.w	r3, r3, #3
    1008:	781b      	ldrb	r3, [r3, #0]
    100a:	b2db      	uxtb	r3, r3
    100c:	763b      	strb	r3, [r7, #24]
    100e:	683b      	ldr	r3, [r7, #0]
    1010:	f103 0302 	add.w	r3, r3, #2
    1014:	781b      	ldrb	r3, [r3, #0]
    1016:	b2db      	uxtb	r3, r3
    1018:	767b      	strb	r3, [r7, #25]
    101a:	683b      	ldr	r3, [r7, #0]
    101c:	f103 0301 	add.w	r3, r3, #1
    1020:	781b      	ldrb	r3, [r3, #0]
    1022:	b2db      	uxtb	r3, r3
    1024:	76bb      	strb	r3, [r7, #26]
    1026:	683b      	ldr	r3, [r7, #0]
    1028:	781b      	ldrb	r3, [r3, #0]
    102a:	b2db      	uxtb	r3, r3
    102c:	76fb      	strb	r3, [r7, #27]
    102e:	f107 0214 	add.w	r2, r7, #20
    1032:	6abb      	ldr	r3, [r7, #40]	; 0x28
    1034:	68f8      	ldr	r0, [r7, #12]
    1036:	f04f 0107 	mov.w	r1, #7
    103a:	4798      	blx	r3
    103c:	61f8      	str	r0, [r7, #28]
    103e:	69fb      	ldr	r3, [r7, #28]
    1040:	2b00      	cmp	r3, #0
    1042:	d10f      	bne.n	1064 <FlashProgramLongword+0xb4>
    1044:	68bb      	ldr	r3, [r7, #8]
    1046:	f103 0304 	add.w	r3, r3, #4
    104a:	60bb      	str	r3, [r7, #8]
    104c:	687b      	ldr	r3, [r7, #4]
    104e:	f1a3 0304 	sub.w	r3, r3, #4
    1052:	607b      	str	r3, [r7, #4]
    1054:	683b      	ldr	r3, [r7, #0]
    1056:	f103 0304 	add.w	r3, r3, #4
    105a:	603b      	str	r3, [r7, #0]
    105c:	687b      	ldr	r3, [r7, #4]
    105e:	2b00      	cmp	r3, #0
    1060:	d1bf      	bne.n	fe2 <FlashProgramLongword+0x32>
    1062:	e000      	b.n	1066 <FlashProgramLongword+0xb6>
    1064:	bf00      	nop
    1066:	69fb      	ldr	r3, [r7, #28]
    1068:	4618      	mov	r0, r3
    106a:	f107 0720 	add.w	r7, r7, #32
    106e:	46bd      	mov	sp, r7
    1070:	bd80      	pop	{r7, pc}
    1072:	bf00      	nop

00001074 <FlashProgramOnce>:
    1074:	b580      	push	{r7, lr}
    1076:	b08a      	sub	sp, #40	; 0x28
    1078:	af00      	add	r7, sp, #0
    107a:	60f8      	str	r0, [r7, #12]
    107c:	60b9      	str	r1, [r7, #8]
    107e:	607a      	str	r2, [r7, #4]
    1080:	f04f 0300 	mov.w	r3, #0
    1084:	623b      	str	r3, [r7, #32]
    1086:	f04f 0300 	mov.w	r3, #0
    108a:	f887 3027 	strb.w	r3, [r7, #39]	; 0x27
    108e:	f04f 0304 	mov.w	r3, #4
    1092:	77fb      	strb	r3, [r7, #31]
    1094:	f04f 0343 	mov.w	r3, #67	; 0x43
    1098:	753b      	strb	r3, [r7, #20]
    109a:	e045      	b.n	1128 <FlashProgramOnce+0xb4>
    109c:	f897 3027 	ldrb.w	r3, [r7, #39]	; 0x27
    10a0:	757b      	strb	r3, [r7, #21]
    10a2:	f04f 0300 	mov.w	r3, #0
    10a6:	75bb      	strb	r3, [r7, #22]
    10a8:	f04f 0300 	mov.w	r3, #0
    10ac:	75fb      	strb	r3, [r7, #23]
    10ae:	f897 3027 	ldrb.w	r3, [r7, #39]	; 0x27
    10b2:	7ffa      	ldrb	r2, [r7, #31]
    10b4:	fb02 f303 	mul.w	r3, r2, r3
    10b8:	68ba      	ldr	r2, [r7, #8]
    10ba:	18d3      	adds	r3, r2, r3
    10bc:	781b      	ldrb	r3, [r3, #0]
    10be:	763b      	strb	r3, [r7, #24]
    10c0:	f897 3027 	ldrb.w	r3, [r7, #39]	; 0x27
    10c4:	7ffa      	ldrb	r2, [r7, #31]
    10c6:	fb02 f303 	mul.w	r3, r2, r3
    10ca:	f103 0301 	add.w	r3, r3, #1
    10ce:	68ba      	ldr	r2, [r7, #8]
    10d0:	18d3      	adds	r3, r2, r3
    10d2:	781b      	ldrb	r3, [r3, #0]
    10d4:	767b      	strb	r3, [r7, #25]
    10d6:	f897 3027 	ldrb.w	r3, [r7, #39]	; 0x27
    10da:	7ffa      	ldrb	r2, [r7, #31]
    10dc:	fb02 f303 	mul.w	r3, r2, r3
    10e0:	f103 0302 	add.w	r3, r3, #2
    10e4:	68ba      	ldr	r2, [r7, #8]
    10e6:	18d3      	adds	r3, r2, r3
    10e8:	781b      	ldrb	r3, [r3, #0]
    10ea:	76bb      	strb	r3, [r7, #26]
    10ec:	f897 3027 	ldrb.w	r3, [r7, #39]	; 0x27
    10f0:	7ffa      	ldrb	r2, [r7, #31]
    10f2:	fb02 f303 	mul.w	r3, r2, r3
    10f6:	f103 0303 	add.w	r3, r3, #3
    10fa:	68ba      	ldr	r2, [r7, #8]
    10fc:	18d3      	adds	r3, r2, r3
    10fe:	781b      	ldrb	r3, [r3, #0]
    1100:	76fb      	strb	r3, [r7, #27]
    1102:	7ffb      	ldrb	r3, [r7, #31]
    1104:	f103 0303 	add.w	r3, r3, #3
    1108:	b2d9      	uxtb	r1, r3
    110a:	f107 0214 	add.w	r2, r7, #20
    110e:	687b      	ldr	r3, [r7, #4]
    1110:	68f8      	ldr	r0, [r7, #12]
    1112:	4798      	blx	r3
    1114:	6238      	str	r0, [r7, #32]
    1116:	6a3b      	ldr	r3, [r7, #32]
    1118:	2b00      	cmp	r3, #0
    111a:	d10a      	bne.n	1132 <FlashProgramOnce+0xbe>
    111c:	f897 3027 	ldrb.w	r3, [r7, #39]	; 0x27
    1120:	f103 0301 	add.w	r3, r3, #1
    1124:	f887 3027 	strb.w	r3, [r7, #39]	; 0x27
    1128:	f897 3027 	ldrb.w	r3, [r7, #39]	; 0x27
    112c:	2b0f      	cmp	r3, #15
    112e:	d9b5      	bls.n	109c <FlashProgramOnce+0x28>
    1130:	e000      	b.n	1134 <FlashProgramOnce+0xc0>
    1132:	bf00      	nop
    1134:	6a3b      	ldr	r3, [r7, #32]
    1136:	4618      	mov	r0, r3
    1138:	f107 0728 	add.w	r7, r7, #40	; 0x28
    113c:	46bd      	mov	sp, r7
    113e:	bd80      	pop	{r7, pc}

00001140 <FlashProgramSection>:
    1140:	b580      	push	{r7, lr}
    1142:	b08a      	sub	sp, #40	; 0x28
    1144:	af00      	add	r7, sp, #0
    1146:	60f8      	str	r0, [r7, #12]
    1148:	60b9      	str	r1, [r7, #8]
    114a:	603b      	str	r3, [r7, #0]
    114c:	4613      	mov	r3, r2
    114e:	80fb      	strh	r3, [r7, #6]
    1150:	f04f 0300 	mov.w	r3, #0
    1154:	627b      	str	r3, [r7, #36]	; 0x24
    1156:	bf00      	nop
    1158:	68fb      	ldr	r3, [r7, #12]
    115a:	681b      	ldr	r3, [r3, #0]
    115c:	f103 0301 	add.w	r3, r3, #1
    1160:	781b      	ldrb	r3, [r3, #0]
    1162:	b2db      	uxtb	r3, r3
    1164:	f003 0302 	and.w	r3, r3, #2
    1168:	2b00      	cmp	r3, #0
    116a:	d103      	bne.n	1174 <FlashProgramSection+0x34>
    116c:	f44f 5300 	mov.w	r3, #8192	; 0x2000
    1170:	627b      	str	r3, [r7, #36]	; 0x24
    1172:	e093      	b.n	129c <FlashProgramSection+0x15c>
    1174:	68fb      	ldr	r3, [r7, #12]
    1176:	685a      	ldr	r2, [r3, #4]
    1178:	68bb      	ldr	r3, [r7, #8]
    117a:	429a      	cmp	r2, r3
    117c:	d80f      	bhi.n	119e <FlashProgramSection+0x5e>
    117e:	68fb      	ldr	r3, [r7, #12]
    1180:	685a      	ldr	r2, [r3, #4]
    1182:	68fb      	ldr	r3, [r7, #12]
    1184:	689b      	ldr	r3, [r3, #8]
    1186:	18d2      	adds	r2, r2, r3
    1188:	68bb      	ldr	r3, [r7, #8]
    118a:	429a      	cmp	r2, r3
    118c:	d907      	bls.n	119e <FlashProgramSection+0x5e>
    118e:	88fb      	ldrh	r3, [r7, #6]
    1190:	ea4f 03c3 	mov.w	r3, r3, lsl #3
    1194:	461a      	mov	r2, r3
    1196:	68bb      	ldr	r3, [r7, #8]
    1198:	18d3      	adds	r3, r2, r3
    119a:	623b      	str	r3, [r7, #32]
    119c:	e018      	b.n	11d0 <FlashProgramSection+0x90>
    119e:	68fb      	ldr	r3, [r7, #12]
    11a0:	68da      	ldr	r2, [r3, #12]
    11a2:	68bb      	ldr	r3, [r7, #8]
    11a4:	429a      	cmp	r2, r3
    11a6:	d80f      	bhi.n	11c8 <FlashProgramSection+0x88>
    11a8:	68fb      	ldr	r3, [r7, #12]
    11aa:	68da      	ldr	r2, [r3, #12]
    11ac:	68fb      	ldr	r3, [r7, #12]
    11ae:	691b      	ldr	r3, [r3, #16]
    11b0:	18d2      	adds	r2, r2, r3
    11b2:	68bb      	ldr	r3, [r7, #8]
    11b4:	429a      	cmp	r2, r3
    11b6:	d907      	bls.n	11c8 <FlashProgramSection+0x88>
    11b8:	88fb      	ldrh	r3, [r7, #6]
    11ba:	ea4f 03c3 	mov.w	r3, r3, lsl #3
    11be:	461a      	mov	r2, r3
    11c0:	68bb      	ldr	r3, [r7, #8]
    11c2:	18d3      	adds	r3, r2, r3
    11c4:	623b      	str	r3, [r7, #32]
    11c6:	e003      	b.n	11d0 <FlashProgramSection+0x90>
    11c8:	f04f 0302 	mov.w	r3, #2
    11cc:	627b      	str	r3, [r7, #36]	; 0x24
    11ce:	e065      	b.n	129c <FlashProgramSection+0x15c>
    11d0:	68fb      	ldr	r3, [r7, #12]
    11d2:	685a      	ldr	r2, [r3, #4]
    11d4:	6a3b      	ldr	r3, [r7, #32]
    11d6:	429a      	cmp	r2, r3
    11d8:	d810      	bhi.n	11fc <FlashProgramSection+0xbc>
    11da:	68fb      	ldr	r3, [r7, #12]
    11dc:	685a      	ldr	r2, [r3, #4]
    11de:	68fb      	ldr	r3, [r7, #12]
    11e0:	689b      	ldr	r3, [r3, #8]
    11e2:	18d2      	adds	r2, r2, r3
    11e4:	6a3b      	ldr	r3, [r7, #32]
    11e6:	429a      	cmp	r2, r3
    11e8:	d308      	bcc.n	11fc <FlashProgramSection+0xbc>
    11ea:	68fb      	ldr	r3, [r7, #12]
    11ec:	685b      	ldr	r3, [r3, #4]
    11ee:	68ba      	ldr	r2, [r7, #8]
    11f0:	1ad3      	subs	r3, r2, r3
    11f2:	60bb      	str	r3, [r7, #8]
    11f4:	f04f 0308 	mov.w	r3, #8
    11f8:	61fb      	str	r3, [r7, #28]
    11fa:	e01b      	b.n	1234 <FlashProgramSection+0xf4>
    11fc:	68fb      	ldr	r3, [r7, #12]
    11fe:	68da      	ldr	r2, [r3, #12]
    1200:	6a3b      	ldr	r3, [r7, #32]
    1202:	429a      	cmp	r2, r3
    1204:	d907      	bls.n	1216 <FlashProgramSection+0xd6>
    1206:	68fb      	ldr	r3, [r7, #12]
    1208:	68da      	ldr	r2, [r3, #12]
    120a:	68fb      	ldr	r3, [r7, #12]
    120c:	691b      	ldr	r3, [r3, #16]
    120e:	18d2      	adds	r2, r2, r3
    1210:	6a3b      	ldr	r3, [r7, #32]
    1212:	429a      	cmp	r2, r3
    1214:	d30a      	bcc.n	122c <FlashProgramSection+0xec>
    1216:	68fb      	ldr	r3, [r7, #12]
    1218:	68db      	ldr	r3, [r3, #12]
    121a:	68ba      	ldr	r2, [r7, #8]
    121c:	1ad3      	subs	r3, r2, r3
    121e:	f503 0300 	add.w	r3, r3, #8388608	; 0x800000
    1222:	60bb      	str	r3, [r7, #8]
    1224:	f04f 0308 	mov.w	r3, #8
    1228:	61fb      	str	r3, [r7, #28]
    122a:	e003      	b.n	1234 <FlashProgramSection+0xf4>
    122c:	f04f 0302 	mov.w	r3, #2
    1230:	627b      	str	r3, [r7, #36]	; 0x24
    1232:	e033      	b.n	129c <FlashProgramSection+0x15c>
    1234:	68bb      	ldr	r3, [r7, #8]
    1236:	69fa      	ldr	r2, [r7, #28]
    1238:	fbb3 f2f2 	udiv	r2, r3, r2
    123c:	69f9      	ldr	r1, [r7, #28]
    123e:	fb01 f202 	mul.w	r2, r1, r2
    1242:	1a9b      	subs	r3, r3, r2
    1244:	2b00      	cmp	r3, #0
    1246:	d003      	beq.n	1250 <FlashProgramSection+0x110>
    1248:	f44f 7380 	mov.w	r3, #256	; 0x100
    124c:	627b      	str	r3, [r7, #36]	; 0x24
    124e:	e025      	b.n	129c <FlashProgramSection+0x15c>
    1250:	6a7b      	ldr	r3, [r7, #36]	; 0x24
    1252:	2b00      	cmp	r3, #0
    1254:	d122      	bne.n	129c <FlashProgramSection+0x15c>
    1256:	f04f 030b 	mov.w	r3, #11
    125a:	753b      	strb	r3, [r7, #20]
    125c:	68bb      	ldr	r3, [r7, #8]
    125e:	ea4f 4313 	mov.w	r3, r3, lsr #16
    1262:	b2db      	uxtb	r3, r3
    1264:	757b      	strb	r3, [r7, #21]
    1266:	68bb      	ldr	r3, [r7, #8]
    1268:	ea4f 2313 	mov.w	r3, r3, lsr #8
    126c:	b2db      	uxtb	r3, r3
    126e:	75bb      	strb	r3, [r7, #22]
    1270:	68bb      	ldr	r3, [r7, #8]
    1272:	b2db      	uxtb	r3, r3
    1274:	75fb      	strb	r3, [r7, #23]
    1276:	88fb      	ldrh	r3, [r7, #6]
    1278:	ea4f 2313 	mov.w	r3, r3, lsr #8
    127c:	b29b      	uxth	r3, r3
    127e:	b2db      	uxtb	r3, r3
    1280:	763b      	strb	r3, [r7, #24]
    1282:	88fb      	ldrh	r3, [r7, #6]
    1284:	b2db      	uxtb	r3, r3
    1286:	767b      	strb	r3, [r7, #25]
    1288:	f107 0214 	add.w	r2, r7, #20
    128c:	683b      	ldr	r3, [r7, #0]
    128e:	68f8      	ldr	r0, [r7, #12]
    1290:	f04f 0105 	mov.w	r1, #5
    1294:	4798      	blx	r3
    1296:	6278      	str	r0, [r7, #36]	; 0x24
    1298:	6a7b      	ldr	r3, [r7, #36]	; 0x24
    129a:	2b00      	cmp	r3, #0
    129c:	6a7b      	ldr	r3, [r7, #36]	; 0x24
    129e:	4618      	mov	r0, r3
    12a0:	f107 0728 	add.w	r7, r7, #40	; 0x28
    12a4:	46bd      	mov	sp, r7
    12a6:	bd80      	pop	{r7, pc}

000012a8 <FlashReadOnce>:
    12a8:	b580      	push	{r7, lr}
    12aa:	b088      	sub	sp, #32
    12ac:	af00      	add	r7, sp, #0
    12ae:	60f8      	str	r0, [r7, #12]
    12b0:	60b9      	str	r1, [r7, #8]
    12b2:	607a      	str	r2, [r7, #4]
    12b4:	f04f 0300 	mov.w	r3, #0
    12b8:	77fb      	strb	r3, [r7, #31]
    12ba:	f04f 0300 	mov.w	r3, #0
    12be:	61bb      	str	r3, [r7, #24]
    12c0:	f04f 0304 	mov.w	r3, #4
    12c4:	75fb      	strb	r3, [r7, #23]
    12c6:	f04f 0341 	mov.w	r3, #65	; 0x41
    12ca:	753b      	strb	r3, [r7, #20]
    12cc:	e04a      	b.n	1364 <FlashReadOnce+0xbc>
    12ce:	7ffb      	ldrb	r3, [r7, #31]
    12d0:	757b      	strb	r3, [r7, #21]
    12d2:	f107 0214 	add.w	r2, r7, #20
    12d6:	687b      	ldr	r3, [r7, #4]
    12d8:	68f8      	ldr	r0, [r7, #12]
    12da:	f04f 0101 	mov.w	r1, #1
    12de:	4798      	blx	r3
    12e0:	61b8      	str	r0, [r7, #24]
    12e2:	69bb      	ldr	r3, [r7, #24]
    12e4:	2b00      	cmp	r3, #0
    12e6:	d141      	bne.n	136c <FlashReadOnce+0xc4>
    12e8:	7ffb      	ldrb	r3, [r7, #31]
    12ea:	7dfa      	ldrb	r2, [r7, #23]
    12ec:	fb02 f303 	mul.w	r3, r2, r3
    12f0:	68ba      	ldr	r2, [r7, #8]
    12f2:	18d3      	adds	r3, r2, r3
    12f4:	68fa      	ldr	r2, [r7, #12]
    12f6:	6812      	ldr	r2, [r2, #0]
    12f8:	f102 020b 	add.w	r2, r2, #11
    12fc:	7812      	ldrb	r2, [r2, #0]
    12fe:	b2d2      	uxtb	r2, r2
    1300:	701a      	strb	r2, [r3, #0]
    1302:	7ffb      	ldrb	r3, [r7, #31]
    1304:	7dfa      	ldrb	r2, [r7, #23]
    1306:	fb02 f303 	mul.w	r3, r2, r3
    130a:	f103 0301 	add.w	r3, r3, #1
    130e:	68ba      	ldr	r2, [r7, #8]
    1310:	18d3      	adds	r3, r2, r3
    1312:	68fa      	ldr	r2, [r7, #12]
    1314:	6812      	ldr	r2, [r2, #0]
    1316:	f102 020a 	add.w	r2, r2, #10
    131a:	7812      	ldrb	r2, [r2, #0]
    131c:	b2d2      	uxtb	r2, r2
    131e:	701a      	strb	r2, [r3, #0]
    1320:	7ffb      	ldrb	r3, [r7, #31]
    1322:	7dfa      	ldrb	r2, [r7, #23]
    1324:	fb02 f303 	mul.w	r3, r2, r3
    1328:	f103 0302 	add.w	r3, r3, #2
    132c:	68ba      	ldr	r2, [r7, #8]
    132e:	18d3      	adds	r3, r2, r3
    1330:	68fa      	ldr	r2, [r7, #12]
    1332:	6812      	ldr	r2, [r2, #0]
    1334:	f102 0209 	add.w	r2, r2, #9
    1338:	7812      	ldrb	r2, [r2, #0]
    133a:	b2d2      	uxtb	r2, r2
    133c:	701a      	strb	r2, [r3, #0]
    133e:	7ffb      	ldrb	r3, [r7, #31]
    1340:	7dfa      	ldrb	r2, [r7, #23]
    1342:	fb02 f303 	mul.w	r3, r2, r3
    1346:	f103 0303 	add.w	r3, r3, #3
    134a:	68ba      	ldr	r2, [r7, #8]
    134c:	18d3      	adds	r3, r2, r3
    134e:	68fa      	ldr	r2, [r7, #12]
    1350:	6812      	ldr	r2, [r2, #0]
    1352:	f102 0208 	add.w	r2, r2, #8
    1356:	7812      	ldrb	r2, [r2, #0]
    1358:	b2d2      	uxtb	r2, r2
    135a:	701a      	strb	r2, [r3, #0]
    135c:	7ffb      	ldrb	r3, [r7, #31]
    135e:	f103 0301 	add.w	r3, r3, #1
    1362:	77fb      	strb	r3, [r7, #31]
    1364:	7ffb      	ldrb	r3, [r7, #31]
    1366:	2b0f      	cmp	r3, #15
    1368:	d9b1      	bls.n	12ce <FlashReadOnce+0x26>
    136a:	e000      	b.n	136e <FlashReadOnce+0xc6>
    136c:	bf00      	nop
    136e:	69bb      	ldr	r3, [r7, #24]
    1370:	4618      	mov	r0, r3
    1372:	f107 0720 	add.w	r7, r7, #32
    1376:	46bd      	mov	sp, r7
    1378:	bd80      	pop	{r7, pc}
    137a:	bf00      	nop

0000137c <FlashReadResource>:
    137c:	b580      	push	{r7, lr}
    137e:	b088      	sub	sp, #32
    1380:	af00      	add	r7, sp, #0
    1382:	60f8      	str	r0, [r7, #12]
    1384:	60b9      	str	r1, [r7, #8]
    1386:	607a      	str	r2, [r7, #4]
    1388:	603b      	str	r3, [r7, #0]
    138a:	f04f 0300 	mov.w	r3, #0
    138e:	61fb      	str	r3, [r7, #28]
    1390:	68bb      	ldr	r3, [r7, #8]
    1392:	f003 0303 	and.w	r3, r3, #3
    1396:	2b00      	cmp	r3, #0
    1398:	d003      	beq.n	13a2 <FlashReadResource+0x26>
    139a:	f44f 7380 	mov.w	r3, #256	; 0x100
    139e:	61fb      	str	r3, [r7, #28]
    13a0:	e06e      	b.n	1480 <FlashReadResource+0x104>
    13a2:	68fb      	ldr	r3, [r7, #12]
    13a4:	685a      	ldr	r2, [r3, #4]
    13a6:	68bb      	ldr	r3, [r7, #8]
    13a8:	429a      	cmp	r2, r3
    13aa:	d806      	bhi.n	13ba <FlashReadResource+0x3e>
    13ac:	68fb      	ldr	r3, [r7, #12]
    13ae:	685b      	ldr	r3, [r3, #4]
    13b0:	f503 7280 	add.w	r2, r3, #256	; 0x100
    13b4:	68bb      	ldr	r3, [r7, #8]
    13b6:	429a      	cmp	r2, r3
    13b8:	d817      	bhi.n	13ea <FlashReadResource+0x6e>
    13ba:	68fb      	ldr	r3, [r7, #12]
    13bc:	68da      	ldr	r2, [r3, #12]
    13be:	68bb      	ldr	r3, [r7, #8]
    13c0:	429a      	cmp	r2, r3
    13c2:	d806      	bhi.n	13d2 <FlashReadResource+0x56>
    13c4:	68fb      	ldr	r3, [r7, #12]
    13c6:	68db      	ldr	r3, [r3, #12]
    13c8:	f503 7280 	add.w	r2, r3, #256	; 0x100
    13cc:	68bb      	ldr	r3, [r7, #8]
    13ce:	429a      	cmp	r2, r3
    13d0:	d803      	bhi.n	13da <FlashReadResource+0x5e>
    13d2:	f04f 0302 	mov.w	r3, #2
    13d6:	61fb      	str	r3, [r7, #28]
    13d8:	e052      	b.n	1480 <FlashReadResource+0x104>
    13da:	68fb      	ldr	r3, [r7, #12]
    13dc:	68db      	ldr	r3, [r3, #12]
    13de:	68ba      	ldr	r2, [r7, #8]
    13e0:	1ad3      	subs	r3, r2, r3
    13e2:	f503 0300 	add.w	r3, r3, #8388608	; 0x800000
    13e6:	60bb      	str	r3, [r7, #8]
    13e8:	e004      	b.n	13f4 <FlashReadResource+0x78>
    13ea:	68fb      	ldr	r3, [r7, #12]
    13ec:	685b      	ldr	r3, [r3, #4]
    13ee:	68ba      	ldr	r2, [r7, #8]
    13f0:	1ad3      	subs	r3, r2, r3
    13f2:	60bb      	str	r3, [r7, #8]
    13f4:	f04f 0303 	mov.w	r3, #3
    13f8:	743b      	strb	r3, [r7, #16]
    13fa:	68bb      	ldr	r3, [r7, #8]
    13fc:	ea4f 4313 	mov.w	r3, r3, lsr #16
    1400:	b2db      	uxtb	r3, r3
    1402:	747b      	strb	r3, [r7, #17]
    1404:	68bb      	ldr	r3, [r7, #8]
    1406:	ea4f 2313 	mov.w	r3, r3, lsr #8
    140a:	b2db      	uxtb	r3, r3
    140c:	74bb      	strb	r3, [r7, #18]
    140e:	68bb      	ldr	r3, [r7, #8]
    1410:	b2db      	uxtb	r3, r3
    1412:	74fb      	strb	r3, [r7, #19]
    1414:	f04f 0300 	mov.w	r3, #0
    1418:	763b      	strb	r3, [r7, #24]
    141a:	f107 0210 	add.w	r2, r7, #16
    141e:	683b      	ldr	r3, [r7, #0]
    1420:	68f8      	ldr	r0, [r7, #12]
    1422:	f04f 0108 	mov.w	r1, #8
    1426:	4798      	blx	r3
    1428:	61f8      	str	r0, [r7, #28]
    142a:	69fb      	ldr	r3, [r7, #28]
    142c:	2b00      	cmp	r3, #0
    142e:	d126      	bne.n	147e <FlashReadResource+0x102>
    1430:	68fb      	ldr	r3, [r7, #12]
    1432:	681b      	ldr	r3, [r3, #0]
    1434:	f103 030b 	add.w	r3, r3, #11
    1438:	781b      	ldrb	r3, [r3, #0]
    143a:	b2da      	uxtb	r2, r3
    143c:	687b      	ldr	r3, [r7, #4]
    143e:	701a      	strb	r2, [r3, #0]
    1440:	687b      	ldr	r3, [r7, #4]
    1442:	f103 0301 	add.w	r3, r3, #1
    1446:	68fa      	ldr	r2, [r7, #12]
    1448:	6812      	ldr	r2, [r2, #0]
    144a:	f102 020a 	add.w	r2, r2, #10
    144e:	7812      	ldrb	r2, [r2, #0]
    1450:	b2d2      	uxtb	r2, r2
    1452:	701a      	strb	r2, [r3, #0]
    1454:	687b      	ldr	r3, [r7, #4]
    1456:	f103 0302 	add.w	r3, r3, #2
    145a:	68fa      	ldr	r2, [r7, #12]
    145c:	6812      	ldr	r2, [r2, #0]
    145e:	f102 0209 	add.w	r2, r2, #9
    1462:	7812      	ldrb	r2, [r2, #0]
    1464:	b2d2      	uxtb	r2, r2
    1466:	701a      	strb	r2, [r3, #0]
    1468:	687b      	ldr	r3, [r7, #4]
    146a:	f103 0303 	add.w	r3, r3, #3
    146e:	68fa      	ldr	r2, [r7, #12]
    1470:	6812      	ldr	r2, [r2, #0]
    1472:	f102 0208 	add.w	r2, r2, #8
    1476:	7812      	ldrb	r2, [r2, #0]
    1478:	b2d2      	uxtb	r2, r2
    147a:	701a      	strb	r2, [r3, #0]
    147c:	e000      	b.n	1480 <FlashReadResource+0x104>
    147e:	bf00      	nop
    1480:	69fb      	ldr	r3, [r7, #28]
    1482:	4618      	mov	r0, r3
    1484:	f107 0720 	add.w	r7, r7, #32
    1488:	46bd      	mov	sp, r7
    148a:	bd80      	pop	{r7, pc}

0000148c <FlashSecurityBypass>:
    148c:	b580      	push	{r7, lr}
    148e:	b08a      	sub	sp, #40	; 0x28
    1490:	af00      	add	r7, sp, #0
    1492:	60f8      	str	r0, [r7, #12]
    1494:	60b9      	str	r1, [r7, #8]
    1496:	607a      	str	r2, [r7, #4]
    1498:	f04f 0300 	mov.w	r3, #0
    149c:	627b      	str	r3, [r7, #36]	; 0x24
    149e:	68fb      	ldr	r3, [r7, #12]
    14a0:	681b      	ldr	r3, [r3, #0]
    14a2:	f103 0302 	add.w	r3, r3, #2
    14a6:	781b      	ldrb	r3, [r3, #0]
    14a8:	f887 3023 	strb.w	r3, [r7, #35]	; 0x23
    14ac:	f897 3023 	ldrb.w	r3, [r7, #35]	; 0x23
    14b0:	f003 0303 	and.w	r3, r3, #3
    14b4:	2b02      	cmp	r3, #2
    14b6:	d022      	beq.n	14fe <FlashSecurityBypass+0x72>
    14b8:	f04f 0345 	mov.w	r3, #69	; 0x45
    14bc:	753b      	strb	r3, [r7, #20]
    14be:	68bb      	ldr	r3, [r7, #8]
    14c0:	781b      	ldrb	r3, [r3, #0]
    14c2:	763b      	strb	r3, [r7, #24]
    14c4:	68bb      	ldr	r3, [r7, #8]
    14c6:	785b      	ldrb	r3, [r3, #1]
    14c8:	767b      	strb	r3, [r7, #25]
    14ca:	68bb      	ldr	r3, [r7, #8]
    14cc:	789b      	ldrb	r3, [r3, #2]
    14ce:	76bb      	strb	r3, [r7, #26]
    14d0:	68bb      	ldr	r3, [r7, #8]
    14d2:	78db      	ldrb	r3, [r3, #3]
    14d4:	76fb      	strb	r3, [r7, #27]
    14d6:	68bb      	ldr	r3, [r7, #8]
    14d8:	791b      	ldrb	r3, [r3, #4]
    14da:	773b      	strb	r3, [r7, #28]
    14dc:	68bb      	ldr	r3, [r7, #8]
    14de:	795b      	ldrb	r3, [r3, #5]
    14e0:	777b      	strb	r3, [r7, #29]
    14e2:	68bb      	ldr	r3, [r7, #8]
    14e4:	799b      	ldrb	r3, [r3, #6]
    14e6:	77bb      	strb	r3, [r7, #30]
    14e8:	68bb      	ldr	r3, [r7, #8]
    14ea:	79db      	ldrb	r3, [r3, #7]
    14ec:	77fb      	strb	r3, [r7, #31]
    14ee:	f107 0214 	add.w	r2, r7, #20
    14f2:	687b      	ldr	r3, [r7, #4]
    14f4:	68f8      	ldr	r0, [r7, #12]
    14f6:	f04f 010b 	mov.w	r1, #11
    14fa:	4798      	blx	r3
    14fc:	6278      	str	r0, [r7, #36]	; 0x24
    14fe:	6a7b      	ldr	r3, [r7, #36]	; 0x24
    1500:	4618      	mov	r0, r3
    1502:	f107 0728 	add.w	r7, r7, #40	; 0x28
    1506:	46bd      	mov	sp, r7
    1508:	bd80      	pop	{r7, pc}
    150a:	bf00      	nop

0000150c <FlashSetInterruptEnable>:
    150c:	b480      	push	{r7}
    150e:	b085      	sub	sp, #20
    1510:	af00      	add	r7, sp, #0
    1512:	6078      	str	r0, [r7, #4]
    1514:	460b      	mov	r3, r1
    1516:	70fb      	strb	r3, [r7, #3]
    1518:	78fb      	ldrb	r3, [r7, #3]
    151a:	f023 033f 	bic.w	r3, r3, #63	; 0x3f
    151e:	70fb      	strb	r3, [r7, #3]
    1520:	687b      	ldr	r3, [r7, #4]
    1522:	681b      	ldr	r3, [r3, #0]
    1524:	f103 0301 	add.w	r3, r3, #1
    1528:	781b      	ldrb	r3, [r3, #0]
    152a:	73fb      	strb	r3, [r7, #15]
    152c:	7bfb      	ldrb	r3, [r7, #15]
    152e:	f003 033f 	and.w	r3, r3, #63	; 0x3f
    1532:	73fb      	strb	r3, [r7, #15]
    1534:	7bfa      	ldrb	r2, [r7, #15]
    1536:	78fb      	ldrb	r3, [r7, #3]
    1538:	4313      	orrs	r3, r2
    153a:	73fb      	strb	r3, [r7, #15]
    153c:	687b      	ldr	r3, [r7, #4]
    153e:	681b      	ldr	r3, [r3, #0]
    1540:	f103 0301 	add.w	r3, r3, #1
    1544:	7bfa      	ldrb	r2, [r7, #15]
    1546:	701a      	strb	r2, [r3, #0]
    1548:	f04f 0300 	mov.w	r3, #0
    154c:	4618      	mov	r0, r3
    154e:	f107 0714 	add.w	r7, r7, #20
    1552:	46bd      	mov	sp, r7
    1554:	bc80      	pop	{r7}
    1556:	4770      	bx	lr

00001558 <FlashVerifyAllBlock>:
    1558:	b580      	push	{r7, lr}
    155a:	b086      	sub	sp, #24
    155c:	af00      	add	r7, sp, #0
    155e:	60f8      	str	r0, [r7, #12]
    1560:	460b      	mov	r3, r1
    1562:	607a      	str	r2, [r7, #4]
    1564:	72fb      	strb	r3, [r7, #11]
    1566:	f04f 0300 	mov.w	r3, #0
    156a:	617b      	str	r3, [r7, #20]
    156c:	f04f 0340 	mov.w	r3, #64	; 0x40
    1570:	743b      	strb	r3, [r7, #16]
    1572:	7afb      	ldrb	r3, [r7, #11]
    1574:	747b      	strb	r3, [r7, #17]
    1576:	f107 0210 	add.w	r2, r7, #16
    157a:	687b      	ldr	r3, [r7, #4]
    157c:	68f8      	ldr	r0, [r7, #12]
    157e:	f04f 0101 	mov.w	r1, #1
    1582:	4798      	blx	r3
    1584:	6178      	str	r0, [r7, #20]
    1586:	697b      	ldr	r3, [r7, #20]
    1588:	4618      	mov	r0, r3
    158a:	f107 0718 	add.w	r7, r7, #24
    158e:	46bd      	mov	sp, r7
    1590:	bd80      	pop	{r7, pc}
    1592:	bf00      	nop

00001594 <FlashVerifyBlock>:
    1594:	b580      	push	{r7, lr}
    1596:	b088      	sub	sp, #32
    1598:	af00      	add	r7, sp, #0
    159a:	60f8      	str	r0, [r7, #12]
    159c:	60b9      	str	r1, [r7, #8]
    159e:	603b      	str	r3, [r7, #0]
    15a0:	4613      	mov	r3, r2
    15a2:	71fb      	strb	r3, [r7, #7]
    15a4:	f04f 0300 	mov.w	r3, #0
    15a8:	61fb      	str	r3, [r7, #28]
    15aa:	68bb      	ldr	r3, [r7, #8]
    15ac:	f003 0303 	and.w	r3, r3, #3
    15b0:	2b00      	cmp	r3, #0
    15b2:	d003      	beq.n	15bc <FlashVerifyBlock+0x28>
    15b4:	f44f 7380 	mov.w	r3, #256	; 0x100
    15b8:	61fb      	str	r3, [r7, #28]
    15ba:	e044      	b.n	1646 <FlashVerifyBlock+0xb2>
    15bc:	68fb      	ldr	r3, [r7, #12]
    15be:	685a      	ldr	r2, [r3, #4]
    15c0:	68bb      	ldr	r3, [r7, #8]
    15c2:	429a      	cmp	r2, r3
    15c4:	d807      	bhi.n	15d6 <FlashVerifyBlock+0x42>
    15c6:	68fb      	ldr	r3, [r7, #12]
    15c8:	685a      	ldr	r2, [r3, #4]
    15ca:	68fb      	ldr	r3, [r7, #12]
    15cc:	689b      	ldr	r3, [r3, #8]
    15ce:	18d2      	adds	r2, r2, r3
    15d0:	68bb      	ldr	r3, [r7, #8]
    15d2:	429a      	cmp	r2, r3
    15d4:	d818      	bhi.n	1608 <FlashVerifyBlock+0x74>
    15d6:	68fb      	ldr	r3, [r7, #12]
    15d8:	68da      	ldr	r2, [r3, #12]
    15da:	68bb      	ldr	r3, [r7, #8]
    15dc:	429a      	cmp	r2, r3
    15de:	d807      	bhi.n	15f0 <FlashVerifyBlock+0x5c>
    15e0:	68fb      	ldr	r3, [r7, #12]
    15e2:	68da      	ldr	r2, [r3, #12]
    15e4:	68fb      	ldr	r3, [r7, #12]
    15e6:	691b      	ldr	r3, [r3, #16]
    15e8:	18d2      	adds	r2, r2, r3
    15ea:	68bb      	ldr	r3, [r7, #8]
    15ec:	429a      	cmp	r2, r3
    15ee:	d803      	bhi.n	15f8 <FlashVerifyBlock+0x64>
    15f0:	f04f 0302 	mov.w	r3, #2
    15f4:	61fb      	str	r3, [r7, #28]
    15f6:	e026      	b.n	1646 <FlashVerifyBlock+0xb2>
    15f8:	68fb      	ldr	r3, [r7, #12]
    15fa:	68db      	ldr	r3, [r3, #12]
    15fc:	68ba      	ldr	r2, [r7, #8]
    15fe:	1ad3      	subs	r3, r2, r3
    1600:	f503 0300 	add.w	r3, r3, #8388608	; 0x800000
    1604:	60bb      	str	r3, [r7, #8]
    1606:	e004      	b.n	1612 <FlashVerifyBlock+0x7e>
    1608:	68fb      	ldr	r3, [r7, #12]
    160a:	685b      	ldr	r3, [r3, #4]
    160c:	68ba      	ldr	r2, [r7, #8]
    160e:	1ad3      	subs	r3, r2, r3
    1610:	60bb      	str	r3, [r7, #8]
    1612:	f04f 0300 	mov.w	r3, #0
    1616:	753b      	strb	r3, [r7, #20]
    1618:	68bb      	ldr	r3, [r7, #8]
    161a:	ea4f 4313 	mov.w	r3, r3, lsr #16
    161e:	b2db      	uxtb	r3, r3
    1620:	757b      	strb	r3, [r7, #21]
    1622:	68bb      	ldr	r3, [r7, #8]
    1624:	ea4f 2313 	mov.w	r3, r3, lsr #8
    1628:	b2db      	uxtb	r3, r3
    162a:	75bb      	strb	r3, [r7, #22]
    162c:	68bb      	ldr	r3, [r7, #8]
    162e:	b2db      	uxtb	r3, r3
    1630:	75fb      	strb	r3, [r7, #23]
    1632:	79fb      	ldrb	r3, [r7, #7]
    1634:	763b      	strb	r3, [r7, #24]
    1636:	f107 0214 	add.w	r2, r7, #20
    163a:	683b      	ldr	r3, [r7, #0]
    163c:	68f8      	ldr	r0, [r7, #12]
    163e:	f04f 0104 	mov.w	r1, #4
    1642:	4798      	blx	r3
    1644:	61f8      	str	r0, [r7, #28]
    1646:	69fb      	ldr	r3, [r7, #28]
    1648:	4618      	mov	r0, r3
    164a:	f107 0720 	add.w	r7, r7, #32
    164e:	46bd      	mov	sp, r7
    1650:	bd80      	pop	{r7, pc}
    1652:	bf00      	nop

00001654 <FlashVerifySection>:
    1654:	b580      	push	{r7, lr}
    1656:	b08a      	sub	sp, #40	; 0x28
    1658:	af00      	add	r7, sp, #0
    165a:	60f8      	str	r0, [r7, #12]
    165c:	60b9      	str	r1, [r7, #8]
    165e:	80fa      	strh	r2, [r7, #6]
    1660:	717b      	strb	r3, [r7, #5]
    1662:	f04f 0300 	mov.w	r3, #0
    1666:	627b      	str	r3, [r7, #36]	; 0x24
    1668:	68fb      	ldr	r3, [r7, #12]
    166a:	685a      	ldr	r2, [r3, #4]
    166c:	68bb      	ldr	r3, [r7, #8]
    166e:	429a      	cmp	r2, r3
    1670:	d80f      	bhi.n	1692 <FlashVerifySection+0x3e>
    1672:	68fb      	ldr	r3, [r7, #12]
    1674:	685a      	ldr	r2, [r3, #4]
    1676:	68fb      	ldr	r3, [r7, #12]
    1678:	689b      	ldr	r3, [r3, #8]
    167a:	18d2      	adds	r2, r2, r3
    167c:	68bb      	ldr	r3, [r7, #8]
    167e:	429a      	cmp	r2, r3
    1680:	d907      	bls.n	1692 <FlashVerifySection+0x3e>
    1682:	88fb      	ldrh	r3, [r7, #6]
    1684:	ea4f 03c3 	mov.w	r3, r3, lsl #3
    1688:	461a      	mov	r2, r3
    168a:	68bb      	ldr	r3, [r7, #8]
    168c:	18d3      	adds	r3, r2, r3
    168e:	623b      	str	r3, [r7, #32]
    1690:	e018      	b.n	16c4 <FlashVerifySection+0x70>
    1692:	68fb      	ldr	r3, [r7, #12]
    1694:	68da      	ldr	r2, [r3, #12]
    1696:	68bb      	ldr	r3, [r7, #8]
    1698:	429a      	cmp	r2, r3
    169a:	d80f      	bhi.n	16bc <FlashVerifySection+0x68>
    169c:	68fb      	ldr	r3, [r7, #12]
    169e:	68da      	ldr	r2, [r3, #12]
    16a0:	68fb      	ldr	r3, [r7, #12]
    16a2:	691b      	ldr	r3, [r3, #16]
    16a4:	18d2      	adds	r2, r2, r3
    16a6:	68bb      	ldr	r3, [r7, #8]
    16a8:	429a      	cmp	r2, r3
    16aa:	d907      	bls.n	16bc <FlashVerifySection+0x68>
    16ac:	88fb      	ldrh	r3, [r7, #6]
    16ae:	ea4f 03c3 	mov.w	r3, r3, lsl #3
    16b2:	461a      	mov	r2, r3
    16b4:	68bb      	ldr	r3, [r7, #8]
    16b6:	18d3      	adds	r3, r2, r3
    16b8:	623b      	str	r3, [r7, #32]
    16ba:	e003      	b.n	16c4 <FlashVerifySection+0x70>
    16bc:	f04f 0302 	mov.w	r3, #2
    16c0:	627b      	str	r3, [r7, #36]	; 0x24
    16c2:	e062      	b.n	178a <FlashVerifySection+0x136>
    16c4:	68fb      	ldr	r3, [r7, #12]
    16c6:	685a      	ldr	r2, [r3, #4]
    16c8:	6a3b      	ldr	r3, [r7, #32]
    16ca:	429a      	cmp	r2, r3
    16cc:	d810      	bhi.n	16f0 <FlashVerifySection+0x9c>
    16ce:	68fb      	ldr	r3, [r7, #12]
    16d0:	685a      	ldr	r2, [r3, #4]
    16d2:	68fb      	ldr	r3, [r7, #12]
    16d4:	689b      	ldr	r3, [r3, #8]
    16d6:	18d2      	adds	r2, r2, r3
    16d8:	6a3b      	ldr	r3, [r7, #32]
    16da:	429a      	cmp	r2, r3
    16dc:	d308      	bcc.n	16f0 <FlashVerifySection+0x9c>
    16de:	68fb      	ldr	r3, [r7, #12]
    16e0:	685b      	ldr	r3, [r3, #4]
    16e2:	68ba      	ldr	r2, [r7, #8]
    16e4:	1ad3      	subs	r3, r2, r3
    16e6:	60bb      	str	r3, [r7, #8]
    16e8:	f04f 0308 	mov.w	r3, #8
    16ec:	61fb      	str	r3, [r7, #28]
    16ee:	e01b      	b.n	1728 <FlashVerifySection+0xd4>
    16f0:	68fb      	ldr	r3, [r7, #12]
    16f2:	68da      	ldr	r2, [r3, #12]
    16f4:	6a3b      	ldr	r3, [r7, #32]
    16f6:	429a      	cmp	r2, r3
    16f8:	d907      	bls.n	170a <FlashVerifySection+0xb6>
    16fa:	68fb      	ldr	r3, [r7, #12]
    16fc:	68da      	ldr	r2, [r3, #12]
    16fe:	68fb      	ldr	r3, [r7, #12]
    1700:	691b      	ldr	r3, [r3, #16]
    1702:	18d2      	adds	r2, r2, r3
    1704:	6a3b      	ldr	r3, [r7, #32]
    1706:	429a      	cmp	r2, r3
    1708:	d30a      	bcc.n	1720 <FlashVerifySection+0xcc>
    170a:	68fb      	ldr	r3, [r7, #12]
    170c:	68db      	ldr	r3, [r3, #12]
    170e:	68ba      	ldr	r2, [r7, #8]
    1710:	1ad3      	subs	r3, r2, r3
    1712:	f503 0300 	add.w	r3, r3, #8388608	; 0x800000
    1716:	60bb      	str	r3, [r7, #8]
    1718:	f04f 0308 	mov.w	r3, #8
    171c:	61fb      	str	r3, [r7, #28]
    171e:	e003      	b.n	1728 <FlashVerifySection+0xd4>
    1720:	f04f 0302 	mov.w	r3, #2
    1724:	627b      	str	r3, [r7, #36]	; 0x24
    1726:	e030      	b.n	178a <FlashVerifySection+0x136>
    1728:	68bb      	ldr	r3, [r7, #8]
    172a:	69fa      	ldr	r2, [r7, #28]
    172c:	fbb3 f2f2 	udiv	r2, r3, r2
    1730:	69f9      	ldr	r1, [r7, #28]
    1732:	fb01 f202 	mul.w	r2, r1, r2
    1736:	1a9b      	subs	r3, r3, r2
    1738:	2b00      	cmp	r3, #0
    173a:	d003      	beq.n	1744 <FlashVerifySection+0xf0>
    173c:	f44f 7380 	mov.w	r3, #256	; 0x100
    1740:	627b      	str	r3, [r7, #36]	; 0x24
    1742:	e022      	b.n	178a <FlashVerifySection+0x136>
    1744:	f04f 0301 	mov.w	r3, #1
    1748:	753b      	strb	r3, [r7, #20]
    174a:	68bb      	ldr	r3, [r7, #8]
    174c:	ea4f 4313 	mov.w	r3, r3, lsr #16
    1750:	b2db      	uxtb	r3, r3
    1752:	757b      	strb	r3, [r7, #21]
    1754:	68bb      	ldr	r3, [r7, #8]
    1756:	ea4f 2313 	mov.w	r3, r3, lsr #8
    175a:	b2db      	uxtb	r3, r3
    175c:	75bb      	strb	r3, [r7, #22]
    175e:	68bb      	ldr	r3, [r7, #8]
    1760:	b2db      	uxtb	r3, r3
    1762:	75fb      	strb	r3, [r7, #23]
    1764:	88fb      	ldrh	r3, [r7, #6]
    1766:	ea4f 2313 	mov.w	r3, r3, lsr #8
    176a:	b29b      	uxth	r3, r3
    176c:	b2db      	uxtb	r3, r3
    176e:	763b      	strb	r3, [r7, #24]
    1770:	88fb      	ldrh	r3, [r7, #6]
    1772:	b2db      	uxtb	r3, r3
    1774:	767b      	strb	r3, [r7, #25]
    1776:	797b      	ldrb	r3, [r7, #5]
    1778:	76bb      	strb	r3, [r7, #26]
    177a:	f107 0214 	add.w	r2, r7, #20
    177e:	6b3b      	ldr	r3, [r7, #48]	; 0x30
    1780:	68f8      	ldr	r0, [r7, #12]
    1782:	f04f 0106 	mov.w	r1, #6
    1786:	4798      	blx	r3
    1788:	6278      	str	r0, [r7, #36]	; 0x24
    178a:	6a7b      	ldr	r3, [r7, #36]	; 0x24
    178c:	4618      	mov	r0, r3
    178e:	f107 0728 	add.w	r7, r7, #40	; 0x28
    1792:	46bd      	mov	sp, r7
    1794:	bd80      	pop	{r7, pc}
    1796:	bf00      	nop

00001798 <PFlashGetProtection>:
    1798:	b480      	push	{r7}
    179a:	b087      	sub	sp, #28
    179c:	af00      	add	r7, sp, #0
    179e:	6078      	str	r0, [r7, #4]
    17a0:	6039      	str	r1, [r7, #0]
    17a2:	687b      	ldr	r3, [r7, #4]
    17a4:	681b      	ldr	r3, [r3, #0]
    17a6:	f103 0313 	add.w	r3, r3, #19
    17aa:	781b      	ldrb	r3, [r3, #0]
    17ac:	b2db      	uxtb	r3, r3
    17ae:	617b      	str	r3, [r7, #20]
    17b0:	687b      	ldr	r3, [r7, #4]
    17b2:	681b      	ldr	r3, [r3, #0]
    17b4:	f103 0312 	add.w	r3, r3, #18
    17b8:	781b      	ldrb	r3, [r3, #0]
    17ba:	b2db      	uxtb	r3, r3
    17bc:	613b      	str	r3, [r7, #16]
    17be:	687b      	ldr	r3, [r7, #4]
    17c0:	681b      	ldr	r3, [r3, #0]
    17c2:	f103 0311 	add.w	r3, r3, #17
    17c6:	781b      	ldrb	r3, [r3, #0]
    17c8:	b2db      	uxtb	r3, r3
    17ca:	60fb      	str	r3, [r7, #12]
    17cc:	687b      	ldr	r3, [r7, #4]
    17ce:	681b      	ldr	r3, [r3, #0]
    17d0:	f103 0310 	add.w	r3, r3, #16
    17d4:	781b      	ldrb	r3, [r3, #0]
    17d6:	b2db      	uxtb	r3, r3
    17d8:	60bb      	str	r3, [r7, #8]
    17da:	697b      	ldr	r3, [r7, #20]
    17dc:	ea4f 6203 	mov.w	r2, r3, lsl #24
    17e0:	693b      	ldr	r3, [r7, #16]
    17e2:	ea4f 4303 	mov.w	r3, r3, lsl #16
    17e6:	431a      	orrs	r2, r3
    17e8:	68fb      	ldr	r3, [r7, #12]
    17ea:	ea4f 2303 	mov.w	r3, r3, lsl #8
    17ee:	431a      	orrs	r2, r3
    17f0:	68bb      	ldr	r3, [r7, #8]
    17f2:	431a      	orrs	r2, r3
    17f4:	683b      	ldr	r3, [r7, #0]
    17f6:	601a      	str	r2, [r3, #0]
    17f8:	f04f 0300 	mov.w	r3, #0
    17fc:	4618      	mov	r0, r3
    17fe:	f107 071c 	add.w	r7, r7, #28
    1802:	46bd      	mov	sp, r7
    1804:	bc80      	pop	{r7}
    1806:	4770      	bx	lr

00001808 <PFlashGetSwapStatus>:
    1808:	b580      	push	{r7, lr}
    180a:	b088      	sub	sp, #32
    180c:	af00      	add	r7, sp, #0
    180e:	60f8      	str	r0, [r7, #12]
    1810:	60b9      	str	r1, [r7, #8]
    1812:	607a      	str	r2, [r7, #4]
    1814:	603b      	str	r3, [r7, #0]
    1816:	f04f 0300 	mov.w	r3, #0
    181a:	61fb      	str	r3, [r7, #28]
    181c:	68ba      	ldr	r2, [r7, #8]
    181e:	f1b2 3fff 	cmp.w	r2, #4294967295
    1822:	bf34      	ite	cc
    1824:	2300      	movcc	r3, #0
    1826:	2301      	movcs	r3, #1
    1828:	f1c3 0300 	rsb	r3, r3, #0
    182c:	1ad3      	subs	r3, r2, r3
    182e:	2b00      	cmp	r3, #0
    1830:	d003      	beq.n	183a <PFlashGetSwapStatus+0x32>
    1832:	f44f 7380 	mov.w	r3, #256	; 0x100
    1836:	61fb      	str	r3, [r7, #28]
    1838:	e065      	b.n	1906 <PFlashGetSwapStatus+0xfe>
    183a:	68fb      	ldr	r3, [r7, #12]
    183c:	685a      	ldr	r2, [r3, #4]
    183e:	68bb      	ldr	r3, [r7, #8]
    1840:	429a      	cmp	r2, r3
    1842:	d809      	bhi.n	1858 <PFlashGetSwapStatus+0x50>
    1844:	68fb      	ldr	r3, [r7, #12]
    1846:	685a      	ldr	r2, [r3, #4]
    1848:	68fb      	ldr	r3, [r7, #12]
    184a:	689b      	ldr	r3, [r3, #8]
    184c:	ea4f 0353 	mov.w	r3, r3, lsr #1
    1850:	18d2      	adds	r2, r2, r3
    1852:	68bb      	ldr	r3, [r7, #8]
    1854:	429a      	cmp	r2, r3
    1856:	d803      	bhi.n	1860 <PFlashGetSwapStatus+0x58>
    1858:	f04f 0302 	mov.w	r3, #2
    185c:	61fb      	str	r3, [r7, #28]
    185e:	e052      	b.n	1906 <PFlashGetSwapStatus+0xfe>
    1860:	68fb      	ldr	r3, [r7, #12]
    1862:	685b      	ldr	r3, [r3, #4]
    1864:	68ba      	ldr	r2, [r7, #8]
    1866:	1ad3      	subs	r3, r2, r3
    1868:	60bb      	str	r3, [r7, #8]
    186a:	68ba      	ldr	r2, [r7, #8]
    186c:	f240 33ff 	movw	r3, #1023	; 0x3ff
    1870:	429a      	cmp	r2, r3
    1872:	d908      	bls.n	1886 <PFlashGetSwapStatus+0x7e>
    1874:	68ba      	ldr	r2, [r7, #8]
    1876:	f240 430f 	movw	r3, #1039	; 0x40f
    187a:	429a      	cmp	r2, r3
    187c:	d803      	bhi.n	1886 <PFlashGetSwapStatus+0x7e>
    187e:	f04f 0302 	mov.w	r3, #2
    1882:	61fb      	str	r3, [r7, #28]
    1884:	e03f      	b.n	1906 <PFlashGetSwapStatus+0xfe>
    1886:	f04f 0346 	mov.w	r3, #70	; 0x46
    188a:	753b      	strb	r3, [r7, #20]
    188c:	68bb      	ldr	r3, [r7, #8]
    188e:	ea4f 4313 	mov.w	r3, r3, lsr #16
    1892:	b2db      	uxtb	r3, r3
    1894:	757b      	strb	r3, [r7, #21]
    1896:	68bb      	ldr	r3, [r7, #8]
    1898:	ea4f 2313 	mov.w	r3, r3, lsr #8
    189c:	b2db      	uxtb	r3, r3
    189e:	75bb      	strb	r3, [r7, #22]
    18a0:	68bb      	ldr	r3, [r7, #8]
    18a2:	b2db      	uxtb	r3, r3
    18a4:	75fb      	strb	r3, [r7, #23]
    18a6:	f04f 0308 	mov.w	r3, #8
    18aa:	763b      	strb	r3, [r7, #24]
    18ac:	f04f 03ff 	mov.w	r3, #255	; 0xff
    18b0:	767b      	strb	r3, [r7, #25]
    18b2:	f04f 03ff 	mov.w	r3, #255	; 0xff
    18b6:	76bb      	strb	r3, [r7, #26]
    18b8:	f04f 03ff 	mov.w	r3, #255	; 0xff
    18bc:	76fb      	strb	r3, [r7, #27]
    18be:	f107 0214 	add.w	r2, r7, #20
    18c2:	6afb      	ldr	r3, [r7, #44]	; 0x2c
    18c4:	68f8      	ldr	r0, [r7, #12]
    18c6:	f04f 0107 	mov.w	r1, #7
    18ca:	4798      	blx	r3
    18cc:	61f8      	str	r0, [r7, #28]
    18ce:	69fb      	ldr	r3, [r7, #28]
    18d0:	2b00      	cmp	r3, #0
    18d2:	d118      	bne.n	1906 <PFlashGetSwapStatus+0xfe>
    18d4:	68fb      	ldr	r3, [r7, #12]
    18d6:	681b      	ldr	r3, [r3, #0]
    18d8:	f103 030a 	add.w	r3, r3, #10
    18dc:	781b      	ldrb	r3, [r3, #0]
    18de:	b2da      	uxtb	r2, r3
    18e0:	687b      	ldr	r3, [r7, #4]
    18e2:	701a      	strb	r2, [r3, #0]
    18e4:	68fb      	ldr	r3, [r7, #12]
    18e6:	681b      	ldr	r3, [r3, #0]
    18e8:	f103 0309 	add.w	r3, r3, #9
    18ec:	781b      	ldrb	r3, [r3, #0]
    18ee:	b2da      	uxtb	r2, r3
    18f0:	683b      	ldr	r3, [r7, #0]
    18f2:	701a      	strb	r2, [r3, #0]
    18f4:	68fb      	ldr	r3, [r7, #12]
    18f6:	681b      	ldr	r3, [r3, #0]
    18f8:	f103 0308 	add.w	r3, r3, #8
    18fc:	781b      	ldrb	r3, [r3, #0]
    18fe:	b2da      	uxtb	r2, r3
    1900:	6abb      	ldr	r3, [r7, #40]	; 0x28
    1902:	701a      	strb	r2, [r3, #0]
    1904:	bf00      	nop
    1906:	69fb      	ldr	r3, [r7, #28]
    1908:	4618      	mov	r0, r3
    190a:	f107 0720 	add.w	r7, r7, #32
    190e:	46bd      	mov	sp, r7
    1910:	bd80      	pop	{r7, pc}
    1912:	bf00      	nop

00001914 <PFlashSetProtection>:
    1914:	b480      	push	{r7}
    1916:	b08b      	sub	sp, #44	; 0x2c
    1918:	af00      	add	r7, sp, #0
    191a:	6078      	str	r0, [r7, #4]
    191c:	6039      	str	r1, [r7, #0]
    191e:	f04f 0300 	mov.w	r3, #0
    1922:	627b      	str	r3, [r7, #36]	; 0x24
    1924:	687b      	ldr	r3, [r7, #4]
    1926:	681b      	ldr	r3, [r3, #0]
    1928:	781b      	ldrb	r3, [r3, #0]
    192a:	b2db      	uxtb	r3, r3
    192c:	b2db      	uxtb	r3, r3
    192e:	b25b      	sxtb	r3, r3
    1930:	2b00      	cmp	r3, #0
    1932:	db03      	blt.n	193c <PFlashSetProtection+0x28>
    1934:	f04f 0320 	mov.w	r3, #32
    1938:	627b      	str	r3, [r7, #36]	; 0x24
    193a:	e0d2      	b.n	1ae2 <PFlashSetProtection+0x1ce>
    193c:	687b      	ldr	r3, [r7, #4]
    193e:	681b      	ldr	r3, [r3, #0]
    1940:	f103 0313 	add.w	r3, r3, #19
    1944:	781b      	ldrb	r3, [r3, #0]
    1946:	b2db      	uxtb	r3, r3
    1948:	623b      	str	r3, [r7, #32]
    194a:	687b      	ldr	r3, [r7, #4]
    194c:	681b      	ldr	r3, [r3, #0]
    194e:	f103 0312 	add.w	r3, r3, #18
    1952:	781b      	ldrb	r3, [r3, #0]
    1954:	b2db      	uxtb	r3, r3
    1956:	61fb      	str	r3, [r7, #28]
    1958:	687b      	ldr	r3, [r7, #4]
    195a:	681b      	ldr	r3, [r3, #0]
    195c:	f103 0311 	add.w	r3, r3, #17
    1960:	781b      	ldrb	r3, [r3, #0]
    1962:	b2db      	uxtb	r3, r3
    1964:	61bb      	str	r3, [r7, #24]
    1966:	687b      	ldr	r3, [r7, #4]
    1968:	681b      	ldr	r3, [r3, #0]
    196a:	f103 0310 	add.w	r3, r3, #16
    196e:	781b      	ldrb	r3, [r3, #0]
    1970:	b2db      	uxtb	r3, r3
    1972:	617b      	str	r3, [r7, #20]
    1974:	6a3b      	ldr	r3, [r7, #32]
    1976:	ea4f 6203 	mov.w	r2, r3, lsl #24
    197a:	69fb      	ldr	r3, [r7, #28]
    197c:	ea4f 4303 	mov.w	r3, r3, lsl #16
    1980:	431a      	orrs	r2, r3
    1982:	69bb      	ldr	r3, [r7, #24]
    1984:	ea4f 2303 	mov.w	r3, r3, lsl #8
    1988:	431a      	orrs	r2, r3
    198a:	697b      	ldr	r3, [r7, #20]
    198c:	4313      	orrs	r3, r2
    198e:	613b      	str	r3, [r7, #16]
    1990:	687b      	ldr	r3, [r7, #4]
    1992:	681b      	ldr	r3, [r3, #0]
    1994:	f103 0313 	add.w	r3, r3, #19
    1998:	f04f 02ff 	mov.w	r2, #255	; 0xff
    199c:	701a      	strb	r2, [r3, #0]
    199e:	687b      	ldr	r3, [r7, #4]
    19a0:	681b      	ldr	r3, [r3, #0]
    19a2:	f103 0312 	add.w	r3, r3, #18
    19a6:	f04f 02ff 	mov.w	r2, #255	; 0xff
    19aa:	701a      	strb	r2, [r3, #0]
    19ac:	687b      	ldr	r3, [r7, #4]
    19ae:	681b      	ldr	r3, [r3, #0]
    19b0:	f103 0311 	add.w	r3, r3, #17
    19b4:	f04f 02ff 	mov.w	r2, #255	; 0xff
    19b8:	701a      	strb	r2, [r3, #0]
    19ba:	687b      	ldr	r3, [r7, #4]
    19bc:	681b      	ldr	r3, [r3, #0]
    19be:	f103 0310 	add.w	r3, r3, #16
    19c2:	f04f 02ff 	mov.w	r2, #255	; 0xff
    19c6:	701a      	strb	r2, [r3, #0]
    19c8:	687b      	ldr	r3, [r7, #4]
    19ca:	681b      	ldr	r3, [r3, #0]
    19cc:	f103 0313 	add.w	r3, r3, #19
    19d0:	781b      	ldrb	r3, [r3, #0]
    19d2:	b2db      	uxtb	r3, r3
    19d4:	623b      	str	r3, [r7, #32]
    19d6:	687b      	ldr	r3, [r7, #4]
    19d8:	681b      	ldr	r3, [r3, #0]
    19da:	f103 0312 	add.w	r3, r3, #18
    19de:	781b      	ldrb	r3, [r3, #0]
    19e0:	b2db      	uxtb	r3, r3
    19e2:	61fb      	str	r3, [r7, #28]
    19e4:	687b      	ldr	r3, [r7, #4]
    19e6:	681b      	ldr	r3, [r3, #0]
    19e8:	f103 0311 	add.w	r3, r3, #17
    19ec:	781b      	ldrb	r3, [r3, #0]
    19ee:	b2db      	uxtb	r3, r3
    19f0:	61bb      	str	r3, [r7, #24]
    19f2:	687b      	ldr	r3, [r7, #4]
    19f4:	681b      	ldr	r3, [r3, #0]
    19f6:	f103 0310 	add.w	r3, r3, #16
    19fa:	781b      	ldrb	r3, [r3, #0]
    19fc:	b2db      	uxtb	r3, r3
    19fe:	617b      	str	r3, [r7, #20]
    1a00:	6a3b      	ldr	r3, [r7, #32]
    1a02:	2bff      	cmp	r3, #255	; 0xff
    1a04:	bf0c      	ite	eq
    1a06:	2300      	moveq	r3, #0
    1a08:	2301      	movne	r3, #1
    1a0a:	b2da      	uxtb	r2, r3
    1a0c:	69fb      	ldr	r3, [r7, #28]
    1a0e:	2bff      	cmp	r3, #255	; 0xff
    1a10:	bf0c      	ite	eq
    1a12:	2300      	moveq	r3, #0
    1a14:	2301      	movne	r3, #1
    1a16:	b2db      	uxtb	r3, r3
    1a18:	4313      	orrs	r3, r2
    1a1a:	b2db      	uxtb	r3, r3
    1a1c:	461a      	mov	r2, r3
    1a1e:	69bb      	ldr	r3, [r7, #24]
    1a20:	2bff      	cmp	r3, #255	; 0xff
    1a22:	bf0c      	ite	eq
    1a24:	2300      	moveq	r3, #0
    1a26:	2301      	movne	r3, #1
    1a28:	b2db      	uxtb	r3, r3
    1a2a:	431a      	orrs	r2, r3
    1a2c:	697b      	ldr	r3, [r7, #20]
    1a2e:	2bff      	cmp	r3, #255	; 0xff
    1a30:	bf0c      	ite	eq
    1a32:	2300      	moveq	r3, #0
    1a34:	2301      	movne	r3, #1
    1a36:	b2db      	uxtb	r3, r3
    1a38:	4313      	orrs	r3, r2
    1a3a:	2b00      	cmp	r3, #0
    1a3c:	d02f      	beq.n	1a9e <PFlashSetProtection+0x18a>
    1a3e:	683a      	ldr	r2, [r7, #0]
    1a40:	693b      	ldr	r3, [r7, #16]
    1a42:	4053      	eors	r3, r2
    1a44:	60fb      	str	r3, [r7, #12]
    1a46:	68fa      	ldr	r2, [r7, #12]
    1a48:	683b      	ldr	r3, [r7, #0]
    1a4a:	4013      	ands	r3, r2
    1a4c:	2b00      	cmp	r3, #0
    1a4e:	d122      	bne.n	1a96 <PFlashSetProtection+0x182>
    1a50:	687b      	ldr	r3, [r7, #4]
    1a52:	681b      	ldr	r3, [r3, #0]
    1a54:	f103 0313 	add.w	r3, r3, #19
    1a58:	683a      	ldr	r2, [r7, #0]
    1a5a:	ea4f 6212 	mov.w	r2, r2, lsr #24
    1a5e:	b2d2      	uxtb	r2, r2
    1a60:	701a      	strb	r2, [r3, #0]
    1a62:	687b      	ldr	r3, [r7, #4]
    1a64:	681b      	ldr	r3, [r3, #0]
    1a66:	f103 0312 	add.w	r3, r3, #18
    1a6a:	683a      	ldr	r2, [r7, #0]
    1a6c:	ea4f 4212 	mov.w	r2, r2, lsr #16
    1a70:	b2d2      	uxtb	r2, r2
    1a72:	701a      	strb	r2, [r3, #0]
    1a74:	687b      	ldr	r3, [r7, #4]
    1a76:	681b      	ldr	r3, [r3, #0]
    1a78:	f103 0311 	add.w	r3, r3, #17
    1a7c:	683a      	ldr	r2, [r7, #0]
    1a7e:	ea4f 2212 	mov.w	r2, r2, lsr #8
    1a82:	b2d2      	uxtb	r2, r2
    1a84:	701a      	strb	r2, [r3, #0]
    1a86:	687b      	ldr	r3, [r7, #4]
    1a88:	681b      	ldr	r3, [r3, #0]
    1a8a:	f103 0310 	add.w	r3, r3, #16
    1a8e:	683a      	ldr	r2, [r7, #0]
    1a90:	b2d2      	uxtb	r2, r2
    1a92:	701a      	strb	r2, [r3, #0]
    1a94:	e025      	b.n	1ae2 <PFlashSetProtection+0x1ce>
    1a96:	f04f 0320 	mov.w	r3, #32
    1a9a:	627b      	str	r3, [r7, #36]	; 0x24
    1a9c:	e021      	b.n	1ae2 <PFlashSetProtection+0x1ce>
    1a9e:	687b      	ldr	r3, [r7, #4]
    1aa0:	681b      	ldr	r3, [r3, #0]
    1aa2:	f103 0313 	add.w	r3, r3, #19
    1aa6:	683a      	ldr	r2, [r7, #0]
    1aa8:	ea4f 6212 	mov.w	r2, r2, lsr #24
    1aac:	b2d2      	uxtb	r2, r2
    1aae:	701a      	strb	r2, [r3, #0]
    1ab0:	687b      	ldr	r3, [r7, #4]
    1ab2:	681b      	ldr	r3, [r3, #0]
    1ab4:	f103 0312 	add.w	r3, r3, #18
    1ab8:	683a      	ldr	r2, [r7, #0]
    1aba:	ea4f 4212 	mov.w	r2, r2, lsr #16
    1abe:	b2d2      	uxtb	r2, r2
    1ac0:	701a      	strb	r2, [r3, #0]
    1ac2:	687b      	ldr	r3, [r7, #4]
    1ac4:	681b      	ldr	r3, [r3, #0]
    1ac6:	f103 0311 	add.w	r3, r3, #17
    1aca:	683a      	ldr	r2, [r7, #0]
    1acc:	ea4f 2212 	mov.w	r2, r2, lsr #8
    1ad0:	b2d2      	uxtb	r2, r2
    1ad2:	701a      	strb	r2, [r3, #0]
    1ad4:	687b      	ldr	r3, [r7, #4]
    1ad6:	681b      	ldr	r3, [r3, #0]
    1ad8:	f103 0310 	add.w	r3, r3, #16
    1adc:	683a      	ldr	r2, [r7, #0]
    1ade:	b2d2      	uxtb	r2, r2
    1ae0:	701a      	strb	r2, [r3, #0]
    1ae2:	6a7b      	ldr	r3, [r7, #36]	; 0x24
    1ae4:	4618      	mov	r0, r3
    1ae6:	f107 072c 	add.w	r7, r7, #44	; 0x2c
    1aea:	46bd      	mov	sp, r7
    1aec:	bc80      	pop	{r7}
    1aee:	4770      	bx	lr

00001af0 <PFlashSwap>:
    1af0:	b580      	push	{r7, lr}
    1af2:	b086      	sub	sp, #24
    1af4:	af00      	add	r7, sp, #0
    1af6:	60f8      	str	r0, [r7, #12]
    1af8:	60b9      	str	r1, [r7, #8]
    1afa:	607a      	str	r2, [r7, #4]
    1afc:	f04f 03ff 	mov.w	r3, #255	; 0xff
    1b00:	74fb      	strb	r3, [r7, #19]
    1b02:	f04f 0300 	mov.w	r3, #0
    1b06:	617b      	str	r3, [r7, #20]
    1b08:	68ba      	ldr	r2, [r7, #8]
    1b0a:	f1b2 3fff 	cmp.w	r2, #4294967295
    1b0e:	bf34      	ite	cc
    1b10:	2300      	movcc	r3, #0
    1b12:	2301      	movcs	r3, #1
    1b14:	f1c3 0300 	rsb	r3, r3, #0
    1b18:	1ad3      	subs	r3, r2, r3
    1b1a:	2b00      	cmp	r3, #0
    1b1c:	d003      	beq.n	1b26 <PFlashSwap+0x36>
    1b1e:	f44f 7380 	mov.w	r3, #256	; 0x100
    1b22:	617b      	str	r3, [r7, #20]
    1b24:	e09d      	b.n	1c62 <PFlashSwap+0x172>
    1b26:	68fb      	ldr	r3, [r7, #12]
    1b28:	685a      	ldr	r2, [r3, #4]
    1b2a:	68bb      	ldr	r3, [r7, #8]
    1b2c:	429a      	cmp	r2, r3
    1b2e:	d809      	bhi.n	1b44 <PFlashSwap+0x54>
    1b30:	68fb      	ldr	r3, [r7, #12]
    1b32:	685a      	ldr	r2, [r3, #4]
    1b34:	68fb      	ldr	r3, [r7, #12]
    1b36:	689b      	ldr	r3, [r3, #8]
    1b38:	ea4f 0353 	mov.w	r3, r3, lsr #1
    1b3c:	18d2      	adds	r2, r2, r3
    1b3e:	68bb      	ldr	r3, [r7, #8]
    1b40:	429a      	cmp	r2, r3
    1b42:	d803      	bhi.n	1b4c <PFlashSwap+0x5c>
    1b44:	f04f 0302 	mov.w	r3, #2
    1b48:	617b      	str	r3, [r7, #20]
    1b4a:	e08a      	b.n	1c62 <PFlashSwap+0x172>
    1b4c:	68fb      	ldr	r3, [r7, #12]
    1b4e:	685b      	ldr	r3, [r3, #4]
    1b50:	68ba      	ldr	r2, [r7, #8]
    1b52:	1ad3      	subs	r3, r2, r3
    1b54:	60bb      	str	r3, [r7, #8]
    1b56:	68ba      	ldr	r2, [r7, #8]
    1b58:	f240 33ff 	movw	r3, #1023	; 0x3ff
    1b5c:	429a      	cmp	r2, r3
    1b5e:	d908      	bls.n	1b72 <PFlashSwap+0x82>
    1b60:	68ba      	ldr	r2, [r7, #8]
    1b62:	f240 430f 	movw	r3, #1039	; 0x40f
    1b66:	429a      	cmp	r2, r3
    1b68:	d803      	bhi.n	1b72 <PFlashSwap+0x82>
    1b6a:	f04f 0302 	mov.w	r3, #2
    1b6e:	617b      	str	r3, [r7, #20]
    1b70:	e077      	b.n	1c62 <PFlashSwap+0x172>
    1b72:	68f8      	ldr	r0, [r7, #12]
    1b74:	68b9      	ldr	r1, [r7, #8]
    1b76:	f04f 0208 	mov.w	r2, #8
    1b7a:	687b      	ldr	r3, [r7, #4]
    1b7c:	f000 f878 	bl	1c70 <_PFlashSwapCtl>
    1b80:	6178      	str	r0, [r7, #20]
    1b82:	697b      	ldr	r3, [r7, #20]
    1b84:	2b00      	cmp	r3, #0
    1b86:	d163      	bne.n	1c50 <PFlashSwap+0x160>
    1b88:	68fb      	ldr	r3, [r7, #12]
    1b8a:	681b      	ldr	r3, [r3, #0]
    1b8c:	f103 030a 	add.w	r3, r3, #10
    1b90:	781b      	ldrb	r3, [r3, #0]
    1b92:	74fb      	strb	r3, [r7, #19]
    1b94:	7cfb      	ldrb	r3, [r7, #19]
    1b96:	2b00      	cmp	r3, #0
    1b98:	d114      	bne.n	1bc4 <PFlashSwap+0xd4>
    1b9a:	68f8      	ldr	r0, [r7, #12]
    1b9c:	68b9      	ldr	r1, [r7, #8]
    1b9e:	f04f 0201 	mov.w	r2, #1
    1ba2:	687b      	ldr	r3, [r7, #4]
    1ba4:	f000 f864 	bl	1c70 <_PFlashSwapCtl>
    1ba8:	6178      	str	r0, [r7, #20]
    1baa:	697b      	ldr	r3, [r7, #20]
    1bac:	2b00      	cmp	r3, #0
    1bae:	d151      	bne.n	1c54 <PFlashSwap+0x164>
    1bb0:	bf00      	nop
    1bb2:	68fb      	ldr	r3, [r7, #12]
    1bb4:	681b      	ldr	r3, [r3, #0]
    1bb6:	f103 030a 	add.w	r3, r3, #10
    1bba:	781b      	ldrb	r3, [r3, #0]
    1bbc:	74fb      	strb	r3, [r7, #19]
    1bbe:	7cfb      	ldrb	r3, [r7, #19]
    1bc0:	2b00      	cmp	r3, #0
    1bc2:	d0f6      	beq.n	1bb2 <PFlashSwap+0xc2>
    1bc4:	7cfb      	ldrb	r3, [r7, #19]
    1bc6:	2b01      	cmp	r3, #1
    1bc8:	d114      	bne.n	1bf4 <PFlashSwap+0x104>
    1bca:	68f8      	ldr	r0, [r7, #12]
    1bcc:	68b9      	ldr	r1, [r7, #8]
    1bce:	f04f 0202 	mov.w	r2, #2
    1bd2:	687b      	ldr	r3, [r7, #4]
    1bd4:	f000 f84c 	bl	1c70 <_PFlashSwapCtl>
    1bd8:	6178      	str	r0, [r7, #20]
    1bda:	697b      	ldr	r3, [r7, #20]
    1bdc:	2b00      	cmp	r3, #0
    1bde:	d13b      	bne.n	1c58 <PFlashSwap+0x168>
    1be0:	bf00      	nop
    1be2:	68fb      	ldr	r3, [r7, #12]
    1be4:	681b      	ldr	r3, [r3, #0]
    1be6:	f103 030a 	add.w	r3, r3, #10
    1bea:	781b      	ldrb	r3, [r3, #0]
    1bec:	74fb      	strb	r3, [r7, #19]
    1bee:	7cfb      	ldrb	r3, [r7, #19]
    1bf0:	2b01      	cmp	r3, #1
    1bf2:	d0f6      	beq.n	1be2 <PFlashSwap+0xf2>
    1bf4:	7cfb      	ldrb	r3, [r7, #19]
    1bf6:	2b02      	cmp	r3, #2
    1bf8:	d002      	beq.n	1c00 <PFlashSwap+0x110>
    1bfa:	7cfb      	ldrb	r3, [r7, #19]
    1bfc:	2b03      	cmp	r3, #3
    1bfe:	d130      	bne.n	1c62 <PFlashSwap+0x172>
    1c00:	7cfb      	ldrb	r3, [r7, #19]
    1c02:	2b03      	cmp	r3, #3
    1c04:	d00e      	beq.n	1c24 <PFlashSwap+0x134>
    1c06:	68fb      	ldr	r3, [r7, #12]
    1c08:	689b      	ldr	r3, [r3, #8]
    1c0a:	ea4f 0253 	mov.w	r2, r3, lsr #1
    1c0e:	68bb      	ldr	r3, [r7, #8]
    1c10:	18d3      	adds	r3, r2, r3
    1c12:	68f8      	ldr	r0, [r7, #12]
    1c14:	4619      	mov	r1, r3
    1c16:	687a      	ldr	r2, [r7, #4]
    1c18:	f000 f862 	bl	1ce0 <_PFlashEraseSector>
    1c1c:	6178      	str	r0, [r7, #20]
    1c1e:	697b      	ldr	r3, [r7, #20]
    1c20:	2b00      	cmp	r3, #0
    1c22:	d11b      	bne.n	1c5c <PFlashSwap+0x16c>
    1c24:	68f8      	ldr	r0, [r7, #12]
    1c26:	68b9      	ldr	r1, [r7, #8]
    1c28:	f04f 0204 	mov.w	r2, #4
    1c2c:	687b      	ldr	r3, [r7, #4]
    1c2e:	f000 f81f 	bl	1c70 <_PFlashSwapCtl>
    1c32:	6178      	str	r0, [r7, #20]
    1c34:	697b      	ldr	r3, [r7, #20]
    1c36:	2b00      	cmp	r3, #0
    1c38:	d112      	bne.n	1c60 <PFlashSwap+0x170>
    1c3a:	bf00      	nop
    1c3c:	68fb      	ldr	r3, [r7, #12]
    1c3e:	681b      	ldr	r3, [r3, #0]
    1c40:	f103 030a 	add.w	r3, r3, #10
    1c44:	781b      	ldrb	r3, [r3, #0]
    1c46:	74fb      	strb	r3, [r7, #19]
    1c48:	7cfb      	ldrb	r3, [r7, #19]
    1c4a:	2b04      	cmp	r3, #4
    1c4c:	d1f6      	bne.n	1c3c <PFlashSwap+0x14c>
    1c4e:	e008      	b.n	1c62 <PFlashSwap+0x172>
    1c50:	bf00      	nop
    1c52:	e006      	b.n	1c62 <PFlashSwap+0x172>
    1c54:	bf00      	nop
    1c56:	e004      	b.n	1c62 <PFlashSwap+0x172>
    1c58:	bf00      	nop
    1c5a:	e002      	b.n	1c62 <PFlashSwap+0x172>
    1c5c:	bf00      	nop
    1c5e:	e000      	b.n	1c62 <PFlashSwap+0x172>
    1c60:	bf00      	nop
    1c62:	697b      	ldr	r3, [r7, #20]
    1c64:	4618      	mov	r0, r3
    1c66:	f107 0718 	add.w	r7, r7, #24
    1c6a:	46bd      	mov	sp, r7
    1c6c:	bd80      	pop	{r7, pc}
    1c6e:	bf00      	nop

00001c70 <_PFlashSwapCtl>:
    1c70:	b580      	push	{r7, lr}
    1c72:	b088      	sub	sp, #32
    1c74:	af00      	add	r7, sp, #0
    1c76:	60f8      	str	r0, [r7, #12]
    1c78:	60b9      	str	r1, [r7, #8]
    1c7a:	603b      	str	r3, [r7, #0]
    1c7c:	4613      	mov	r3, r2
    1c7e:	71fb      	strb	r3, [r7, #7]
    1c80:	f04f 0300 	mov.w	r3, #0
    1c84:	61fb      	str	r3, [r7, #28]
    1c86:	f04f 0346 	mov.w	r3, #70	; 0x46
    1c8a:	753b      	strb	r3, [r7, #20]
    1c8c:	68bb      	ldr	r3, [r7, #8]
    1c8e:	f403 037f 	and.w	r3, r3, #16711680	; 0xff0000
    1c92:	ea4f 4313 	mov.w	r3, r3, lsr #16
    1c96:	b2db      	uxtb	r3, r3
    1c98:	757b      	strb	r3, [r7, #21]
    1c9a:	68bb      	ldr	r3, [r7, #8]
    1c9c:	f403 437f 	and.w	r3, r3, #65280	; 0xff00
    1ca0:	ea4f 2313 	mov.w	r3, r3, lsr #8
    1ca4:	b2db      	uxtb	r3, r3
    1ca6:	75bb      	strb	r3, [r7, #22]
    1ca8:	68bb      	ldr	r3, [r7, #8]
    1caa:	b2db      	uxtb	r3, r3
    1cac:	75fb      	strb	r3, [r7, #23]
    1cae:	79fb      	ldrb	r3, [r7, #7]
    1cb0:	763b      	strb	r3, [r7, #24]
    1cb2:	f04f 03ff 	mov.w	r3, #255	; 0xff
    1cb6:	767b      	strb	r3, [r7, #25]
    1cb8:	f04f 03ff 	mov.w	r3, #255	; 0xff
    1cbc:	76bb      	strb	r3, [r7, #26]
    1cbe:	f04f 03ff 	mov.w	r3, #255	; 0xff
    1cc2:	76fb      	strb	r3, [r7, #27]
    1cc4:	f107 0214 	add.w	r2, r7, #20
    1cc8:	683b      	ldr	r3, [r7, #0]
    1cca:	68f8      	ldr	r0, [r7, #12]
    1ccc:	f04f 0107 	mov.w	r1, #7
    1cd0:	4798      	blx	r3
    1cd2:	61f8      	str	r0, [r7, #28]
    1cd4:	69fb      	ldr	r3, [r7, #28]
    1cd6:	4618      	mov	r0, r3
    1cd8:	f107 0720 	add.w	r7, r7, #32
    1cdc:	46bd      	mov	sp, r7
    1cde:	bd80      	pop	{r7, pc}

00001ce0 <_PFlashEraseSector>:
    1ce0:	b580      	push	{r7, lr}
    1ce2:	b086      	sub	sp, #24
    1ce4:	af00      	add	r7, sp, #0
    1ce6:	60f8      	str	r0, [r7, #12]
    1ce8:	60b9      	str	r1, [r7, #8]
    1cea:	607a      	str	r2, [r7, #4]
    1cec:	f04f 0300 	mov.w	r3, #0
    1cf0:	617b      	str	r3, [r7, #20]
    1cf2:	f04f 0309 	mov.w	r3, #9
    1cf6:	743b      	strb	r3, [r7, #16]
    1cf8:	68bb      	ldr	r3, [r7, #8]
    1cfa:	ea4f 4313 	mov.w	r3, r3, lsr #16
    1cfe:	b2db      	uxtb	r3, r3
    1d00:	747b      	strb	r3, [r7, #17]
    1d02:	68bb      	ldr	r3, [r7, #8]
    1d04:	ea4f 2313 	mov.w	r3, r3, lsr #8
    1d08:	b2db      	uxtb	r3, r3
    1d0a:	74bb      	strb	r3, [r7, #18]
    1d0c:	68bb      	ldr	r3, [r7, #8]
    1d0e:	b2db      	uxtb	r3, r3
    1d10:	74fb      	strb	r3, [r7, #19]
    1d12:	f107 0210 	add.w	r2, r7, #16
    1d16:	687b      	ldr	r3, [r7, #4]
    1d18:	68f8      	ldr	r0, [r7, #12]
    1d1a:	f04f 0103 	mov.w	r1, #3
    1d1e:	4798      	blx	r3
    1d20:	6178      	str	r0, [r7, #20]
    1d22:	697b      	ldr	r3, [r7, #20]
    1d24:	4618      	mov	r0, r3
    1d26:	f107 0718 	add.w	r7, r7, #24
    1d2a:	46bd      	mov	sp, r7
    1d2c:	bd80      	pop	{r7, pc}
    1d2e:	bf00      	nop

00001d30 <SetEEEEnable>:
    1d30:	b580      	push	{r7, lr}
    1d32:	b084      	sub	sp, #16
    1d34:	af00      	add	r7, sp, #0
    1d36:	6078      	str	r0, [r7, #4]
    1d38:	460b      	mov	r3, r1
    1d3a:	70fb      	strb	r3, [r7, #3]
    1d3c:	f04f 0300 	mov.w	r3, #0
    1d40:	60fb      	str	r3, [r7, #12]
    1d42:	f04f 0381 	mov.w	r3, #129	; 0x81
    1d46:	723b      	strb	r3, [r7, #8]
    1d48:	78fb      	ldrb	r3, [r7, #3]
    1d4a:	727b      	strb	r3, [r7, #9]
    1d4c:	f107 0308 	add.w	r3, r7, #8
    1d50:	6878      	ldr	r0, [r7, #4]
    1d52:	f04f 0101 	mov.w	r1, #1
    1d56:	461a      	mov	r2, r3
    1d58:	f7fe fcea 	bl	730 <FlashCommandSequence>
    1d5c:	60f8      	str	r0, [r7, #12]
    1d5e:	68fb      	ldr	r3, [r7, #12]
    1d60:	4618      	mov	r0, r3
    1d62:	f107 0710 	add.w	r7, r7, #16
    1d66:	46bd      	mov	sp, r7
    1d68:	bd80      	pop	{r7, pc}
    1d6a:	bf00      	nop

Disassembly of section .driver_info:

00001dc4 <FlashDriver>:
    1dc4:	00300030 	eorseq	r0, r0, r0, lsr r0
    1dc8:	65657246 	strbvs	r7, [r5, #-582]!	; 0xfffffdba
    1dcc:	6c616373 	stclvs	3, cr6, [r1], #-460	; 0xfffffe34
    1dd0:	4b4d2065 	blmi	1349f6c <FlashDriver+0x13481a8>
    1dd4:	20205858 	eorcs	r5, r0, r8, asr r8
    1dd8:	34323031 	ldrtcc	r3, [r2], #-49	; 0xffffffcf
    1ddc:	4620424b 	strtmi	r4, [r0], -fp, asr #4
    1de0:	6873616c 	ldmdavs	r3!, {r2, r3, r5, r6, r8, sp, lr}^
	...
    1e48:	00000001 	andeq	r0, r0, r1
    1e4c:	00000000 	andeq	r0, r0, r0
    1e50:	00100000 	andseq	r0, r0, r0
    1e54:	00000200 	andeq	r0, r0, r0, lsl #4
    1e58:	000000ff 	strdeq	r0, [r0], -pc	; <UNPREDICTABLE>
    1e5c:	00001000 	andeq	r1, r0, r0
    1e60:	00000000 	andeq	r0, r0, r0
    1e64:	ffffffff 			; <UNDEFINED> instruction: 0xffffffff
    1e68:	ffffffff 			; <UNDEFINED> instruction: 0xffffffff
	...
    2e5c:	00001388 	andeq	r1, r0, r8, lsl #7
    2e60:	00001388 	andeq	r1, r0, r8, lsl #7
    2e64:	00001388 	andeq	r1, r0, r8, lsl #7
    2e68:	00002710 	andeq	r2, r0, r0, lsl r7
