
bin/MKXX_1024.elf:     file format elf32-littlearm


Disassembly of section .text:

00000000 <BreakHere>:
       0:	be00      	bkpt	0x0000
       2:	bf00      	nop

00000004 <ExecFunction>:
       4:	b580      	push	{r7, lr}
       6:	b086      	sub	sp, #24
       8:	af00      	add	r7, sp, #0
       a:	60f8      	str	r0, [r7, #12]
       c:	60b9      	str	r1, [r7, #8]
       e:	607a      	str	r2, [r7, #4]
      10:	603b      	str	r3, [r7, #0]
      12:	68fb      	ldr	r3, [r7, #12]
      14:	68b8      	ldr	r0, [r7, #8]
      16:	6879      	ldr	r1, [r7, #4]
      18:	683a      	ldr	r2, [r7, #0]
      1a:	4798      	blx	r3
      1c:	6178      	str	r0, [r7, #20]
      1e:	6978      	ldr	r0, [r7, #20]
      20:	f7ff ffee 	bl	0 <BreakHere>
      24:	697b      	ldr	r3, [r7, #20]
      26:	4618      	mov	r0, r3
      28:	f107 0718 	add.w	r7, r7, #24
      2c:	46bd      	mov	sp, r7
      2e:	bd80      	pop	{r7, pc}

00000030 <DEFlashPartition>:
      30:	b580      	push	{r7, lr}
      32:	b088      	sub	sp, #32
      34:	af00      	add	r7, sp, #0
      36:	60f8      	str	r0, [r7, #12]
      38:	607b      	str	r3, [r7, #4]
      3a:	460b      	mov	r3, r1
      3c:	72fb      	strb	r3, [r7, #11]
      3e:	4613      	mov	r3, r2
      40:	72bb      	strb	r3, [r7, #10]
      42:	f04f 0300 	mov.w	r3, #0
      46:	61fb      	str	r3, [r7, #28]
      48:	f04f 0380 	mov.w	r3, #128	; 0x80
      4c:	753b      	strb	r3, [r7, #20]
      4e:	7afb      	ldrb	r3, [r7, #11]
      50:	763b      	strb	r3, [r7, #24]
      52:	7abb      	ldrb	r3, [r7, #10]
      54:	767b      	strb	r3, [r7, #25]
      56:	f107 0214 	add.w	r2, r7, #20
      5a:	687b      	ldr	r3, [r7, #4]
      5c:	68f8      	ldr	r0, [r7, #12]
      5e:	f04f 0105 	mov.w	r1, #5
      62:	4798      	blx	r3
      64:	61f8      	str	r0, [r7, #28]
      66:	69fb      	ldr	r3, [r7, #28]
      68:	4618      	mov	r0, r3
      6a:	f107 0720 	add.w	r7, r7, #32
      6e:	46bd      	mov	sp, r7
      70:	bd80      	pop	{r7, pc}
      72:	bf00      	nop

00000074 <DFlashGetProtection>:
      74:	b480      	push	{r7}
      76:	b085      	sub	sp, #20
      78:	af00      	add	r7, sp, #0
      7a:	6078      	str	r0, [r7, #4]
      7c:	6039      	str	r1, [r7, #0]
      7e:	f04f 0300 	mov.w	r3, #0
      82:	60fb      	str	r3, [r7, #12]
      84:	687b      	ldr	r3, [r7, #4]
      86:	691b      	ldr	r3, [r3, #16]
      88:	2b00      	cmp	r3, #0
      8a:	d103      	bne.n	94 <DFlashGetProtection+0x20>
      8c:	f44f 6380 	mov.w	r3, #1024	; 0x400
      90:	60fb      	str	r3, [r7, #12]
      92:	e007      	b.n	a4 <DFlashGetProtection+0x30>
      94:	687b      	ldr	r3, [r7, #4]
      96:	681b      	ldr	r3, [r3, #0]
      98:	f103 0317 	add.w	r3, r3, #23
      9c:	781b      	ldrb	r3, [r3, #0]
      9e:	b2da      	uxtb	r2, r3
      a0:	683b      	ldr	r3, [r7, #0]
      a2:	701a      	strb	r2, [r3, #0]
      a4:	68fb      	ldr	r3, [r7, #12]
      a6:	4618      	mov	r0, r3
      a8:	f107 0714 	add.w	r7, r7, #20
      ac:	46bd      	mov	sp, r7
      ae:	bc80      	pop	{r7}
      b0:	4770      	bx	lr
      b2:	bf00      	nop

000000b4 <DFlashSetProtection>:
      b4:	b480      	push	{r7}
      b6:	b085      	sub	sp, #20
      b8:	af00      	add	r7, sp, #0
      ba:	6078      	str	r0, [r7, #4]
      bc:	460b      	mov	r3, r1
      be:	70fb      	strb	r3, [r7, #3]
      c0:	f04f 0300 	mov.w	r3, #0
      c4:	60fb      	str	r3, [r7, #12]
      c6:	687b      	ldr	r3, [r7, #4]
      c8:	681b      	ldr	r3, [r3, #0]
      ca:	781b      	ldrb	r3, [r3, #0]
      cc:	b2db      	uxtb	r3, r3
      ce:	b2db      	uxtb	r3, r3
      d0:	b25b      	sxtb	r3, r3
      d2:	2b00      	cmp	r3, #0
      d4:	db03      	blt.n	de <DFlashSetProtection+0x2a>
      d6:	f04f 0320 	mov.w	r3, #32
      da:	60fb      	str	r3, [r7, #12]
      dc:	e037      	b.n	14e <DFlashSetProtection+0x9a>
      de:	687b      	ldr	r3, [r7, #4]
      e0:	691b      	ldr	r3, [r3, #16]
      e2:	2b00      	cmp	r3, #0
      e4:	d103      	bne.n	ee <DFlashSetProtection+0x3a>
      e6:	f44f 6380 	mov.w	r3, #1024	; 0x400
      ea:	60fb      	str	r3, [r7, #12]
      ec:	e02f      	b.n	14e <DFlashSetProtection+0x9a>
      ee:	687b      	ldr	r3, [r7, #4]
      f0:	681b      	ldr	r3, [r3, #0]
      f2:	f103 0317 	add.w	r3, r3, #23
      f6:	781b      	ldrb	r3, [r3, #0]
      f8:	72fb      	strb	r3, [r7, #11]
      fa:	687b      	ldr	r3, [r7, #4]
      fc:	681b      	ldr	r3, [r3, #0]
      fe:	f103 0317 	add.w	r3, r3, #23
     102:	f04f 02ff 	mov.w	r2, #255	; 0xff
     106:	701a      	strb	r2, [r3, #0]
     108:	687b      	ldr	r3, [r7, #4]
     10a:	681b      	ldr	r3, [r3, #0]
     10c:	f103 0317 	add.w	r3, r3, #23
     110:	781b      	ldrb	r3, [r3, #0]
     112:	b2db      	uxtb	r3, r3
     114:	2bff      	cmp	r3, #255	; 0xff
     116:	d014      	beq.n	142 <DFlashSetProtection+0x8e>
     118:	78fa      	ldrb	r2, [r7, #3]
     11a:	7afb      	ldrb	r3, [r7, #11]
     11c:	4053      	eors	r3, r2
     11e:	72bb      	strb	r3, [r7, #10]
     120:	7aba      	ldrb	r2, [r7, #10]
     122:	78fb      	ldrb	r3, [r7, #3]
     124:	4013      	ands	r3, r2
     126:	b2db      	uxtb	r3, r3
     128:	2b00      	cmp	r3, #0
     12a:	d106      	bne.n	13a <DFlashSetProtection+0x86>
     12c:	687b      	ldr	r3, [r7, #4]
     12e:	681b      	ldr	r3, [r3, #0]
     130:	f103 0317 	add.w	r3, r3, #23
     134:	78fa      	ldrb	r2, [r7, #3]
     136:	701a      	strb	r2, [r3, #0]
     138:	e009      	b.n	14e <DFlashSetProtection+0x9a>
     13a:	f04f 0320 	mov.w	r3, #32
     13e:	60fb      	str	r3, [r7, #12]
     140:	e005      	b.n	14e <DFlashSetProtection+0x9a>
     142:	687b      	ldr	r3, [r7, #4]
     144:	681b      	ldr	r3, [r3, #0]
     146:	f103 0317 	add.w	r3, r3, #23
     14a:	78fa      	ldrb	r2, [r7, #3]
     14c:	701a      	strb	r2, [r3, #0]
     14e:	68fb      	ldr	r3, [r7, #12]
     150:	4618      	mov	r0, r3
     152:	f107 0714 	add.w	r7, r7, #20
     156:	46bd      	mov	sp, r7
     158:	bc80      	pop	{r7}
     15a:	4770      	bx	lr

0000015c <EEEWrite>:
     15c:	b480      	push	{r7}
     15e:	b087      	sub	sp, #28
     160:	af00      	add	r7, sp, #0
     162:	60f8      	str	r0, [r7, #12]
     164:	60b9      	str	r1, [r7, #8]
     166:	607a      	str	r2, [r7, #4]
     168:	603b      	str	r3, [r7, #0]
     16a:	f04f 0300 	mov.w	r3, #0
     16e:	617b      	str	r3, [r7, #20]
     170:	68fb      	ldr	r3, [r7, #12]
     172:	681b      	ldr	r3, [r3, #0]
     174:	f103 0301 	add.w	r3, r3, #1
     178:	781b      	ldrb	r3, [r3, #0]
     17a:	b2db      	uxtb	r3, r3
     17c:	f003 0301 	and.w	r3, r3, #1
     180:	2b00      	cmp	r3, #0
     182:	d03f      	beq.n	204 <EEEWrite+0xa8>
     184:	68fb      	ldr	r3, [r7, #12]
     186:	695a      	ldr	r2, [r3, #20]
     188:	68bb      	ldr	r3, [r7, #8]
     18a:	429a      	cmp	r2, r3
     18c:	d809      	bhi.n	1a2 <EEEWrite+0x46>
     18e:	68ba      	ldr	r2, [r7, #8]
     190:	687b      	ldr	r3, [r7, #4]
     192:	18d2      	adds	r2, r2, r3
     194:	68fb      	ldr	r3, [r7, #12]
     196:	6959      	ldr	r1, [r3, #20]
     198:	68fb      	ldr	r3, [r7, #12]
     19a:	69db      	ldr	r3, [r3, #28]
     19c:	18cb      	adds	r3, r1, r3
     19e:	429a      	cmp	r2, r3
     1a0:	d92c      	bls.n	1fc <EEEWrite+0xa0>
     1a2:	f04f 0302 	mov.w	r3, #2
     1a6:	617b      	str	r3, [r7, #20]
     1a8:	e030      	b.n	20c <EEEWrite+0xb0>
     1aa:	bf00      	nop
     1ac:	68fb      	ldr	r3, [r7, #12]
     1ae:	681b      	ldr	r3, [r3, #0]
     1b0:	f103 0301 	add.w	r3, r3, #1
     1b4:	781b      	ldrb	r3, [r3, #0]
     1b6:	b2db      	uxtb	r3, r3
     1b8:	f003 0301 	and.w	r3, r3, #1
     1bc:	2b00      	cmp	r3, #0
     1be:	d0f5      	beq.n	1ac <EEEWrite+0x50>
     1c0:	68bb      	ldr	r3, [r7, #8]
     1c2:	683a      	ldr	r2, [r7, #0]
     1c4:	7812      	ldrb	r2, [r2, #0]
     1c6:	b2d2      	uxtb	r2, r2
     1c8:	701a      	strb	r2, [r3, #0]
     1ca:	68fb      	ldr	r3, [r7, #12]
     1cc:	681b      	ldr	r3, [r3, #0]
     1ce:	781b      	ldrb	r3, [r3, #0]
     1d0:	b2db      	uxtb	r3, r3
     1d2:	f003 0310 	and.w	r3, r3, #16
     1d6:	2b00      	cmp	r3, #0
     1d8:	d004      	beq.n	1e4 <EEEWrite+0x88>
     1da:	f04f 0308 	mov.w	r3, #8
     1de:	617b      	str	r3, [r7, #20]
     1e0:	bf00      	nop
     1e2:	e013      	b.n	20c <EEEWrite+0xb0>
     1e4:	68bb      	ldr	r3, [r7, #8]
     1e6:	f103 0301 	add.w	r3, r3, #1
     1ea:	60bb      	str	r3, [r7, #8]
     1ec:	687b      	ldr	r3, [r7, #4]
     1ee:	f103 33ff 	add.w	r3, r3, #4294967295
     1f2:	607b      	str	r3, [r7, #4]
     1f4:	683b      	ldr	r3, [r7, #0]
     1f6:	f103 0301 	add.w	r3, r3, #1
     1fa:	603b      	str	r3, [r7, #0]
     1fc:	687b      	ldr	r3, [r7, #4]
     1fe:	2b00      	cmp	r3, #0
     200:	d1d3      	bne.n	1aa <EEEWrite+0x4e>
     202:	e003      	b.n	20c <EEEWrite+0xb0>
     204:	f44f 7300 	mov.w	r3, #512	; 0x200
     208:	617b      	str	r3, [r7, #20]
     20a:	bf00      	nop
     20c:	697b      	ldr	r3, [r7, #20]
     20e:	4618      	mov	r0, r3
     210:	f107 071c 	add.w	r7, r7, #28
     214:	46bd      	mov	sp, r7
     216:	bc80      	pop	{r7}
     218:	4770      	bx	lr
     21a:	bf00      	nop

0000021c <EERAMGetProtection>:
     21c:	b480      	push	{r7}
     21e:	b085      	sub	sp, #20
     220:	af00      	add	r7, sp, #0
     222:	6078      	str	r0, [r7, #4]
     224:	6039      	str	r1, [r7, #0]
     226:	f04f 0300 	mov.w	r3, #0
     22a:	60fb      	str	r3, [r7, #12]
     22c:	687b      	ldr	r3, [r7, #4]
     22e:	681b      	ldr	r3, [r3, #0]
     230:	f103 0301 	add.w	r3, r3, #1
     234:	781b      	ldrb	r3, [r3, #0]
     236:	b2db      	uxtb	r3, r3
     238:	f003 0301 	and.w	r3, r3, #1
     23c:	2b00      	cmp	r3, #0
     23e:	d008      	beq.n	252 <EERAMGetProtection+0x36>
     240:	687b      	ldr	r3, [r7, #4]
     242:	681b      	ldr	r3, [r3, #0]
     244:	f103 0316 	add.w	r3, r3, #22
     248:	781b      	ldrb	r3, [r3, #0]
     24a:	b2da      	uxtb	r2, r3
     24c:	683b      	ldr	r3, [r7, #0]
     24e:	701a      	strb	r2, [r3, #0]
     250:	e003      	b.n	25a <EERAMGetProtection+0x3e>
     252:	f44f 7300 	mov.w	r3, #512	; 0x200
     256:	60fb      	str	r3, [r7, #12]
     258:	bf00      	nop
     25a:	68fb      	ldr	r3, [r7, #12]
     25c:	4618      	mov	r0, r3
     25e:	f107 0714 	add.w	r7, r7, #20
     262:	46bd      	mov	sp, r7
     264:	bc80      	pop	{r7}
     266:	4770      	bx	lr

00000268 <EERAMSetProtection>:
     268:	b480      	push	{r7}
     26a:	b085      	sub	sp, #20
     26c:	af00      	add	r7, sp, #0
     26e:	6078      	str	r0, [r7, #4]
     270:	460b      	mov	r3, r1
     272:	70fb      	strb	r3, [r7, #3]
     274:	f04f 0300 	mov.w	r3, #0
     278:	60fb      	str	r3, [r7, #12]
     27a:	687b      	ldr	r3, [r7, #4]
     27c:	681b      	ldr	r3, [r3, #0]
     27e:	781b      	ldrb	r3, [r3, #0]
     280:	b2db      	uxtb	r3, r3
     282:	b2db      	uxtb	r3, r3
     284:	b25b      	sxtb	r3, r3
     286:	2b00      	cmp	r3, #0
     288:	db03      	blt.n	292 <EERAMSetProtection+0x2a>
     28a:	f04f 0320 	mov.w	r3, #32
     28e:	60fb      	str	r3, [r7, #12]
     290:	e03d      	b.n	30e <EERAMSetProtection+0xa6>
     292:	687b      	ldr	r3, [r7, #4]
     294:	681b      	ldr	r3, [r3, #0]
     296:	f103 0301 	add.w	r3, r3, #1
     29a:	781b      	ldrb	r3, [r3, #0]
     29c:	b2db      	uxtb	r3, r3
     29e:	f003 0301 	and.w	r3, r3, #1
     2a2:	2b00      	cmp	r3, #0
     2a4:	d103      	bne.n	2ae <EERAMSetProtection+0x46>
     2a6:	f44f 7300 	mov.w	r3, #512	; 0x200
     2aa:	60fb      	str	r3, [r7, #12]
     2ac:	e02f      	b.n	30e <EERAMSetProtection+0xa6>
     2ae:	687b      	ldr	r3, [r7, #4]
     2b0:	681b      	ldr	r3, [r3, #0]
     2b2:	f103 0316 	add.w	r3, r3, #22
     2b6:	781b      	ldrb	r3, [r3, #0]
     2b8:	72fb      	strb	r3, [r7, #11]
     2ba:	687b      	ldr	r3, [r7, #4]
     2bc:	681b      	ldr	r3, [r3, #0]
     2be:	f103 0316 	add.w	r3, r3, #22
     2c2:	f04f 02ff 	mov.w	r2, #255	; 0xff
     2c6:	701a      	strb	r2, [r3, #0]
     2c8:	687b      	ldr	r3, [r7, #4]
     2ca:	681b      	ldr	r3, [r3, #0]
     2cc:	f103 0316 	add.w	r3, r3, #22
     2d0:	781b      	ldrb	r3, [r3, #0]
     2d2:	b2db      	uxtb	r3, r3
     2d4:	2bff      	cmp	r3, #255	; 0xff
     2d6:	d014      	beq.n	302 <EERAMSetProtection+0x9a>
     2d8:	78fa      	ldrb	r2, [r7, #3]
     2da:	7afb      	ldrb	r3, [r7, #11]
     2dc:	4053      	eors	r3, r2
     2de:	72bb      	strb	r3, [r7, #10]
     2e0:	7aba      	ldrb	r2, [r7, #10]
     2e2:	78fb      	ldrb	r3, [r7, #3]
     2e4:	4013      	ands	r3, r2
     2e6:	b2db      	uxtb	r3, r3
     2e8:	2b00      	cmp	r3, #0
     2ea:	d106      	bne.n	2fa <EERAMSetProtection+0x92>
     2ec:	687b      	ldr	r3, [r7, #4]
     2ee:	681b      	ldr	r3, [r3, #0]
     2f0:	f103 0316 	add.w	r3, r3, #22
     2f4:	78fa      	ldrb	r2, [r7, #3]
     2f6:	701a      	strb	r2, [r3, #0]
     2f8:	e009      	b.n	30e <EERAMSetProtection+0xa6>
     2fa:	f04f 0320 	mov.w	r3, #32
     2fe:	60fb      	str	r3, [r7, #12]
     300:	e005      	b.n	30e <EERAMSetProtection+0xa6>
     302:	687b      	ldr	r3, [r7, #4]
     304:	681b      	ldr	r3, [r3, #0]
     306:	f103 0316 	add.w	r3, r3, #22
     30a:	78fa      	ldrb	r2, [r7, #3]
     30c:	701a      	strb	r2, [r3, #0]
     30e:	68fb      	ldr	r3, [r7, #12]
     310:	4618      	mov	r0, r3
     312:	f107 0714 	add.w	r7, r7, #20
     316:	46bd      	mov	sp, r7
     318:	bc80      	pop	{r7}
     31a:	4770      	bx	lr

0000031c <FlashProgramPhrase>:
     31c:	b580      	push	{r7, lr}
     31e:	b08a      	sub	sp, #40	; 0x28
     320:	af00      	add	r7, sp, #0
     322:	60f8      	str	r0, [r7, #12]
     324:	60b9      	str	r1, [r7, #8]
     326:	607a      	str	r2, [r7, #4]
     328:	603b      	str	r3, [r7, #0]
     32a:	f04f 0300 	mov.w	r3, #0
     32e:	627b      	str	r3, [r7, #36]	; 0x24
     330:	68ba      	ldr	r2, [r7, #8]
     332:	687b      	ldr	r3, [r7, #4]
     334:	18d3      	adds	r3, r2, r3
     336:	623b      	str	r3, [r7, #32]
     338:	68bb      	ldr	r3, [r7, #8]
     33a:	f003 0307 	and.w	r3, r3, #7
     33e:	2b00      	cmp	r3, #0
     340:	d003      	beq.n	34a <FlashProgramPhrase+0x2e>
     342:	f44f 7380 	mov.w	r3, #256	; 0x100
     346:	627b      	str	r3, [r7, #36]	; 0x24
     348:	e091      	b.n	46e <FlashProgramPhrase+0x152>
     34a:	687b      	ldr	r3, [r7, #4]
     34c:	f003 0307 	and.w	r3, r3, #7
     350:	2b00      	cmp	r3, #0
     352:	d003      	beq.n	35c <FlashProgramPhrase+0x40>
     354:	f04f 0301 	mov.w	r3, #1
     358:	627b      	str	r3, [r7, #36]	; 0x24
     35a:	e088      	b.n	46e <FlashProgramPhrase+0x152>
     35c:	68fb      	ldr	r3, [r7, #12]
     35e:	685a      	ldr	r2, [r3, #4]
     360:	68bb      	ldr	r3, [r7, #8]
     362:	429a      	cmp	r2, r3
     364:	d807      	bhi.n	376 <FlashProgramPhrase+0x5a>
     366:	68fb      	ldr	r3, [r7, #12]
     368:	685a      	ldr	r2, [r3, #4]
     36a:	68fb      	ldr	r3, [r7, #12]
     36c:	689b      	ldr	r3, [r3, #8]
     36e:	18d2      	adds	r2, r2, r3
     370:	6a3b      	ldr	r3, [r7, #32]
     372:	429a      	cmp	r2, r3
     374:	d218      	bcs.n	3a8 <FlashProgramPhrase+0x8c>
     376:	68fb      	ldr	r3, [r7, #12]
     378:	68da      	ldr	r2, [r3, #12]
     37a:	68bb      	ldr	r3, [r7, #8]
     37c:	429a      	cmp	r2, r3
     37e:	d807      	bhi.n	390 <FlashProgramPhrase+0x74>
     380:	68fb      	ldr	r3, [r7, #12]
     382:	68da      	ldr	r2, [r3, #12]
     384:	68fb      	ldr	r3, [r7, #12]
     386:	691b      	ldr	r3, [r3, #16]
     388:	18d2      	adds	r2, r2, r3
     38a:	6a3b      	ldr	r3, [r7, #32]
     38c:	429a      	cmp	r2, r3
     38e:	d203      	bcs.n	398 <FlashProgramPhrase+0x7c>
     390:	f04f 0302 	mov.w	r3, #2
     394:	627b      	str	r3, [r7, #36]	; 0x24
     396:	e06a      	b.n	46e <FlashProgramPhrase+0x152>
     398:	68fb      	ldr	r3, [r7, #12]
     39a:	68db      	ldr	r3, [r3, #12]
     39c:	68ba      	ldr	r2, [r7, #8]
     39e:	1ad3      	subs	r3, r2, r3
     3a0:	f503 0300 	add.w	r3, r3, #8388608	; 0x800000
     3a4:	60bb      	str	r3, [r7, #8]
     3a6:	e004      	b.n	3b2 <FlashProgramPhrase+0x96>
     3a8:	68fb      	ldr	r3, [r7, #12]
     3aa:	685b      	ldr	r3, [r3, #4]
     3ac:	68ba      	ldr	r2, [r7, #8]
     3ae:	1ad3      	subs	r3, r2, r3
     3b0:	60bb      	str	r3, [r7, #8]
     3b2:	6a7b      	ldr	r3, [r7, #36]	; 0x24
     3b4:	2b00      	cmp	r3, #0
     3b6:	d15a      	bne.n	46e <FlashProgramPhrase+0x152>
     3b8:	e054      	b.n	464 <FlashProgramPhrase+0x148>
     3ba:	f04f 0307 	mov.w	r3, #7
     3be:	753b      	strb	r3, [r7, #20]
     3c0:	68bb      	ldr	r3, [r7, #8]
     3c2:	ea4f 4313 	mov.w	r3, r3, lsr #16
     3c6:	b2db      	uxtb	r3, r3
     3c8:	757b      	strb	r3, [r7, #21]
     3ca:	68bb      	ldr	r3, [r7, #8]
     3cc:	ea4f 2313 	mov.w	r3, r3, lsr #8
     3d0:	b2db      	uxtb	r3, r3
     3d2:	75bb      	strb	r3, [r7, #22]
     3d4:	68bb      	ldr	r3, [r7, #8]
     3d6:	b2db      	uxtb	r3, r3
     3d8:	75fb      	strb	r3, [r7, #23]
     3da:	683b      	ldr	r3, [r7, #0]
     3dc:	f103 0303 	add.w	r3, r3, #3
     3e0:	781b      	ldrb	r3, [r3, #0]
     3e2:	b2db      	uxtb	r3, r3
     3e4:	763b      	strb	r3, [r7, #24]
     3e6:	683b      	ldr	r3, [r7, #0]
     3e8:	f103 0302 	add.w	r3, r3, #2
     3ec:	781b      	ldrb	r3, [r3, #0]
     3ee:	b2db      	uxtb	r3, r3
     3f0:	767b      	strb	r3, [r7, #25]
     3f2:	683b      	ldr	r3, [r7, #0]
     3f4:	f103 0301 	add.w	r3, r3, #1
     3f8:	781b      	ldrb	r3, [r3, #0]
     3fa:	b2db      	uxtb	r3, r3
     3fc:	76bb      	strb	r3, [r7, #26]
     3fe:	683b      	ldr	r3, [r7, #0]
     400:	781b      	ldrb	r3, [r3, #0]
     402:	b2db      	uxtb	r3, r3
     404:	76fb      	strb	r3, [r7, #27]
     406:	683b      	ldr	r3, [r7, #0]
     408:	f103 0307 	add.w	r3, r3, #7
     40c:	781b      	ldrb	r3, [r3, #0]
     40e:	b2db      	uxtb	r3, r3
     410:	773b      	strb	r3, [r7, #28]
     412:	683b      	ldr	r3, [r7, #0]
     414:	f103 0306 	add.w	r3, r3, #6
     418:	781b      	ldrb	r3, [r3, #0]
     41a:	b2db      	uxtb	r3, r3
     41c:	777b      	strb	r3, [r7, #29]
     41e:	683b      	ldr	r3, [r7, #0]
     420:	f103 0305 	add.w	r3, r3, #5
     424:	781b      	ldrb	r3, [r3, #0]
     426:	b2db      	uxtb	r3, r3
     428:	77bb      	strb	r3, [r7, #30]
     42a:	683b      	ldr	r3, [r7, #0]
     42c:	f103 0304 	add.w	r3, r3, #4
     430:	781b      	ldrb	r3, [r3, #0]
     432:	b2db      	uxtb	r3, r3
     434:	77fb      	strb	r3, [r7, #31]
     436:	f107 0214 	add.w	r2, r7, #20
     43a:	6b3b      	ldr	r3, [r7, #48]	; 0x30
     43c:	68f8      	ldr	r0, [r7, #12]
     43e:	f04f 010b 	mov.w	r1, #11
     442:	4798      	blx	r3
     444:	6278      	str	r0, [r7, #36]	; 0x24
     446:	6a7b      	ldr	r3, [r7, #36]	; 0x24
     448:	2b00      	cmp	r3, #0
     44a:	d10f      	bne.n	46c <FlashProgramPhrase+0x150>
     44c:	68bb      	ldr	r3, [r7, #8]
     44e:	f103 0308 	add.w	r3, r3, #8
     452:	60bb      	str	r3, [r7, #8]
     454:	687b      	ldr	r3, [r7, #4]
     456:	f1a3 0308 	sub.w	r3, r3, #8
     45a:	607b      	str	r3, [r7, #4]
     45c:	683b      	ldr	r3, [r7, #0]
     45e:	f103 0308 	add.w	r3, r3, #8
     462:	603b      	str	r3, [r7, #0]
     464:	687b      	ldr	r3, [r7, #4]
     466:	2b00      	cmp	r3, #0
     468:	d1a7      	bne.n	3ba <FlashProgramPhrase+0x9e>
     46a:	e000      	b.n	46e <FlashProgramPhrase+0x152>
     46c:	bf00      	nop
     46e:	6a7b      	ldr	r3, [r7, #36]	; 0x24
     470:	4618      	mov	r0, r3
     472:	f107 0728 	add.w	r7, r7, #40	; 0x28
     476:	46bd      	mov	sp, r7
     478:	bd80      	pop	{r7, pc}
     47a:	bf00      	nop

0000047c <FlashInit>:
     47c:	b580      	push	{r7, lr}
     47e:	b084      	sub	sp, #16
     480:	af00      	add	r7, sp, #0
     482:	60f8      	str	r0, [r7, #12]
     484:	60b9      	str	r1, [r7, #8]
     486:	607a      	str	r2, [r7, #4]
     488:	4b2e      	ldr	r3, [pc, #184]	; (544 <FlashInit+0xc8>)
     48a:	f859 3003 	ldr.w	r3, [r9, r3]
     48e:	68fa      	ldr	r2, [r7, #12]
     490:	601a      	str	r2, [r3, #0]
     492:	4b29      	ldr	r3, [pc, #164]	; (538 <FlashInit+0xbc>)
     494:	f24c 5220 	movw	r2, #50464	; 0xc520
     498:	801a      	strh	r2, [r3, #0]
     49a:	4b27      	ldr	r3, [pc, #156]	; (538 <FlashInit+0xbc>)
     49c:	f64d 1228 	movw	r2, #55592	; 0xd928
     4a0:	801a      	strh	r2, [r3, #0]
     4a2:	4b26      	ldr	r3, [pc, #152]	; (53c <FlashInit+0xc0>)
     4a4:	4a25      	ldr	r2, [pc, #148]	; (53c <FlashInit+0xc0>)
     4a6:	8812      	ldrh	r2, [r2, #0]
     4a8:	b292      	uxth	r2, r2
     4aa:	f022 0201 	bic.w	r2, r2, #1
     4ae:	b292      	uxth	r2, r2
     4b0:	801a      	strh	r2, [r3, #0]
     4b2:	4b25      	ldr	r3, [pc, #148]	; (548 <FlashInit+0xcc>)
     4b4:	f859 3003 	ldr.w	r3, [r9, r3]
     4b8:	4a21      	ldr	r2, [pc, #132]	; (540 <FlashInit+0xc4>)
     4ba:	601a      	str	r2, [r3, #0]
     4bc:	4b22      	ldr	r3, [pc, #136]	; (548 <FlashInit+0xcc>)
     4be:	f859 3003 	ldr.w	r3, [r9, r3]
     4c2:	f04f 0200 	mov.w	r2, #0
     4c6:	605a      	str	r2, [r3, #4]
     4c8:	4b1f      	ldr	r3, [pc, #124]	; (548 <FlashInit+0xcc>)
     4ca:	f859 3003 	ldr.w	r3, [r9, r3]
     4ce:	f44f 1280 	mov.w	r2, #1048576	; 0x100000
     4d2:	609a      	str	r2, [r3, #8]
     4d4:	4b1c      	ldr	r3, [pc, #112]	; (548 <FlashInit+0xcc>)
     4d6:	f859 3003 	ldr.w	r3, [r9, r3]
     4da:	f04f 5280 	mov.w	r2, #268435456	; 0x10000000
     4de:	60da      	str	r2, [r3, #12]
     4e0:	4b19      	ldr	r3, [pc, #100]	; (548 <FlashInit+0xcc>)
     4e2:	f859 3003 	ldr.w	r3, [r9, r3]
     4e6:	f04f 52a0 	mov.w	r2, #335544320	; 0x14000000
     4ea:	615a      	str	r2, [r3, #20]
     4ec:	4b16      	ldr	r3, [pc, #88]	; (548 <FlashInit+0xcc>)
     4ee:	f859 3003 	ldr.w	r3, [r9, r3]
     4f2:	f44f 4280 	mov.w	r2, #16384	; 0x4000
     4f6:	619a      	str	r2, [r3, #24]
     4f8:	4b13      	ldr	r3, [pc, #76]	; (548 <FlashInit+0xcc>)
     4fa:	f859 3003 	ldr.w	r3, [r9, r3]
     4fe:	f04f 0200 	mov.w	r2, #0
     502:	f883 2020 	strb.w	r2, [r3, #32]
     506:	4b10      	ldr	r3, [pc, #64]	; (548 <FlashInit+0xcc>)
     508:	f859 3003 	ldr.w	r3, [r9, r3]
     50c:	f04f 32ff 	mov.w	r2, #4294967295
     510:	625a      	str	r2, [r3, #36]	; 0x24
     512:	4b0d      	ldr	r3, [pc, #52]	; (548 <FlashInit+0xcc>)
     514:	f859 3003 	ldr.w	r3, [r9, r3]
     518:	4618      	mov	r0, r3
     51a:	f000 fb3f 	bl	b9c <FlashInit0>
     51e:	4603      	mov	r3, r0
     520:	2b00      	cmp	r3, #0
     522:	d002      	beq.n	52a <FlashInit+0xae>
     524:	f04f 0301 	mov.w	r3, #1
     528:	e001      	b.n	52e <FlashInit+0xb2>
     52a:	f04f 0300 	mov.w	r3, #0
     52e:	4618      	mov	r0, r3
     530:	f107 0710 	add.w	r7, r7, #16
     534:	46bd      	mov	sp, r7
     536:	bd80      	pop	{r7, pc}
     538:	4005200e 	andmi	r2, r5, lr
     53c:	40052000 	andmi	r2, r5, r0
     540:	40020000 	andmi	r0, r2, r0
     544:	00000008 	andeq	r0, r0, r8
     548:	00000000 	andeq	r0, r0, r0

0000054c <FlashUnInit>:
     54c:	b480      	push	{r7}
     54e:	b083      	sub	sp, #12
     550:	af00      	add	r7, sp, #0
     552:	6078      	str	r0, [r7, #4]
     554:	f04f 0300 	mov.w	r3, #0
     558:	4618      	mov	r0, r3
     55a:	f107 070c 	add.w	r7, r7, #12
     55e:	46bd      	mov	sp, r7
     560:	bc80      	pop	{r7}
     562:	4770      	bx	lr

00000564 <FlashEraseSector>:
     564:	b580      	push	{r7, lr}
     566:	b082      	sub	sp, #8
     568:	af00      	add	r7, sp, #0
     56a:	6078      	str	r0, [r7, #4]
     56c:	4b0c      	ldr	r3, [pc, #48]	; (5a0 <FlashEraseSector+0x3c>)
     56e:	f859 3003 	ldr.w	r3, [r9, r3]
     572:	4618      	mov	r0, r3
     574:	6879      	ldr	r1, [r7, #4]
     576:	f44f 6200 	mov.w	r2, #2048	; 0x800
     57a:	4b0a      	ldr	r3, [pc, #40]	; (5a4 <FlashEraseSector+0x40>)
     57c:	f859 3003 	ldr.w	r3, [r9, r3]
     580:	f000 fa5a 	bl	a38 <FlashEraseSector0>
     584:	4603      	mov	r3, r0
     586:	2b00      	cmp	r3, #0
     588:	d002      	beq.n	590 <FlashEraseSector+0x2c>
     58a:	f04f 0301 	mov.w	r3, #1
     58e:	e001      	b.n	594 <FlashEraseSector+0x30>
     590:	f04f 0300 	mov.w	r3, #0
     594:	4618      	mov	r0, r3
     596:	f107 0708 	add.w	r7, r7, #8
     59a:	46bd      	mov	sp, r7
     59c:	bd80      	pop	{r7, pc}
     59e:	bf00      	nop
     5a0:	00000000 	andeq	r0, r0, r0
     5a4:	00000004 	andeq	r0, r0, r4

000005a8 <FlashEraseChip>:
     5a8:	b580      	push	{r7, lr}
     5aa:	b082      	sub	sp, #8
     5ac:	af02      	add	r7, sp, #8
     5ae:	4b15      	ldr	r3, [pc, #84]	; (604 <FlashEraseChip+0x5c>)
     5b0:	f859 3003 	ldr.w	r3, [r9, r3]
     5b4:	4618      	mov	r0, r3
     5b6:	4b14      	ldr	r3, [pc, #80]	; (608 <FlashEraseChip+0x60>)
     5b8:	f859 3003 	ldr.w	r3, [r9, r3]
     5bc:	4619      	mov	r1, r3
     5be:	f000 f9b1 	bl	924 <FlashEraseAllBlock>
     5c2:	4603      	mov	r3, r0
     5c4:	2b00      	cmp	r3, #0
     5c6:	d002      	beq.n	5ce <FlashEraseChip+0x26>
     5c8:	f04f 0301 	mov.w	r3, #1
     5cc:	e017      	b.n	5fe <FlashEraseChip+0x56>
     5ce:	4b0f      	ldr	r3, [pc, #60]	; (60c <FlashEraseChip+0x64>)
     5d0:	447b      	add	r3, pc
     5d2:	4a0d      	ldr	r2, [pc, #52]	; (608 <FlashEraseChip+0x60>)
     5d4:	f859 2002 	ldr.w	r2, [r9, r2]
     5d8:	9200      	str	r2, [sp, #0]
     5da:	4a0a      	ldr	r2, [pc, #40]	; (604 <FlashEraseChip+0x5c>)
     5dc:	f859 2002 	ldr.w	r2, [r9, r2]
     5e0:	4610      	mov	r0, r2
     5e2:	f44f 6181 	mov.w	r1, #1032	; 0x408
     5e6:	f04f 0208 	mov.w	r2, #8
     5ea:	f7ff fe97 	bl	31c <FlashProgramPhrase>
     5ee:	4603      	mov	r3, r0
     5f0:	2b00      	cmp	r3, #0
     5f2:	d002      	beq.n	5fa <FlashEraseChip+0x52>
     5f4:	f04f 0301 	mov.w	r3, #1
     5f8:	e001      	b.n	5fe <FlashEraseChip+0x56>
     5fa:	f04f 0300 	mov.w	r3, #0
     5fe:	4618      	mov	r0, r3
     600:	46bd      	mov	sp, r7
     602:	bd80      	pop	{r7, pc}
     604:	00000000 	andeq	r0, r0, r0
     608:	00000004 	andeq	r0, r0, r4
     60c:	000017a4 	andeq	r1, r0, r4, lsr #15

00000610 <FlashProgramPage>:
     610:	b580      	push	{r7, lr}
     612:	b086      	sub	sp, #24
     614:	af02      	add	r7, sp, #8
     616:	60f8      	str	r0, [r7, #12]
     618:	60b9      	str	r1, [r7, #8]
     61a:	607a      	str	r2, [r7, #4]
     61c:	68bb      	ldr	r3, [r7, #8]
     61e:	f103 0307 	add.w	r3, r3, #7
     622:	f023 0307 	bic.w	r3, r3, #7
     626:	60bb      	str	r3, [r7, #8]
     628:	687b      	ldr	r3, [r7, #4]
     62a:	4a0c      	ldr	r2, [pc, #48]	; (65c <FlashProgramPage+0x4c>)
     62c:	f859 2002 	ldr.w	r2, [r9, r2]
     630:	9200      	str	r2, [sp, #0]
     632:	4a0b      	ldr	r2, [pc, #44]	; (660 <FlashProgramPage+0x50>)
     634:	f859 2002 	ldr.w	r2, [r9, r2]
     638:	4610      	mov	r0, r2
     63a:	68f9      	ldr	r1, [r7, #12]
     63c:	68ba      	ldr	r2, [r7, #8]
     63e:	f7ff fe6d 	bl	31c <FlashProgramPhrase>
     642:	4603      	mov	r3, r0
     644:	2b00      	cmp	r3, #0
     646:	d002      	beq.n	64e <FlashProgramPage+0x3e>
     648:	f04f 0301 	mov.w	r3, #1
     64c:	e001      	b.n	652 <FlashProgramPage+0x42>
     64e:	f04f 0300 	mov.w	r3, #0
     652:	4618      	mov	r0, r3
     654:	f107 0710 	add.w	r7, r7, #16
     658:	46bd      	mov	sp, r7
     65a:	bd80      	pop	{r7, pc}
     65c:	00000004 	andeq	r0, r0, r4
     660:	00000000 	andeq	r0, r0, r0

00000664 <FlashCheckSum>:
     664:	b580      	push	{r7, lr}
     666:	b088      	sub	sp, #32
     668:	af00      	add	r7, sp, #0
     66a:	60f8      	str	r0, [r7, #12]
     66c:	60b9      	str	r1, [r7, #8]
     66e:	607a      	str	r2, [r7, #4]
     670:	603b      	str	r3, [r7, #0]
     672:	f04f 0300 	mov.w	r3, #0
     676:	61fb      	str	r3, [r7, #28]
     678:	f04f 0300 	mov.w	r3, #0
     67c:	61bb      	str	r3, [r7, #24]
     67e:	68ba      	ldr	r2, [r7, #8]
     680:	687b      	ldr	r3, [r7, #4]
     682:	18d3      	adds	r3, r2, r3
     684:	617b      	str	r3, [r7, #20]
     686:	68fb      	ldr	r3, [r7, #12]
     688:	685a      	ldr	r2, [r3, #4]
     68a:	68bb      	ldr	r3, [r7, #8]
     68c:	429a      	cmp	r2, r3
     68e:	d807      	bhi.n	6a0 <FlashCheckSum+0x3c>
     690:	68fb      	ldr	r3, [r7, #12]
     692:	685a      	ldr	r2, [r3, #4]
     694:	68fb      	ldr	r3, [r7, #12]
     696:	689b      	ldr	r3, [r3, #8]
     698:	18d2      	adds	r2, r2, r3
     69a:	697b      	ldr	r3, [r7, #20]
     69c:	429a      	cmp	r2, r3
     69e:	d210      	bcs.n	6c2 <FlashCheckSum+0x5e>
     6a0:	68fb      	ldr	r3, [r7, #12]
     6a2:	68da      	ldr	r2, [r3, #12]
     6a4:	68bb      	ldr	r3, [r7, #8]
     6a6:	429a      	cmp	r2, r3
     6a8:	d807      	bhi.n	6ba <FlashCheckSum+0x56>
     6aa:	68fb      	ldr	r3, [r7, #12]
     6ac:	68da      	ldr	r2, [r3, #12]
     6ae:	68fb      	ldr	r3, [r7, #12]
     6b0:	691b      	ldr	r3, [r3, #16]
     6b2:	18d2      	adds	r2, r2, r3
     6b4:	697b      	ldr	r3, [r7, #20]
     6b6:	429a      	cmp	r2, r3
     6b8:	d203      	bcs.n	6c2 <FlashCheckSum+0x5e>
     6ba:	f04f 0302 	mov.w	r3, #2
     6be:	61bb      	str	r3, [r7, #24]
     6c0:	e02f      	b.n	722 <FlashCheckSum+0xbe>
     6c2:	69bb      	ldr	r3, [r7, #24]
     6c4:	2b00      	cmp	r3, #0
     6c6:	d12c      	bne.n	722 <FlashCheckSum+0xbe>
     6c8:	683b      	ldr	r3, [r7, #0]
     6ca:	f04f 0200 	mov.w	r2, #0
     6ce:	601a      	str	r2, [r3, #0]
     6d0:	e023      	b.n	71a <FlashCheckSum+0xb6>
     6d2:	68bb      	ldr	r3, [r7, #8]
     6d4:	781b      	ldrb	r3, [r3, #0]
     6d6:	b2db      	uxtb	r3, r3
     6d8:	613b      	str	r3, [r7, #16]
     6da:	683b      	ldr	r3, [r7, #0]
     6dc:	681a      	ldr	r2, [r3, #0]
     6de:	693b      	ldr	r3, [r7, #16]
     6e0:	18d2      	adds	r2, r2, r3
     6e2:	683b      	ldr	r3, [r7, #0]
     6e4:	601a      	str	r2, [r3, #0]
     6e6:	68bb      	ldr	r3, [r7, #8]
     6e8:	f103 0301 	add.w	r3, r3, #1
     6ec:	60bb      	str	r3, [r7, #8]
     6ee:	687b      	ldr	r3, [r7, #4]
     6f0:	f103 33ff 	add.w	r3, r3, #4294967295
     6f4:	607b      	str	r3, [r7, #4]
     6f6:	69fb      	ldr	r3, [r7, #28]
     6f8:	f103 0301 	add.w	r3, r3, #1
     6fc:	61fb      	str	r3, [r7, #28]
     6fe:	69fb      	ldr	r3, [r7, #28]
     700:	2b00      	cmp	r3, #0
     702:	d00a      	beq.n	71a <FlashCheckSum+0xb6>
     704:	68fb      	ldr	r3, [r7, #12]
     706:	6a5b      	ldr	r3, [r3, #36]	; 0x24
     708:	f1b3 3fff 	cmp.w	r3, #4294967295
     70c:	d002      	beq.n	714 <FlashCheckSum+0xb0>
     70e:	68fb      	ldr	r3, [r7, #12]
     710:	6a5b      	ldr	r3, [r3, #36]	; 0x24
     712:	4798      	blx	r3
     714:	f04f 0300 	mov.w	r3, #0
     718:	61fb      	str	r3, [r7, #28]
     71a:	68ba      	ldr	r2, [r7, #8]
     71c:	697b      	ldr	r3, [r7, #20]
     71e:	429a      	cmp	r2, r3
     720:	d3d7      	bcc.n	6d2 <FlashCheckSum+0x6e>
     722:	69bb      	ldr	r3, [r7, #24]
     724:	4618      	mov	r0, r3
     726:	f107 0720 	add.w	r7, r7, #32
     72a:	46bd      	mov	sp, r7
     72c:	bd80      	pop	{r7, pc}
     72e:	bf00      	nop

00000730 <FlashCommandSequence>:
     730:	b580      	push	{r7, lr}
     732:	b088      	sub	sp, #32
     734:	af00      	add	r7, sp, #0
     736:	60f8      	str	r0, [r7, #12]
     738:	460b      	mov	r3, r1
     73a:	607a      	str	r2, [r7, #4]
     73c:	72fb      	strb	r3, [r7, #11]
     73e:	f04f 0300 	mov.w	r3, #0
     742:	61bb      	str	r3, [r7, #24]
     744:	bf00      	nop
     746:	68fb      	ldr	r3, [r7, #12]
     748:	681b      	ldr	r3, [r3, #0]
     74a:	781b      	ldrb	r3, [r3, #0]
     74c:	b2db      	uxtb	r3, r3
     74e:	b2db      	uxtb	r3, r3
     750:	b25b      	sxtb	r3, r3
     752:	2b00      	cmp	r3, #0
     754:	daf7      	bge.n	746 <FlashCommandSequence+0x16>
     756:	68fb      	ldr	r3, [r7, #12]
     758:	681b      	ldr	r3, [r3, #0]
     75a:	f04f 0270 	mov.w	r2, #112	; 0x70
     75e:	701a      	strb	r2, [r3, #0]
     760:	f04f 0300 	mov.w	r3, #0
     764:	77fb      	strb	r3, [r7, #31]
     766:	e09e      	b.n	8a6 <FlashCommandSequence+0x176>
     768:	7ffb      	ldrb	r3, [r7, #31]
     76a:	2b0b      	cmp	r3, #11
     76c:	f200 8096 	bhi.w	89c <FlashCommandSequence+0x16c>
     770:	a102      	add	r1, pc, #8	; (adr r1, 77c <FlashCommandSequence+0x4c>)
     772:	f851 2023 	ldr.w	r2, [r1, r3, lsl #2]
     776:	4411      	add	r1, r2
     778:	4708      	bx	r1
     77a:	bf00      	nop
     77c:	00000031 	andeq	r0, r0, r1, lsr r0
     780:	00000045 	andeq	r0, r0, r5, asr #32
     784:	00000059 	andeq	r0, r0, r9, asr r0
     788:	0000006d 	andeq	r0, r0, sp, rrx
     78c:	00000081 	andeq	r0, r0, r1, lsl #1
     790:	00000095 	muleq	r0, r5, r0
     794:	000000a9 	andeq	r0, r0, r9, lsr #1
     798:	000000bd 	strheq	r0, [r0], -sp
     79c:	000000d1 	ldrdeq	r0, [r0], -r1
     7a0:	000000e5 	andeq	r0, r0, r5, ror #1
     7a4:	000000f9 	strdeq	r0, [r0], -r9
     7a8:	0000010d 	andeq	r0, r0, sp, lsl #2
     7ac:	68fb      	ldr	r3, [r7, #12]
     7ae:	681b      	ldr	r3, [r3, #0]
     7b0:	f103 0307 	add.w	r3, r3, #7
     7b4:	7ffa      	ldrb	r2, [r7, #31]
     7b6:	6879      	ldr	r1, [r7, #4]
     7b8:	188a      	adds	r2, r1, r2
     7ba:	7812      	ldrb	r2, [r2, #0]
     7bc:	701a      	strb	r2, [r3, #0]
     7be:	e06e      	b.n	89e <FlashCommandSequence+0x16e>
     7c0:	68fb      	ldr	r3, [r7, #12]
     7c2:	681b      	ldr	r3, [r3, #0]
     7c4:	f103 0306 	add.w	r3, r3, #6
     7c8:	7ffa      	ldrb	r2, [r7, #31]
     7ca:	6879      	ldr	r1, [r7, #4]
     7cc:	188a      	adds	r2, r1, r2
     7ce:	7812      	ldrb	r2, [r2, #0]
     7d0:	701a      	strb	r2, [r3, #0]
     7d2:	e064      	b.n	89e <FlashCommandSequence+0x16e>
     7d4:	68fb      	ldr	r3, [r7, #12]
     7d6:	681b      	ldr	r3, [r3, #0]
     7d8:	f103 0305 	add.w	r3, r3, #5
     7dc:	7ffa      	ldrb	r2, [r7, #31]
     7de:	6879      	ldr	r1, [r7, #4]
     7e0:	188a      	adds	r2, r1, r2
     7e2:	7812      	ldrb	r2, [r2, #0]
     7e4:	701a      	strb	r2, [r3, #0]
     7e6:	e05a      	b.n	89e <FlashCommandSequence+0x16e>
     7e8:	68fb      	ldr	r3, [r7, #12]
     7ea:	681b      	ldr	r3, [r3, #0]
     7ec:	f103 0304 	add.w	r3, r3, #4
     7f0:	7ffa      	ldrb	r2, [r7, #31]
     7f2:	6879      	ldr	r1, [r7, #4]
     7f4:	188a      	adds	r2, r1, r2
     7f6:	7812      	ldrb	r2, [r2, #0]
     7f8:	701a      	strb	r2, [r3, #0]
     7fa:	e050      	b.n	89e <FlashCommandSequence+0x16e>
     7fc:	68fb      	ldr	r3, [r7, #12]
     7fe:	681b      	ldr	r3, [r3, #0]
     800:	f103 030b 	add.w	r3, r3, #11
     804:	7ffa      	ldrb	r2, [r7, #31]
     806:	6879      	ldr	r1, [r7, #4]
     808:	188a      	adds	r2, r1, r2
     80a:	7812      	ldrb	r2, [r2, #0]
     80c:	701a      	strb	r2, [r3, #0]
     80e:	e046      	b.n	89e <FlashCommandSequence+0x16e>
     810:	68fb      	ldr	r3, [r7, #12]
     812:	681b      	ldr	r3, [r3, #0]
     814:	f103 030a 	add.w	r3, r3, #10
     818:	7ffa      	ldrb	r2, [r7, #31]
     81a:	6879      	ldr	r1, [r7, #4]
     81c:	188a      	adds	r2, r1, r2
     81e:	7812      	ldrb	r2, [r2, #0]
     820:	701a      	strb	r2, [r3, #0]
     822:	e03c      	b.n	89e <FlashCommandSequence+0x16e>
     824:	68fb      	ldr	r3, [r7, #12]
     826:	681b      	ldr	r3, [r3, #0]
     828:	f103 0309 	add.w	r3, r3, #9
     82c:	7ffa      	ldrb	r2, [r7, #31]
     82e:	6879      	ldr	r1, [r7, #4]
     830:	188a      	adds	r2, r1, r2
     832:	7812      	ldrb	r2, [r2, #0]
     834:	701a      	strb	r2, [r3, #0]
     836:	e032      	b.n	89e <FlashCommandSequence+0x16e>
     838:	68fb      	ldr	r3, [r7, #12]
     83a:	681b      	ldr	r3, [r3, #0]
     83c:	f103 0308 	add.w	r3, r3, #8
     840:	7ffa      	ldrb	r2, [r7, #31]
     842:	6879      	ldr	r1, [r7, #4]
     844:	188a      	adds	r2, r1, r2
     846:	7812      	ldrb	r2, [r2, #0]
     848:	701a      	strb	r2, [r3, #0]
     84a:	e028      	b.n	89e <FlashCommandSequence+0x16e>
     84c:	68fb      	ldr	r3, [r7, #12]
     84e:	681b      	ldr	r3, [r3, #0]
     850:	f103 030f 	add.w	r3, r3, #15
     854:	7ffa      	ldrb	r2, [r7, #31]
     856:	6879      	ldr	r1, [r7, #4]
     858:	188a      	adds	r2, r1, r2
     85a:	7812      	ldrb	r2, [r2, #0]
     85c:	701a      	strb	r2, [r3, #0]
     85e:	e01e      	b.n	89e <FlashCommandSequence+0x16e>
     860:	68fb      	ldr	r3, [r7, #12]
     862:	681b      	ldr	r3, [r3, #0]
     864:	f103 030e 	add.w	r3, r3, #14
     868:	7ffa      	ldrb	r2, [r7, #31]
     86a:	6879      	ldr	r1, [r7, #4]
     86c:	188a      	adds	r2, r1, r2
     86e:	7812      	ldrb	r2, [r2, #0]
     870:	701a      	strb	r2, [r3, #0]
     872:	e014      	b.n	89e <FlashCommandSequence+0x16e>
     874:	68fb      	ldr	r3, [r7, #12]
     876:	681b      	ldr	r3, [r3, #0]
     878:	f103 030d 	add.w	r3, r3, #13
     87c:	7ffa      	ldrb	r2, [r7, #31]
     87e:	6879      	ldr	r1, [r7, #4]
     880:	188a      	adds	r2, r1, r2
     882:	7812      	ldrb	r2, [r2, #0]
     884:	701a      	strb	r2, [r3, #0]
     886:	e00a      	b.n	89e <FlashCommandSequence+0x16e>
     888:	68fb      	ldr	r3, [r7, #12]
     88a:	681b      	ldr	r3, [r3, #0]
     88c:	f103 030c 	add.w	r3, r3, #12
     890:	7ffa      	ldrb	r2, [r7, #31]
     892:	6879      	ldr	r1, [r7, #4]
     894:	188a      	adds	r2, r1, r2
     896:	7812      	ldrb	r2, [r2, #0]
     898:	701a      	strb	r2, [r3, #0]
     89a:	e000      	b.n	89e <FlashCommandSequence+0x16e>
     89c:	bf00      	nop
     89e:	7ffb      	ldrb	r3, [r7, #31]
     8a0:	f103 0301 	add.w	r3, r3, #1
     8a4:	77fb      	strb	r3, [r7, #31]
     8a6:	7ffa      	ldrb	r2, [r7, #31]
     8a8:	7afb      	ldrb	r3, [r7, #11]
     8aa:	429a      	cmp	r2, r3
     8ac:	f67f af5c 	bls.w	768 <FlashCommandSequence+0x38>
     8b0:	68fb      	ldr	r3, [r7, #12]
     8b2:	681b      	ldr	r3, [r3, #0]
     8b4:	f04f 0280 	mov.w	r2, #128	; 0x80
     8b8:	701a      	strb	r2, [r3, #0]
     8ba:	e007      	b.n	8cc <FlashCommandSequence+0x19c>
     8bc:	68fb      	ldr	r3, [r7, #12]
     8be:	6a5b      	ldr	r3, [r3, #36]	; 0x24
     8c0:	f1b3 3fff 	cmp.w	r3, #4294967295
     8c4:	d002      	beq.n	8cc <FlashCommandSequence+0x19c>
     8c6:	68fb      	ldr	r3, [r7, #12]
     8c8:	6a5b      	ldr	r3, [r3, #36]	; 0x24
     8ca:	4798      	blx	r3
     8cc:	68fb      	ldr	r3, [r7, #12]
     8ce:	681b      	ldr	r3, [r3, #0]
     8d0:	781b      	ldrb	r3, [r3, #0]
     8d2:	b2db      	uxtb	r3, r3
     8d4:	b2db      	uxtb	r3, r3
     8d6:	b25b      	sxtb	r3, r3
     8d8:	2b00      	cmp	r3, #0
     8da:	daef      	bge.n	8bc <FlashCommandSequence+0x18c>
     8dc:	68fb      	ldr	r3, [r7, #12]
     8de:	681b      	ldr	r3, [r3, #0]
     8e0:	781b      	ldrb	r3, [r3, #0]
     8e2:	75fb      	strb	r3, [r7, #23]
     8e4:	7dfb      	ldrb	r3, [r7, #23]
     8e6:	f003 0320 	and.w	r3, r3, #32
     8ea:	2b00      	cmp	r3, #0
     8ec:	d003      	beq.n	8f6 <FlashCommandSequence+0x1c6>
     8ee:	f04f 0304 	mov.w	r3, #4
     8f2:	61bb      	str	r3, [r7, #24]
     8f4:	e010      	b.n	918 <FlashCommandSequence+0x1e8>
     8f6:	7dfb      	ldrb	r3, [r7, #23]
     8f8:	f003 0310 	and.w	r3, r3, #16
     8fc:	2b00      	cmp	r3, #0
     8fe:	d003      	beq.n	908 <FlashCommandSequence+0x1d8>
     900:	f04f 0308 	mov.w	r3, #8
     904:	61bb      	str	r3, [r7, #24]
     906:	e007      	b.n	918 <FlashCommandSequence+0x1e8>
     908:	7dfb      	ldrb	r3, [r7, #23]
     90a:	f003 0301 	and.w	r3, r3, #1
     90e:	2b00      	cmp	r3, #0
     910:	d002      	beq.n	918 <FlashCommandSequence+0x1e8>
     912:	f04f 0310 	mov.w	r3, #16
     916:	61bb      	str	r3, [r7, #24]
     918:	69bb      	ldr	r3, [r7, #24]
     91a:	4618      	mov	r0, r3
     91c:	f107 0720 	add.w	r7, r7, #32
     920:	46bd      	mov	sp, r7
     922:	bd80      	pop	{r7, pc}

00000924 <FlashEraseAllBlock>:
     924:	b580      	push	{r7, lr}
     926:	b084      	sub	sp, #16
     928:	af00      	add	r7, sp, #0
     92a:	6078      	str	r0, [r7, #4]
     92c:	6039      	str	r1, [r7, #0]
     92e:	f04f 0300 	mov.w	r3, #0
     932:	60fb      	str	r3, [r7, #12]
     934:	f04f 0344 	mov.w	r3, #68	; 0x44
     938:	723b      	strb	r3, [r7, #8]
     93a:	f107 0208 	add.w	r2, r7, #8
     93e:	683b      	ldr	r3, [r7, #0]
     940:	6878      	ldr	r0, [r7, #4]
     942:	f04f 0100 	mov.w	r1, #0
     946:	4798      	blx	r3
     948:	60f8      	str	r0, [r7, #12]
     94a:	68fb      	ldr	r3, [r7, #12]
     94c:	4618      	mov	r0, r3
     94e:	f107 0710 	add.w	r7, r7, #16
     952:	46bd      	mov	sp, r7
     954:	bd80      	pop	{r7, pc}
     956:	bf00      	nop

00000958 <FlashEraseBlock>:
     958:	b580      	push	{r7, lr}
     95a:	b086      	sub	sp, #24
     95c:	af00      	add	r7, sp, #0
     95e:	60f8      	str	r0, [r7, #12]
     960:	60b9      	str	r1, [r7, #8]
     962:	607a      	str	r2, [r7, #4]
     964:	f04f 0300 	mov.w	r3, #0
     968:	617b      	str	r3, [r7, #20]
     96a:	68bb      	ldr	r3, [r7, #8]
     96c:	f003 0303 	and.w	r3, r3, #3
     970:	2b00      	cmp	r3, #0
     972:	d003      	beq.n	97c <FlashEraseBlock+0x24>
     974:	f44f 7380 	mov.w	r3, #256	; 0x100
     978:	617b      	str	r3, [r7, #20]
     97a:	e042      	b.n	a02 <FlashEraseBlock+0xaa>
     97c:	68fb      	ldr	r3, [r7, #12]
     97e:	685a      	ldr	r2, [r3, #4]
     980:	68bb      	ldr	r3, [r7, #8]
     982:	429a      	cmp	r2, r3
     984:	d807      	bhi.n	996 <FlashEraseBlock+0x3e>
     986:	68fb      	ldr	r3, [r7, #12]
     988:	685a      	ldr	r2, [r3, #4]
     98a:	68fb      	ldr	r3, [r7, #12]
     98c:	689b      	ldr	r3, [r3, #8]
     98e:	18d2      	adds	r2, r2, r3
     990:	68bb      	ldr	r3, [r7, #8]
     992:	429a      	cmp	r2, r3
     994:	d818      	bhi.n	9c8 <FlashEraseBlock+0x70>
     996:	68fb      	ldr	r3, [r7, #12]
     998:	68da      	ldr	r2, [r3, #12]
     99a:	68bb      	ldr	r3, [r7, #8]
     99c:	429a      	cmp	r2, r3
     99e:	d807      	bhi.n	9b0 <FlashEraseBlock+0x58>
     9a0:	68fb      	ldr	r3, [r7, #12]
     9a2:	68da      	ldr	r2, [r3, #12]
     9a4:	68fb      	ldr	r3, [r7, #12]
     9a6:	691b      	ldr	r3, [r3, #16]
     9a8:	18d2      	adds	r2, r2, r3
     9aa:	68bb      	ldr	r3, [r7, #8]
     9ac:	429a      	cmp	r2, r3
     9ae:	d803      	bhi.n	9b8 <FlashEraseBlock+0x60>
     9b0:	f04f 0302 	mov.w	r3, #2
     9b4:	617b      	str	r3, [r7, #20]
     9b6:	e024      	b.n	a02 <FlashEraseBlock+0xaa>
     9b8:	68fb      	ldr	r3, [r7, #12]
     9ba:	68db      	ldr	r3, [r3, #12]
     9bc:	68ba      	ldr	r2, [r7, #8]
     9be:	1ad3      	subs	r3, r2, r3
     9c0:	f503 0300 	add.w	r3, r3, #8388608	; 0x800000
     9c4:	60bb      	str	r3, [r7, #8]
     9c6:	e004      	b.n	9d2 <FlashEraseBlock+0x7a>
     9c8:	68fb      	ldr	r3, [r7, #12]
     9ca:	685b      	ldr	r3, [r3, #4]
     9cc:	68ba      	ldr	r2, [r7, #8]
     9ce:	1ad3      	subs	r3, r2, r3
     9d0:	60bb      	str	r3, [r7, #8]
     9d2:	f04f 0308 	mov.w	r3, #8
     9d6:	743b      	strb	r3, [r7, #16]
     9d8:	68bb      	ldr	r3, [r7, #8]
     9da:	ea4f 4313 	mov.w	r3, r3, lsr #16
     9de:	b2db      	uxtb	r3, r3
     9e0:	747b      	strb	r3, [r7, #17]
     9e2:	68bb      	ldr	r3, [r7, #8]
     9e4:	ea4f 2313 	mov.w	r3, r3, lsr #8
     9e8:	b2db      	uxtb	r3, r3
     9ea:	74bb      	strb	r3, [r7, #18]
     9ec:	68bb      	ldr	r3, [r7, #8]
     9ee:	b2db      	uxtb	r3, r3
     9f0:	74fb      	strb	r3, [r7, #19]
     9f2:	f107 0210 	add.w	r2, r7, #16
     9f6:	687b      	ldr	r3, [r7, #4]
     9f8:	68f8      	ldr	r0, [r7, #12]
     9fa:	f04f 0103 	mov.w	r1, #3
     9fe:	4798      	blx	r3
     a00:	6178      	str	r0, [r7, #20]
     a02:	697b      	ldr	r3, [r7, #20]
     a04:	4618      	mov	r0, r3
     a06:	f107 0718 	add.w	r7, r7, #24
     a0a:	46bd      	mov	sp, r7
     a0c:	bd80      	pop	{r7, pc}
     a0e:	bf00      	nop

00000a10 <FlashEraseResume>:
     a10:	b480      	push	{r7}
     a12:	b085      	sub	sp, #20
     a14:	af00      	add	r7, sp, #0
     a16:	6078      	str	r0, [r7, #4]
     a18:	f04f 0300 	mov.w	r3, #0
     a1c:	60fb      	str	r3, [r7, #12]
     a1e:	687b      	ldr	r3, [r7, #4]
     a20:	681b      	ldr	r3, [r3, #0]
     a22:	f103 0301 	add.w	r3, r3, #1
     a26:	781b      	ldrb	r3, [r3, #0]
     a28:	68fb      	ldr	r3, [r7, #12]
     a2a:	4618      	mov	r0, r3
     a2c:	f107 0714 	add.w	r7, r7, #20
     a30:	46bd      	mov	sp, r7
     a32:	bc80      	pop	{r7}
     a34:	4770      	bx	lr
     a36:	bf00      	nop

00000a38 <FlashEraseSector0>:
     a38:	b580      	push	{r7, lr}
     a3a:	b088      	sub	sp, #32
     a3c:	af00      	add	r7, sp, #0
     a3e:	60f8      	str	r0, [r7, #12]
     a40:	60b9      	str	r1, [r7, #8]
     a42:	607a      	str	r2, [r7, #4]
     a44:	603b      	str	r3, [r7, #0]
     a46:	687b      	ldr	r3, [r7, #4]
     a48:	61bb      	str	r3, [r7, #24]
     a4a:	f04f 0300 	mov.w	r3, #0
     a4e:	61fb      	str	r3, [r7, #28]
     a50:	69fb      	ldr	r3, [r7, #28]
     a52:	2b00      	cmp	r3, #0
     a54:	d128      	bne.n	aa8 <FlashEraseSector0+0x70>
     a56:	e022      	b.n	a9e <FlashEraseSector0+0x66>
     a58:	f04f 0309 	mov.w	r3, #9
     a5c:	753b      	strb	r3, [r7, #20]
     a5e:	68bb      	ldr	r3, [r7, #8]
     a60:	ea4f 4313 	mov.w	r3, r3, lsr #16
     a64:	b2db      	uxtb	r3, r3
     a66:	757b      	strb	r3, [r7, #21]
     a68:	68bb      	ldr	r3, [r7, #8]
     a6a:	ea4f 2313 	mov.w	r3, r3, lsr #8
     a6e:	b2db      	uxtb	r3, r3
     a70:	75bb      	strb	r3, [r7, #22]
     a72:	68bb      	ldr	r3, [r7, #8]
     a74:	b2db      	uxtb	r3, r3
     a76:	75fb      	strb	r3, [r7, #23]
     a78:	f107 0214 	add.w	r2, r7, #20
     a7c:	683b      	ldr	r3, [r7, #0]
     a7e:	68f8      	ldr	r0, [r7, #12]
     a80:	f04f 0103 	mov.w	r1, #3
     a84:	4798      	blx	r3
     a86:	61f8      	str	r0, [r7, #28]
     a88:	69fb      	ldr	r3, [r7, #28]
     a8a:	2b00      	cmp	r3, #0
     a8c:	d10b      	bne.n	aa6 <FlashEraseSector0+0x6e>
     a8e:	687a      	ldr	r2, [r7, #4]
     a90:	69bb      	ldr	r3, [r7, #24]
     a92:	1ad3      	subs	r3, r2, r3
     a94:	607b      	str	r3, [r7, #4]
     a96:	68ba      	ldr	r2, [r7, #8]
     a98:	69bb      	ldr	r3, [r7, #24]
     a9a:	18d3      	adds	r3, r2, r3
     a9c:	60bb      	str	r3, [r7, #8]
     a9e:	687b      	ldr	r3, [r7, #4]
     aa0:	2b00      	cmp	r3, #0
     aa2:	d1d9      	bne.n	a58 <FlashEraseSector0+0x20>
     aa4:	e000      	b.n	aa8 <FlashEraseSector0+0x70>
     aa6:	bf00      	nop
     aa8:	69fb      	ldr	r3, [r7, #28]
     aaa:	4618      	mov	r0, r3
     aac:	f107 0720 	add.w	r7, r7, #32
     ab0:	46bd      	mov	sp, r7
     ab2:	bd80      	pop	{r7, pc}

00000ab4 <FlashEraseSuspend>:
     ab4:	b480      	push	{r7}
     ab6:	b085      	sub	sp, #20
     ab8:	af00      	add	r7, sp, #0
     aba:	6078      	str	r0, [r7, #4]
     abc:	f04f 0300 	mov.w	r3, #0
     ac0:	60fb      	str	r3, [r7, #12]
     ac2:	687b      	ldr	r3, [r7, #4]
     ac4:	681b      	ldr	r3, [r3, #0]
     ac6:	781b      	ldrb	r3, [r3, #0]
     ac8:	b2db      	uxtb	r3, r3
     aca:	b2db      	uxtb	r3, r3
     acc:	b25b      	sxtb	r3, r3
     ace:	2b00      	cmp	r3, #0
     ad0:	db0d      	blt.n	aee <FlashEraseSuspend+0x3a>
     ad2:	687b      	ldr	r3, [r7, #4]
     ad4:	681b      	ldr	r3, [r3, #0]
     ad6:	f103 0301 	add.w	r3, r3, #1
     ada:	687a      	ldr	r2, [r7, #4]
     adc:	6812      	ldr	r2, [r2, #0]
     ade:	f102 0201 	add.w	r2, r2, #1
     ae2:	7812      	ldrb	r2, [r2, #0]
     ae4:	b2d2      	uxtb	r2, r2
     ae6:	f042 0210 	orr.w	r2, r2, #16
     aea:	b2d2      	uxtb	r2, r2
     aec:	701a      	strb	r2, [r3, #0]
     aee:	68fb      	ldr	r3, [r7, #12]
     af0:	4618      	mov	r0, r3
     af2:	f107 0714 	add.w	r7, r7, #20
     af6:	46bd      	mov	sp, r7
     af8:	bc80      	pop	{r7}
     afa:	4770      	bx	lr

00000afc <FlashGetInterruptEnable>:
     afc:	b480      	push	{r7}
     afe:	b085      	sub	sp, #20
     b00:	af00      	add	r7, sp, #0
     b02:	6078      	str	r0, [r7, #4]
     b04:	6039      	str	r1, [r7, #0]
     b06:	683b      	ldr	r3, [r7, #0]
     b08:	f04f 0200 	mov.w	r2, #0
     b0c:	701a      	strb	r2, [r3, #0]
     b0e:	687b      	ldr	r3, [r7, #4]
     b10:	681b      	ldr	r3, [r3, #0]
     b12:	f103 0301 	add.w	r3, r3, #1
     b16:	781b      	ldrb	r3, [r3, #0]
     b18:	73fb      	strb	r3, [r7, #15]
     b1a:	683b      	ldr	r3, [r7, #0]
     b1c:	781b      	ldrb	r3, [r3, #0]
     b1e:	b2da      	uxtb	r2, r3
     b20:	7bfb      	ldrb	r3, [r7, #15]
     b22:	f023 033f 	bic.w	r3, r3, #63	; 0x3f
     b26:	b2db      	uxtb	r3, r3
     b28:	4313      	orrs	r3, r2
     b2a:	b2db      	uxtb	r3, r3
     b2c:	b2da      	uxtb	r2, r3
     b2e:	683b      	ldr	r3, [r7, #0]
     b30:	701a      	strb	r2, [r3, #0]
     b32:	f04f 0300 	mov.w	r3, #0
     b36:	4618      	mov	r0, r3
     b38:	f107 0714 	add.w	r7, r7, #20
     b3c:	46bd      	mov	sp, r7
     b3e:	bc80      	pop	{r7}
     b40:	4770      	bx	lr
     b42:	bf00      	nop

00000b44 <FlashGetSecurityState>:
     b44:	b480      	push	{r7}
     b46:	b085      	sub	sp, #20
     b48:	af00      	add	r7, sp, #0
     b4a:	6078      	str	r0, [r7, #4]
     b4c:	6039      	str	r1, [r7, #0]
     b4e:	687b      	ldr	r3, [r7, #4]
     b50:	681b      	ldr	r3, [r3, #0]
     b52:	f103 0302 	add.w	r3, r3, #2
     b56:	781b      	ldrb	r3, [r3, #0]
     b58:	73fb      	strb	r3, [r7, #15]
     b5a:	7bfb      	ldrb	r3, [r7, #15]
     b5c:	f003 0303 	and.w	r3, r3, #3
     b60:	2b02      	cmp	r3, #2
     b62:	d104      	bne.n	b6e <FlashGetSecurityState+0x2a>
     b64:	683b      	ldr	r3, [r7, #0]
     b66:	f04f 0201 	mov.w	r2, #1
     b6a:	701a      	strb	r2, [r3, #0]
     b6c:	e00d      	b.n	b8a <FlashGetSecurityState+0x46>
     b6e:	7bfb      	ldrb	r3, [r7, #15]
     b70:	f003 03c0 	and.w	r3, r3, #192	; 0xc0
     b74:	2b80      	cmp	r3, #128	; 0x80
     b76:	d104      	bne.n	b82 <FlashGetSecurityState+0x3e>
     b78:	683b      	ldr	r3, [r7, #0]
     b7a:	f04f 0202 	mov.w	r2, #2
     b7e:	701a      	strb	r2, [r3, #0]
     b80:	e003      	b.n	b8a <FlashGetSecurityState+0x46>
     b82:	683b      	ldr	r3, [r7, #0]
     b84:	f04f 0204 	mov.w	r2, #4
     b88:	701a      	strb	r2, [r3, #0]
     b8a:	f04f 0300 	mov.w	r3, #0
     b8e:	4618      	mov	r0, r3
     b90:	f107 0714 	add.w	r7, r7, #20
     b94:	46bd      	mov	sp, r7
     b96:	bc80      	pop	{r7}
     b98:	4770      	bx	lr
     b9a:	bf00      	nop

00000b9c <FlashInit0>:
     b9c:	b480      	push	{r7}
     b9e:	b085      	sub	sp, #20
     ba0:	af00      	add	r7, sp, #0
     ba2:	6078      	str	r0, [r7, #4]
     ba4:	f04f 0300 	mov.w	r3, #0
     ba8:	60fb      	str	r3, [r7, #12]
     baa:	bf00      	nop
     bac:	687b      	ldr	r3, [r7, #4]
     bae:	681b      	ldr	r3, [r3, #0]
     bb0:	781b      	ldrb	r3, [r3, #0]
     bb2:	b2db      	uxtb	r3, r3
     bb4:	b2db      	uxtb	r3, r3
     bb6:	b25b      	sxtb	r3, r3
     bb8:	2b00      	cmp	r3, #0
     bba:	daf7      	bge.n	bac <FlashInit0+0x10>
     bbc:	687b      	ldr	r3, [r7, #4]
     bbe:	681b      	ldr	r3, [r3, #0]
     bc0:	f04f 0270 	mov.w	r2, #112	; 0x70
     bc4:	701a      	strb	r2, [r3, #0]
     bc6:	687b      	ldr	r3, [r7, #4]
     bc8:	681b      	ldr	r3, [r3, #0]
     bca:	f103 0307 	add.w	r3, r3, #7
     bce:	f04f 0203 	mov.w	r2, #3
     bd2:	701a      	strb	r2, [r3, #0]
     bd4:	687b      	ldr	r3, [r7, #4]
     bd6:	681b      	ldr	r3, [r3, #0]
     bd8:	f103 0306 	add.w	r3, r3, #6
     bdc:	f04f 0280 	mov.w	r2, #128	; 0x80
     be0:	701a      	strb	r2, [r3, #0]
     be2:	687b      	ldr	r3, [r7, #4]
     be4:	681b      	ldr	r3, [r3, #0]
     be6:	f103 0305 	add.w	r3, r3, #5
     bea:	f04f 0200 	mov.w	r2, #0
     bee:	701a      	strb	r2, [r3, #0]
     bf0:	687b      	ldr	r3, [r7, #4]
     bf2:	681b      	ldr	r3, [r3, #0]
     bf4:	f103 0304 	add.w	r3, r3, #4
     bf8:	f04f 02fc 	mov.w	r2, #252	; 0xfc
     bfc:	701a      	strb	r2, [r3, #0]
     bfe:	687b      	ldr	r3, [r7, #4]
     c00:	681b      	ldr	r3, [r3, #0]
     c02:	f103 030f 	add.w	r3, r3, #15
     c06:	f04f 0200 	mov.w	r2, #0
     c0a:	701a      	strb	r2, [r3, #0]
     c0c:	687b      	ldr	r3, [r7, #4]
     c0e:	681b      	ldr	r3, [r3, #0]
     c10:	f04f 0280 	mov.w	r2, #128	; 0x80
     c14:	701a      	strb	r2, [r3, #0]
     c16:	bf00      	nop
     c18:	687b      	ldr	r3, [r7, #4]
     c1a:	681b      	ldr	r3, [r3, #0]
     c1c:	781b      	ldrb	r3, [r3, #0]
     c1e:	b2db      	uxtb	r3, r3
     c20:	b2db      	uxtb	r3, r3
     c22:	b25b      	sxtb	r3, r3
     c24:	2b00      	cmp	r3, #0
     c26:	daf7      	bge.n	c18 <FlashInit0+0x7c>
     c28:	687b      	ldr	r3, [r7, #4]
     c2a:	681b      	ldr	r3, [r3, #0]
     c2c:	f103 0309 	add.w	r3, r3, #9
     c30:	781b      	ldrb	r3, [r3, #0]
     c32:	72fb      	strb	r3, [r7, #11]
     c34:	687b      	ldr	r3, [r7, #4]
     c36:	681b      	ldr	r3, [r3, #0]
     c38:	f103 0308 	add.w	r3, r3, #8
     c3c:	781b      	ldrb	r3, [r3, #0]
     c3e:	72bb      	strb	r3, [r7, #10]
     c40:	7abb      	ldrb	r3, [r7, #10]
     c42:	f003 030f 	and.w	r3, r3, #15
     c46:	2b0f      	cmp	r3, #15
     c48:	d874      	bhi.n	d34 <FlashInit0+0x198>
     c4a:	a102      	add	r1, pc, #8	; (adr r1, c54 <FlashInit0+0xb8>)
     c4c:	f851 2023 	ldr.w	r2, [r1, r3, lsl #2]
     c50:	4411      	add	r1, r2
     c52:	4708      	bx	r1
     c54:	00000041 	andeq	r0, r0, r1, asr #32
     c58:	0000004b 	andeq	r0, r0, fp, asr #32
     c5c:	00000055 	andeq	r0, r0, r5, asr r0
     c60:	0000005f 	andeq	r0, r0, pc, asr r0
     c64:	00000069 	andeq	r0, r0, r9, rrx
     c68:	00000073 	andeq	r0, r0, r3, ror r0
     c6c:	0000007d 	andeq	r0, r0, sp, ror r0
     c70:	00000087 	andeq	r0, r0, r7, lsl #1
     c74:	00000091 	muleq	r0, r1, r0
     c78:	0000009b 	muleq	r0, fp, r0
     c7c:	000000a5 	andeq	r0, r0, r5, lsr #1
     c80:	000000af 	andeq	r0, r0, pc, lsr #1
     c84:	000000b9 	strheq	r0, [r0], -r9
     c88:	000000c3 	andeq	r0, r0, r3, asr #1
     c8c:	000000cd 	andeq	r0, r0, sp, asr #1
     c90:	000000d7 	ldrdeq	r0, [r0], -r7
     c94:	687b      	ldr	r3, [r7, #4]
     c96:	f44f 2280 	mov.w	r2, #262144	; 0x40000
     c9a:	611a      	str	r2, [r3, #16]
     c9c:	e04b      	b.n	d36 <FlashInit0+0x19a>
     c9e:	687b      	ldr	r3, [r7, #4]
     ca0:	f44f 2280 	mov.w	r2, #262144	; 0x40000
     ca4:	611a      	str	r2, [r3, #16]
     ca6:	e046      	b.n	d36 <FlashInit0+0x19a>
     ca8:	687b      	ldr	r3, [r7, #4]
     caa:	f44f 3270 	mov.w	r2, #245760	; 0x3c000
     cae:	611a      	str	r2, [r3, #16]
     cb0:	e041      	b.n	d36 <FlashInit0+0x19a>
     cb2:	687b      	ldr	r3, [r7, #4]
     cb4:	f44f 3260 	mov.w	r2, #229376	; 0x38000
     cb8:	611a      	str	r2, [r3, #16]
     cba:	e03c      	b.n	d36 <FlashInit0+0x19a>
     cbc:	687b      	ldr	r3, [r7, #4]
     cbe:	f44f 3240 	mov.w	r2, #196608	; 0x30000
     cc2:	611a      	str	r2, [r3, #16]
     cc4:	e037      	b.n	d36 <FlashInit0+0x19a>
     cc6:	687b      	ldr	r3, [r7, #4]
     cc8:	f44f 3200 	mov.w	r2, #131072	; 0x20000
     ccc:	611a      	str	r2, [r3, #16]
     cce:	e032      	b.n	d36 <FlashInit0+0x19a>
     cd0:	687b      	ldr	r3, [r7, #4]
     cd2:	f04f 0200 	mov.w	r2, #0
     cd6:	611a      	str	r2, [r3, #16]
     cd8:	e02d      	b.n	d36 <FlashInit0+0x19a>
     cda:	687b      	ldr	r3, [r7, #4]
     cdc:	f44f 2280 	mov.w	r2, #262144	; 0x40000
     ce0:	611a      	str	r2, [r3, #16]
     ce2:	e028      	b.n	d36 <FlashInit0+0x19a>
     ce4:	687b      	ldr	r3, [r7, #4]
     ce6:	f04f 0200 	mov.w	r2, #0
     cea:	611a      	str	r2, [r3, #16]
     cec:	e023      	b.n	d36 <FlashInit0+0x19a>
     cee:	687b      	ldr	r3, [r7, #4]
     cf0:	f44f 2280 	mov.w	r2, #262144	; 0x40000
     cf4:	611a      	str	r2, [r3, #16]
     cf6:	e01e      	b.n	d36 <FlashInit0+0x19a>
     cf8:	687b      	ldr	r3, [r7, #4]
     cfa:	f44f 4280 	mov.w	r2, #16384	; 0x4000
     cfe:	611a      	str	r2, [r3, #16]
     d00:	e019      	b.n	d36 <FlashInit0+0x19a>
     d02:	687b      	ldr	r3, [r7, #4]
     d04:	f44f 4200 	mov.w	r2, #32768	; 0x8000
     d08:	611a      	str	r2, [r3, #16]
     d0a:	e014      	b.n	d36 <FlashInit0+0x19a>
     d0c:	687b      	ldr	r3, [r7, #4]
     d0e:	f44f 3280 	mov.w	r2, #65536	; 0x10000
     d12:	611a      	str	r2, [r3, #16]
     d14:	e00f      	b.n	d36 <FlashInit0+0x19a>
     d16:	687b      	ldr	r3, [r7, #4]
     d18:	f44f 3200 	mov.w	r2, #131072	; 0x20000
     d1c:	611a      	str	r2, [r3, #16]
     d1e:	e00a      	b.n	d36 <FlashInit0+0x19a>
     d20:	687b      	ldr	r3, [r7, #4]
     d22:	f44f 2280 	mov.w	r2, #262144	; 0x40000
     d26:	611a      	str	r2, [r3, #16]
     d28:	e005      	b.n	d36 <FlashInit0+0x19a>
     d2a:	687b      	ldr	r3, [r7, #4]
     d2c:	f44f 2280 	mov.w	r2, #262144	; 0x40000
     d30:	611a      	str	r2, [r3, #16]
     d32:	e000      	b.n	d36 <FlashInit0+0x19a>
     d34:	bf00      	nop
     d36:	7afb      	ldrb	r3, [r7, #11]
     d38:	f003 030f 	and.w	r3, r3, #15
     d3c:	2b0f      	cmp	r3, #15
     d3e:	d875      	bhi.n	e2c <FlashInit0+0x290>
     d40:	a102      	add	r1, pc, #8	; (adr r1, d4c <FlashInit0+0x1b0>)
     d42:	f851 2023 	ldr.w	r2, [r1, r3, lsl #2]
     d46:	4411      	add	r1, r2
     d48:	4708      	bx	r1
     d4a:	bf00      	nop
     d4c:	00000041 	andeq	r0, r0, r1, asr #32
     d50:	0000004b 	andeq	r0, r0, fp, asr #32
     d54:	00000055 	andeq	r0, r0, r5, asr r0
     d58:	0000005f 	andeq	r0, r0, pc, asr r0
     d5c:	00000069 	andeq	r0, r0, r9, rrx
     d60:	00000073 	andeq	r0, r0, r3, ror r0
     d64:	0000007d 	andeq	r0, r0, sp, ror r0
     d68:	00000087 	andeq	r0, r0, r7, lsl #1
     d6c:	00000091 	muleq	r0, r1, r0
     d70:	0000009b 	muleq	r0, fp, r0
     d74:	000000a5 	andeq	r0, r0, r5, lsr #1
     d78:	000000af 	andeq	r0, r0, pc, lsr #1
     d7c:	000000b9 	strheq	r0, [r0], -r9
     d80:	000000c3 	andeq	r0, r0, r3, asr #1
     d84:	000000cd 	andeq	r0, r0, sp, asr #1
     d88:	000000d7 	ldrdeq	r0, [r0], -r7
     d8c:	687b      	ldr	r3, [r7, #4]
     d8e:	f04f 0200 	mov.w	r2, #0
     d92:	61da      	str	r2, [r3, #28]
     d94:	e04b      	b.n	e2e <FlashInit0+0x292>
     d96:	687b      	ldr	r3, [r7, #4]
     d98:	f04f 0200 	mov.w	r2, #0
     d9c:	61da      	str	r2, [r3, #28]
     d9e:	e046      	b.n	e2e <FlashInit0+0x292>
     da0:	687b      	ldr	r3, [r7, #4]
     da2:	f44f 5280 	mov.w	r2, #4096	; 0x1000
     da6:	61da      	str	r2, [r3, #28]
     da8:	e041      	b.n	e2e <FlashInit0+0x292>
     daa:	687b      	ldr	r3, [r7, #4]
     dac:	f44f 6200 	mov.w	r2, #2048	; 0x800
     db0:	61da      	str	r2, [r3, #28]
     db2:	e03c      	b.n	e2e <FlashInit0+0x292>
     db4:	687b      	ldr	r3, [r7, #4]
     db6:	f44f 6280 	mov.w	r2, #1024	; 0x400
     dba:	61da      	str	r2, [r3, #28]
     dbc:	e037      	b.n	e2e <FlashInit0+0x292>
     dbe:	687b      	ldr	r3, [r7, #4]
     dc0:	f44f 7200 	mov.w	r2, #512	; 0x200
     dc4:	61da      	str	r2, [r3, #28]
     dc6:	e032      	b.n	e2e <FlashInit0+0x292>
     dc8:	687b      	ldr	r3, [r7, #4]
     dca:	f44f 7280 	mov.w	r2, #256	; 0x100
     dce:	61da      	str	r2, [r3, #28]
     dd0:	e02d      	b.n	e2e <FlashInit0+0x292>
     dd2:	687b      	ldr	r3, [r7, #4]
     dd4:	f04f 0280 	mov.w	r2, #128	; 0x80
     dd8:	61da      	str	r2, [r3, #28]
     dda:	e028      	b.n	e2e <FlashInit0+0x292>
     ddc:	687b      	ldr	r3, [r7, #4]
     dde:	f04f 0240 	mov.w	r2, #64	; 0x40
     de2:	61da      	str	r2, [r3, #28]
     de4:	e023      	b.n	e2e <FlashInit0+0x292>
     de6:	687b      	ldr	r3, [r7, #4]
     de8:	f04f 0220 	mov.w	r2, #32
     dec:	61da      	str	r2, [r3, #28]
     dee:	e01e      	b.n	e2e <FlashInit0+0x292>
     df0:	687b      	ldr	r3, [r7, #4]
     df2:	f04f 0200 	mov.w	r2, #0
     df6:	61da      	str	r2, [r3, #28]
     df8:	e019      	b.n	e2e <FlashInit0+0x292>
     dfa:	687b      	ldr	r3, [r7, #4]
     dfc:	f04f 0200 	mov.w	r2, #0
     e00:	61da      	str	r2, [r3, #28]
     e02:	e014      	b.n	e2e <FlashInit0+0x292>
     e04:	687b      	ldr	r3, [r7, #4]
     e06:	f04f 0200 	mov.w	r2, #0
     e0a:	61da      	str	r2, [r3, #28]
     e0c:	e00f      	b.n	e2e <FlashInit0+0x292>
     e0e:	687b      	ldr	r3, [r7, #4]
     e10:	f04f 0200 	mov.w	r2, #0
     e14:	61da      	str	r2, [r3, #28]
     e16:	e00a      	b.n	e2e <FlashInit0+0x292>
     e18:	687b      	ldr	r3, [r7, #4]
     e1a:	f04f 0200 	mov.w	r2, #0
     e1e:	61da      	str	r2, [r3, #28]
     e20:	e005      	b.n	e2e <FlashInit0+0x292>
     e22:	687b      	ldr	r3, [r7, #4]
     e24:	f04f 0200 	mov.w	r2, #0
     e28:	61da      	str	r2, [r3, #28]
     e2a:	e000      	b.n	e2e <FlashInit0+0x292>
     e2c:	bf00      	nop
     e2e:	68fb      	ldr	r3, [r7, #12]
     e30:	4618      	mov	r0, r3
     e32:	f107 0714 	add.w	r7, r7, #20
     e36:	46bd      	mov	sp, r7
     e38:	bc80      	pop	{r7}
     e3a:	4770      	bx	lr

00000e3c <FlashProgramCheck>:
     e3c:	b580      	push	{r7, lr}
     e3e:	b088      	sub	sp, #32
     e40:	af00      	add	r7, sp, #0
     e42:	60f8      	str	r0, [r7, #12]
     e44:	60b9      	str	r1, [r7, #8]
     e46:	607a      	str	r2, [r7, #4]
     e48:	603b      	str	r3, [r7, #0]
     e4a:	f04f 0300 	mov.w	r3, #0
     e4e:	61fb      	str	r3, [r7, #28]
     e50:	68bb      	ldr	r3, [r7, #8]
     e52:	f003 0303 	and.w	r3, r3, #3
     e56:	2b00      	cmp	r3, #0
     e58:	d003      	beq.n	e62 <FlashProgramCheck+0x26>
     e5a:	f44f 7380 	mov.w	r3, #256	; 0x100
     e5e:	61fb      	str	r3, [r7, #28]
     e60:	e09f      	b.n	fa2 <FlashProgramCheck+0x166>
     e62:	687b      	ldr	r3, [r7, #4]
     e64:	f003 0303 	and.w	r3, r3, #3
     e68:	2b00      	cmp	r3, #0
     e6a:	d003      	beq.n	e74 <FlashProgramCheck+0x38>
     e6c:	f04f 0301 	mov.w	r3, #1
     e70:	61fb      	str	r3, [r7, #28]
     e72:	e096      	b.n	fa2 <FlashProgramCheck+0x166>
     e74:	68fb      	ldr	r3, [r7, #12]
     e76:	685a      	ldr	r2, [r3, #4]
     e78:	68bb      	ldr	r3, [r7, #8]
     e7a:	429a      	cmp	r2, r3
     e7c:	d809      	bhi.n	e92 <FlashProgramCheck+0x56>
     e7e:	68ba      	ldr	r2, [r7, #8]
     e80:	687b      	ldr	r3, [r7, #4]
     e82:	18d2      	adds	r2, r2, r3
     e84:	68fb      	ldr	r3, [r7, #12]
     e86:	6859      	ldr	r1, [r3, #4]
     e88:	68fb      	ldr	r3, [r7, #12]
     e8a:	689b      	ldr	r3, [r3, #8]
     e8c:	18cb      	adds	r3, r1, r3
     e8e:	429a      	cmp	r2, r3
     e90:	d91b      	bls.n	eca <FlashProgramCheck+0x8e>
     e92:	68fb      	ldr	r3, [r7, #12]
     e94:	68da      	ldr	r2, [r3, #12]
     e96:	68bb      	ldr	r3, [r7, #8]
     e98:	429a      	cmp	r2, r3
     e9a:	d809      	bhi.n	eb0 <FlashProgramCheck+0x74>
     e9c:	68ba      	ldr	r2, [r7, #8]
     e9e:	687b      	ldr	r3, [r7, #4]
     ea0:	18d2      	adds	r2, r2, r3
     ea2:	68fb      	ldr	r3, [r7, #12]
     ea4:	68d9      	ldr	r1, [r3, #12]
     ea6:	68fb      	ldr	r3, [r7, #12]
     ea8:	691b      	ldr	r3, [r3, #16]
     eaa:	18cb      	adds	r3, r1, r3
     eac:	429a      	cmp	r2, r3
     eae:	d903      	bls.n	eb8 <FlashProgramCheck+0x7c>
     eb0:	f04f 0302 	mov.w	r3, #2
     eb4:	61fb      	str	r3, [r7, #28]
     eb6:	e074      	b.n	fa2 <FlashProgramCheck+0x166>
     eb8:	68fb      	ldr	r3, [r7, #12]
     eba:	68db      	ldr	r3, [r3, #12]
     ebc:	68ba      	ldr	r2, [r7, #8]
     ebe:	1ad3      	subs	r3, r2, r3
     ec0:	f503 0300 	add.w	r3, r3, #8388608	; 0x800000
     ec4:	60bb      	str	r3, [r7, #8]
     ec6:	bf00      	nop
     ec8:	e068      	b.n	f9c <FlashProgramCheck+0x160>
     eca:	68fb      	ldr	r3, [r7, #12]
     ecc:	685b      	ldr	r3, [r3, #4]
     ece:	68ba      	ldr	r2, [r7, #8]
     ed0:	1ad3      	subs	r3, r2, r3
     ed2:	60bb      	str	r3, [r7, #8]
     ed4:	e062      	b.n	f9c <FlashProgramCheck+0x160>
     ed6:	69fb      	ldr	r3, [r7, #28]
     ed8:	2b00      	cmp	r3, #0
     eda:	d153      	bne.n	f84 <FlashProgramCheck+0x148>
     edc:	f04f 0302 	mov.w	r3, #2
     ee0:	743b      	strb	r3, [r7, #16]
     ee2:	68bb      	ldr	r3, [r7, #8]
     ee4:	ea4f 4313 	mov.w	r3, r3, lsr #16
     ee8:	b2db      	uxtb	r3, r3
     eea:	747b      	strb	r3, [r7, #17]
     eec:	68bb      	ldr	r3, [r7, #8]
     eee:	ea4f 2313 	mov.w	r3, r3, lsr #8
     ef2:	b2db      	uxtb	r3, r3
     ef4:	74bb      	strb	r3, [r7, #18]
     ef6:	68bb      	ldr	r3, [r7, #8]
     ef8:	b2db      	uxtb	r3, r3
     efa:	74fb      	strb	r3, [r7, #19]
     efc:	f897 3030 	ldrb.w	r3, [r7, #48]	; 0x30
     f00:	753b      	strb	r3, [r7, #20]
     f02:	683b      	ldr	r3, [r7, #0]
     f04:	78db      	ldrb	r3, [r3, #3]
     f06:	763b      	strb	r3, [r7, #24]
     f08:	683b      	ldr	r3, [r7, #0]
     f0a:	789b      	ldrb	r3, [r3, #2]
     f0c:	767b      	strb	r3, [r7, #25]
     f0e:	683b      	ldr	r3, [r7, #0]
     f10:	785b      	ldrb	r3, [r3, #1]
     f12:	76bb      	strb	r3, [r7, #26]
     f14:	683b      	ldr	r3, [r7, #0]
     f16:	781b      	ldrb	r3, [r3, #0]
     f18:	76fb      	strb	r3, [r7, #27]
     f1a:	f107 0210 	add.w	r2, r7, #16
     f1e:	6b7b      	ldr	r3, [r7, #52]	; 0x34
     f20:	68f8      	ldr	r0, [r7, #12]
     f22:	f04f 010b 	mov.w	r1, #11
     f26:	4798      	blx	r3
     f28:	61f8      	str	r0, [r7, #28]
     f2a:	69fb      	ldr	r3, [r7, #28]
     f2c:	2b00      	cmp	r3, #0
     f2e:	d029      	beq.n	f84 <FlashProgramCheck+0x148>
     f30:	6abb      	ldr	r3, [r7, #40]	; 0x28
     f32:	68ba      	ldr	r2, [r7, #8]
     f34:	601a      	str	r2, [r3, #0]
     f36:	6afb      	ldr	r3, [r7, #44]	; 0x2c
     f38:	f103 0303 	add.w	r3, r3, #3
     f3c:	68fa      	ldr	r2, [r7, #12]
     f3e:	6812      	ldr	r2, [r2, #0]
     f40:	f102 020b 	add.w	r2, r2, #11
     f44:	7812      	ldrb	r2, [r2, #0]
     f46:	b2d2      	uxtb	r2, r2
     f48:	701a      	strb	r2, [r3, #0]
     f4a:	6afb      	ldr	r3, [r7, #44]	; 0x2c
     f4c:	f103 0302 	add.w	r3, r3, #2
     f50:	68fa      	ldr	r2, [r7, #12]
     f52:	6812      	ldr	r2, [r2, #0]
     f54:	f102 020a 	add.w	r2, r2, #10
     f58:	7812      	ldrb	r2, [r2, #0]
     f5a:	b2d2      	uxtb	r2, r2
     f5c:	701a      	strb	r2, [r3, #0]
     f5e:	6afb      	ldr	r3, [r7, #44]	; 0x2c
     f60:	f103 0301 	add.w	r3, r3, #1
     f64:	68fa      	ldr	r2, [r7, #12]
     f66:	6812      	ldr	r2, [r2, #0]
     f68:	f102 0209 	add.w	r2, r2, #9
     f6c:	7812      	ldrb	r2, [r2, #0]
     f6e:	b2d2      	uxtb	r2, r2
     f70:	701a      	strb	r2, [r3, #0]
     f72:	68fb      	ldr	r3, [r7, #12]
     f74:	681b      	ldr	r3, [r3, #0]
     f76:	f103 0308 	add.w	r3, r3, #8
     f7a:	781b      	ldrb	r3, [r3, #0]
     f7c:	b2da      	uxtb	r2, r3
     f7e:	6afb      	ldr	r3, [r7, #44]	; 0x2c
     f80:	701a      	strb	r2, [r3, #0]
     f82:	e00e      	b.n	fa2 <FlashProgramCheck+0x166>
     f84:	687b      	ldr	r3, [r7, #4]
     f86:	f1a3 0304 	sub.w	r3, r3, #4
     f8a:	607b      	str	r3, [r7, #4]
     f8c:	683b      	ldr	r3, [r7, #0]
     f8e:	f103 0304 	add.w	r3, r3, #4
     f92:	603b      	str	r3, [r7, #0]
     f94:	68bb      	ldr	r3, [r7, #8]
     f96:	f103 0304 	add.w	r3, r3, #4
     f9a:	60bb      	str	r3, [r7, #8]
     f9c:	687b      	ldr	r3, [r7, #4]
     f9e:	2b00      	cmp	r3, #0
     fa0:	d199      	bne.n	ed6 <FlashProgramCheck+0x9a>
     fa2:	69fb      	ldr	r3, [r7, #28]
     fa4:	4618      	mov	r0, r3
     fa6:	f107 0720 	add.w	r7, r7, #32
     faa:	46bd      	mov	sp, r7
     fac:	bd80      	pop	{r7, pc}
     fae:	bf00      	nop

00000fb0 <FlashProgramLongword>:
     fb0:	b580      	push	{r7, lr}
     fb2:	b088      	sub	sp, #32
     fb4:	af00      	add	r7, sp, #0
     fb6:	60f8      	str	r0, [r7, #12]
     fb8:	60b9      	str	r1, [r7, #8]
     fba:	607a      	str	r2, [r7, #4]
     fbc:	603b      	str	r3, [r7, #0]
     fbe:	f04f 0300 	mov.w	r3, #0
     fc2:	61fb      	str	r3, [r7, #28]
     fc4:	687b      	ldr	r3, [r7, #4]
     fc6:	f103 0304 	add.w	r3, r3, #4
     fca:	f023 0304 	bic.w	r3, r3, #4
     fce:	607b      	str	r3, [r7, #4]
     fd0:	68fb      	ldr	r3, [r7, #12]
     fd2:	685b      	ldr	r3, [r3, #4]
     fd4:	68ba      	ldr	r2, [r7, #8]
     fd6:	1ad3      	subs	r3, r2, r3
     fd8:	60bb      	str	r3, [r7, #8]
     fda:	69fb      	ldr	r3, [r7, #28]
     fdc:	2b00      	cmp	r3, #0
     fde:	d142      	bne.n	1066 <FlashProgramLongword+0xb6>
     fe0:	e03c      	b.n	105c <FlashProgramLongword+0xac>
     fe2:	f04f 0306 	mov.w	r3, #6
     fe6:	753b      	strb	r3, [r7, #20]
     fe8:	68bb      	ldr	r3, [r7, #8]
     fea:	ea4f 4313 	mov.w	r3, r3, lsr #16
     fee:	b2db      	uxtb	r3, r3
     ff0:	757b      	strb	r3, [r7, #21]
     ff2:	68bb      	ldr	r3, [r7, #8]
     ff4:	ea4f 2313 	mov.w	r3, r3, lsr #8
     ff8:	b2db      	uxtb	r3, r3
     ffa:	75bb      	strb	r3, [r7, #22]
     ffc:	68bb      	ldr	r3, [r7, #8]
     ffe:	b2db      	uxtb	r3, r3
    1000:	75fb      	strb	r3, [r7, #23]
    1002:	683b      	ldr	r3, [r7, #0]
    1004:	f103 0303 	add.w	r3, r3, #3
    1008:	781b      	ldrb	r3, [r3, #0]
    100a:	b2db      	uxtb	r3, r3
    100c:	763b      	strb	r3, [r7, #24]
    100e:	683b      	ldr	r3, [r7, #0]
    1010:	f103 0302 	add.w	r3, r3, #2
    1014:	781b      	ldrb	r3, [r3, #0]
    1016:	b2db      	uxtb	r3, r3
    1018:	767b      	strb	r3, [r7, #25]
    101a:	683b      	ldr	r3, [r7, #0]
    101c:	f103 0301 	add.w	r3, r3, #1
    1020:	781b      	ldrb	r3, [r3, #0]
    1022:	b2db      	uxtb	r3, r3
    1024:	76bb      	strb	r3, [r7, #26]
    1026:	683b      	ldr	r3, [r7, #0]
    1028:	781b      	ldrb	r3, [r3, #0]
    102a:	b2db      	uxtb	r3, r3
    102c:	76fb      	strb	r3, [r7, #27]
    102e:	f107 0214 	add.w	r2, r7, #20
    1032:	6abb      	ldr	r3, [r7, #40]	; 0x28
    1034:	68f8      	ldr	r0, [r7, #12]
    1036:	f04f 0107 	mov.w	r1, #7
    103a:	4798      	blx	r3
    103c:	61f8      	str	r0, [r7, #28]
    103e:	69fb      	ldr	r3, [r7, #28]
    1040:	2b00      	cmp	r3, #0
    1042:	d10f      	bne.n	1064 <FlashProgramLongword+0xb4>
    1044:	68bb      	ldr	r3, [r7, #8]
    1046:	f103 0304 	add.w	r3, r3, #4
    104a:	60bb      	str	r3, [r7, #8]
    104c:	687b      	ldr	r3, [r7, #4]
    104e:	f1a3 0304 	sub.w	r3, r3, #4
    1052:	607b      	str	r3, [r7, #4]
    1054:	683b      	ldr	r3, [r7, #0]
    1056:	f103 0304 	add.w	r3, r3, #4
    105a:	603b      	str	r3, [r7, #0]
    105c:	687b      	ldr	r3, [r7, #4]
    105e:	2b00      	cmp	r3, #0
    1060:	d1bf      	bne.n	fe2 <FlashProgramLongword+0x32>
    1062:	e000      	b.n	1066 <FlashProgramLongword+0xb6>
    1064:	bf00      	nop
    1066:	69fb      	ldr	r3, [r7, #28]
    1068:	4618      	mov	r0, r3
    106a:	f107 0720 	add.w	r7, r7, #32
    106e:	46bd      	mov	sp, r7
    1070:	bd80      	pop	{r7, pc}
    1072:	bf00      	nop

00001074 <FlashProgramOnce>:
    1074:	b580      	push	{r7, lr}
    1076:	b08a      	sub	sp, #40	; 0x28
    1078:	af00      	add	r7, sp, #0
    107a:	60f8      	str	r0, [r7, #12]
    107c:	60b9      	str	r1, [r7, #8]
    107e:	607a      	str	r2, [r7, #4]
    1080:	f04f 0300 	mov.w	r3, #0
    1084:	623b      	str	r3, [r7, #32]
    1086:	f04f 0300 	mov.w	r3, #0
    108a:	f887 3027 	strb.w	r3, [r7, #39]	; 0x27
    108e:	f04f 0304 	mov.w	r3, #4
    1092:	77fb      	strb	r3, [r7, #31]
    1094:	f04f 0343 	mov.w	r3, #67	; 0x43
    1098:	753b      	strb	r3, [r7, #20]
    109a:	e045      	b.n	1128 <FlashProgramOnce+0xb4>
    109c:	f897 3027 	ldrb.w	r3, [r7, #39]	; 0x27
    10a0:	757b      	strb	r3, [r7, #21]
    10a2:	f04f 0300 	mov.w	r3, #0
    10a6:	75bb      	strb	r3, [r7, #22]
    10a8:	f04f 0300 	mov.w	r3, #0
    10ac:	75fb      	strb	r3, [r7, #23]
    10ae:	f897 3027 	ldrb.w	r3, [r7, #39]	; 0x27
    10b2:	7ffa      	ldrb	r2, [r7, #31]
    10b4:	fb02 f303 	mul.w	r3, r2, r3
    10b8:	68ba      	ldr	r2, [r7, #8]
    10ba:	18d3      	adds	r3, r2, r3
    10bc:	781b      	ldrb	r3, [r3, #0]
    10be:	763b      	strb	r3, [r7, #24]
    10c0:	f897 3027 	ldrb.w	r3, [r7, #39]	; 0x27
    10c4:	7ffa      	ldrb	r2, [r7, #31]
    10c6:	fb02 f303 	mul.w	r3, r2, r3
    10ca:	f103 0301 	add.w	r3, r3, #1
    10ce:	68ba      	ldr	r2, [r7, #8]
    10d0:	18d3      	adds	r3, r2, r3
    10d2:	781b      	ldrb	r3, [r3, #0]
    10d4:	767b      	strb	r3, [r7, #25]
    10d6:	f897 3027 	ldrb.w	r3, [r7, #39]	; 0x27
    10da:	7ffa      	ldrb	r2, [r7, #31]
    10dc:	fb02 f303 	mul.w	r3, r2, r3
    10e0:	f103 0302 	add.w	r3, r3, #2
    10e4:	68ba      	ldr	r2, [r7, #8]
    10e6:	18d3      	adds	r3, r2, r3
    10e8:	781b      	ldrb	r3, [r3, #0]
    10ea:	76bb      	strb	r3, [r7, #26]
    10ec:	f897 3027 	ldrb.w	r3, [r7, #39]	; 0x27
    10f0:	7ffa      	ldrb	r2, [r7, #31]
    10f2:	fb02 f303 	mul.w	r3, r2, r3
    10f6:	f103 0303 	add.w	r3, r3, #3
    10fa:	68ba      	ldr	r2, [r7, #8]
    10fc:	18d3      	adds	r3, r2, r3
    10fe:	781b      	ldrb	r3, [r3, #0]
    1100:	76fb      	strb	r3, [r7, #27]
    1102:	7ffb      	ldrb	r3, [r7, #31]
    1104:	f103 0303 	add.w	r3, r3, #3
    1108:	b2d9      	uxtb	r1, r3
    110a:	f107 0214 	add.w	r2, r7, #20
    110e:	687b      	ldr	r3, [r7, #4]
    1110:	68f8      	ldr	r0, [r7, #12]
    1112:	4798      	blx	r3
    1114:	6238      	str	r0, [r7, #32]
    1116:	6a3b      	ldr	r3, [r7, #32]
    1118:	2b00      	cmp	r3, #0
    111a:	d10a      	bne.n	1132 <FlashProgramOnce+0xbe>
    111c:	f897 3027 	ldrb.w	r3, [r7, #39]	; 0x27
    1120:	f103 0301 	add.w	r3, r3, #1
    1124:	f887 3027 	strb.w	r3, [r7, #39]	; 0x27
    1128:	f897 3027 	ldrb.w	r3, [r7, #39]	; 0x27
    112c:	2b0f      	cmp	r3, #15
    112e:	d9b5      	bls.n	109c <FlashProgramOnce+0x28>
    1130:	e000      	b.n	1134 <FlashProgramOnce+0xc0>
    1132:	bf00      	nop
    1134:	6a3b      	ldr	r3, [r7, #32]
    1136:	4618      	mov	r0, r3
    1138:	f107 0728 	add.w	r7, r7, #40	; 0x28
    113c:	46bd      	mov	sp, r7
    113e:	bd80      	pop	{r7, pc}

00001140 <FlashProgramSection>:
    1140:	b580      	push	{r7, lr}
    1142:	b08a      	sub	sp, #40	; 0x28
    1144:	af00      	add	r7, sp, #0
    1146:	60f8      	str	r0, [r7, #12]
    1148:	60b9      	str	r1, [r7, #8]
    114a:	603b      	str	r3, [r7, #0]
    114c:	4613      	mov	r3, r2
    114e:	80fb      	strh	r3, [r7, #6]
    1150:	f04f 0300 	mov.w	r3, #0
    1154:	627b      	str	r3, [r7, #36]	; 0x24
    1156:	bf00      	nop
    1158:	68fb      	ldr	r3, [r7, #12]
    115a:	681b      	ldr	r3, [r3, #0]
    115c:	f103 0301 	add.w	r3, r3, #1
    1160:	781b      	ldrb	r3, [r3, #0]
    1162:	b2db      	uxtb	r3, r3
    1164:	f003 0302 	and.w	r3, r3, #2
    1168:	2b00      	cmp	r3, #0
    116a:	d103      	bne.n	1174 <FlashProgramSection+0x34>
    116c:	f44f 5300 	mov.w	r3, #8192	; 0x2000
    1170:	627b      	str	r3, [r7, #36]	; 0x24
    1172:	e093      	b.n	129c <FlashProgramSection+0x15c>
    1174:	68fb      	ldr	r3, [r7, #12]
    1176:	685a      	ldr	r2, [r3, #4]
    1178:	68bb      	ldr	r3, [r7, #8]
    117a:	429a      	cmp	r2, r3
    117c:	d80f      	bhi.n	119e <FlashProgramSection+0x5e>
    117e:	68fb      	ldr	r3, [r7, #12]
    1180:	685a      	ldr	r2, [r3, #4]
    1182:	68fb      	ldr	r3, [r7, #12]
    1184:	689b      	ldr	r3, [r3, #8]
    1186:	18d2      	adds	r2, r2, r3
    1188:	68bb      	ldr	r3, [r7, #8]
    118a:	429a      	cmp	r2, r3
    118c:	d907      	bls.n	119e <FlashProgramSection+0x5e>
    118e:	88fb      	ldrh	r3, [r7, #6]
    1190:	ea4f 03c3 	mov.w	r3, r3, lsl #3
    1194:	461a      	mov	r2, r3
    1196:	68bb      	ldr	r3, [r7, #8]
    1198:	18d3      	adds	r3, r2, r3
    119a:	623b      	str	r3, [r7, #32]
    119c:	e018      	b.n	11d0 <FlashProgramSection+0x90>
    119e:	68fb      	ldr	r3, [r7, #12]
    11a0:	68da      	ldr	r2, [r3, #12]
    11a2:	68bb      	ldr	r3, [r7, #8]
    11a4:	429a      	cmp	r2, r3
    11a6:	d80f      	bhi.n	11c8 <FlashProgramSection+0x88>
    11a8:	68fb      	ldr	r3, [r7, #12]
    11aa:	68da      	ldr	r2, [r3, #12]
    11ac:	68fb      	ldr	r3, [r7, #12]
    11ae:	691b      	ldr	r3, [r3, #16]
    11b0:	18d2      	adds	r2, r2, r3
    11b2:	68bb      	ldr	r3, [r7, #8]
    11b4:	429a      	cmp	r2, r3
    11b6:	d907      	bls.n	11c8 <FlashProgramSection+0x88>
    11b8:	88fb      	ldrh	r3, [r7, #6]
    11ba:	ea4f 03c3 	mov.w	r3, r3, lsl #3
    11be:	461a      	mov	r2, r3
    11c0:	68bb      	ldr	r3, [r7, #8]
    11c2:	18d3      	adds	r3, r2, r3
    11c4:	623b      	str	r3, [r7, #32]
    11c6:	e003      	b.n	11d0 <FlashProgramSection+0x90>
    11c8:	f04f 0302 	mov.w	r3, #2
    11cc:	627b      	str	r3, [r7, #36]	; 0x24
    11ce:	e065      	b.n	129c <FlashProgramSection+0x15c>
    11d0:	68fb      	ldr	r3, [r7, #12]
    11d2:	685a      	ldr	r2, [r3, #4]
    11d4:	6a3b      	ldr	r3, [r7, #32]
    11d6:	429a      	cmp	r2, r3
    11d8:	d810      	bhi.n	11fc <FlashProgramSection+0xbc>
    11da:	68fb      	ldr	r3, [r7, #12]
    11dc:	685a      	ldr	r2, [r3, #4]
    11de:	68fb      	ldr	r3, [r7, #12]
    11e0:	689b      	ldr	r3, [r3, #8]
    11e2:	18d2      	adds	r2, r2, r3
    11e4:	6a3b      	ldr	r3, [r7, #32]
    11e6:	429a      	cmp	r2, r3
    11e8:	d308      	bcc.n	11fc <FlashProgramSection+0xbc>
    11ea:	68fb      	ldr	r3, [r7, #12]
    11ec:	685b      	ldr	r3, [r3, #4]
    11ee:	68ba      	ldr	r2, [r7, #8]
    11f0:	1ad3      	subs	r3, r2, r3
    11f2:	60bb      	str	r3, [r7, #8]
    11f4:	f04f 0308 	mov.w	r3, #8
    11f8:	61fb      	str	r3, [r7, #28]
    11fa:	e01b      	b.n	1234 <FlashProgramSection+0xf4>
    11fc:	68fb      	ldr	r3, [r7, #12]
    11fe:	68da      	ldr	r2, [r3, #12]
    1200:	6a3b      	ldr	r3, [r7, #32]
    1202:	429a      	cmp	r2, r3
    1204:	d907      	bls.n	1216 <FlashProgramSection+0xd6>
    1206:	68fb      	ldr	r3, [r7, #12]
    1208:	68da      	ldr	r2, [r3, #12]
    120a:	68fb      	ldr	r3, [r7, #12]
    120c:	691b      	ldr	r3, [r3, #16]
    120e:	18d2      	adds	r2, r2, r3
    1210:	6a3b      	ldr	r3, [r7, #32]
    1212:	429a      	cmp	r2, r3
    1214:	d30a      	bcc.n	122c <FlashProgramSection+0xec>
    1216:	68fb      	ldr	r3, [r7, #12]
    1218:	68db      	ldr	r3, [r3, #12]
    121a:	68ba      	ldr	r2, [r7, #8]
    121c:	1ad3      	subs	r3, r2, r3
    121e:	f503 0300 	add.w	r3, r3, #8388608	; 0x800000
    1222:	60bb      	str	r3, [r7, #8]
    1224:	f04f 0308 	mov.w	r3, #8
    1228:	61fb      	str	r3, [r7, #28]
    122a:	e003      	b.n	1234 <FlashProgramSection+0xf4>
    122c:	f04f 0302 	mov.w	r3, #2
    1230:	627b      	str	r3, [r7, #36]	; 0x24
    1232:	e033      	b.n	129c <FlashProgramSection+0x15c>
    1234:	68bb      	ldr	r3, [r7, #8]
    1236:	69fa      	ldr	r2, [r7, #28]
    1238:	fbb3 f2f2 	udiv	r2, r3, r2
    123c:	69f9      	ldr	r1, [r7, #28]
    123e:	fb01 f202 	mul.w	r2, r1, r2
    1242:	1a9b      	subs	r3, r3, r2
    1244:	2b00      	cmp	r3, #0
    1246:	d003      	beq.n	1250 <FlashProgramSection+0x110>
    1248:	f44f 7380 	mov.w	r3, #256	; 0x100
    124c:	627b      	str	r3, [r7, #36]	; 0x24
    124e:	e025      	b.n	129c <FlashProgramSection+0x15c>
    1250:	6a7b      	ldr	r3, [r7, #36]	; 0x24
    1252:	2b00      	cmp	r3, #0
    1254:	d122      	bne.n	129c <FlashProgramSection+0x15c>
    1256:	f04f 030b 	mov.w	r3, #11
    125a:	753b      	strb	r3, [r7, #20]
    125c:	68bb      	ldr	r3, [r7, #8]
    125e:	ea4f 4313 	mov.w	r3, r3, lsr #16
    1262:	b2db      	uxtb	r3, r3
    1264:	757b      	strb	r3, [r7, #21]
    1266:	68bb      	ldr	r3, [r7, #8]
    1268:	ea4f 2313 	mov.w	r3, r3, lsr #8
    126c:	b2db      	uxtb	r3, r3
    126e:	75bb      	strb	r3, [r7, #22]
    1270:	68bb      	ldr	r3, [r7, #8]
    1272:	b2db      	uxtb	r3, r3
    1274:	75fb      	strb	r3, [r7, #23]
    1276:	88fb      	ldrh	r3, [r7, #6]
    1278:	ea4f 2313 	mov.w	r3, r3, lsr #8
    127c:	b29b      	uxth	r3, r3
    127e:	b2db      	uxtb	r3, r3
    1280:	763b      	strb	r3, [r7, #24]
    1282:	88fb      	ldrh	r3, [r7, #6]
    1284:	b2db      	uxtb	r3, r3
    1286:	767b      	strb	r3, [r7, #25]
    1288:	f107 0214 	add.w	r2, r7, #20
    128c:	683b      	ldr	r3, [r7, #0]
    128e:	68f8      	ldr	r0, [r7, #12]
    1290:	f04f 0105 	mov.w	r1, #5
    1294:	4798      	blx	r3
    1296:	6278      	str	r0, [r7, #36]	; 0x24
    1298:	6a7b      	ldr	r3, [r7, #36]	; 0x24
    129a:	2b00      	cmp	r3, #0
    129c:	6a7b      	ldr	r3, [r7, #36]	; 0x24
    129e:	4618      	mov	r0, r3
    12a0:	f107 0728 	add.w	r7, r7, #40	; 0x28
    12a4:	46bd      	mov	sp, r7
    12a6:	bd80      	pop	{r7, pc}

000012a8 <FlashReadOnce>:
    12a8:	b580      	push	{r7, lr}
    12aa:	b088      	sub	sp, #32
    12ac:	af00      	add	r7, sp, #0
    12ae:	60f8      	str	r0, [r7, #12]
    12b0:	60b9      	str	r1, [r7, #8]
    12b2:	607a      	str	r2, [r7, #4]
    12b4:	f04f 0300 	mov.w	r3, #0
    12b8:	77fb      	strb	r3, [r7, #31]
    12ba:	f04f 0300 	mov.w	r3, #0
    12be:	61bb      	str	r3, [r7, #24]
    12c0:	f04f 0304 	mov.w	r3, #4
    12c4:	75fb      	strb	r3, [r7, #23]
    12c6:	f04f 0341 	mov.w	r3, #65	; 0x41
    12ca:	753b      	strb	r3, [r7, #20]
    12cc:	e04a      	b.n	1364 <FlashReadOnce+0xbc>
    12ce:	7ffb      	ldrb	r3, [r7, #31]
    12d0:	757b      	strb	r3, [r7, #21]
    12d2:	f107 0214 	add.w	r2, r7, #20
    12d6:	687b      	ldr	r3, [r7, #4]
    12d8:	68f8      	ldr	r0, [r7, #12]
    12da:	f04f 0101 	mov.w	r1, #1
    12de:	4798      	blx	r3
    12e0:	61b8      	str	r0, [r7, #24]
    12e2:	69bb      	ldr	r3, [r7, #24]
    12e4:	2b00      	cmp	r3, #0
    12e6:	d141      	bne.n	136c <FlashReadOnce+0xc4>
    12e8:	7ffb      	ldrb	r3, [r7, #31]
    12ea:	7dfa      	ldrb	r2, [r7, #23]
    12ec:	fb02 f303 	mul.w	r3, r2, r3
    12f0:	68ba      	ldr	r2, [r7, #8]
    12f2:	18d3      	adds	r3, r2, r3
    12f4:	68fa      	ldr	r2, [r7, #12]
    12f6:	6812      	ldr	r2, [r2, #0]
    12f8:	f102 020b 	add.w	r2, r2, #11
    12fc:	7812      	ldrb	r2, [r2, #0]
    12fe:	b2d2      	uxtb	r2, r2
    1300:	701a      	strb	r2, [r3, #0]
    1302:	7ffb      	ldrb	r3, [r7, #31]
    1304:	7dfa      	ldrb	r2, [r7, #23]
    1306:	fb02 f303 	mul.w	r3, r2, r3
    130a:	f103 0301 	add.w	r3, r3, #1
    130e:	68ba      	ldr	r2, [r7, #8]
    1310:	18d3      	adds	r3, r2, r3
    1312:	68fa      	ldr	r2, [r7, #12]
    1314:	6812      	ldr	r2, [r2, #0]
    1316:	f102 020a 	add.w	r2, r2, #10
    131a:	7812      	ldrb	r2, [r2, #0]
    131c:	b2d2      	uxtb	r2, r2
    131e:	701a      	strb	r2, [r3, #0]
    1320:	7ffb      	ldrb	r3, [r7, #31]
    1322:	7dfa      	ldrb	r2, [r7, #23]
    1324:	fb02 f303 	mul.w	r3, r2, r3
    1328:	f103 0302 	add.w	r3, r3, #2
    132c:	68ba      	ldr	r2, [r7, #8]
    132e:	18d3      	adds	r3, r2, r3
    1330:	68fa      	ldr	r2, [r7, #12]
    1332:	6812      	ldr	r2, [r2, #0]
    1334:	f102 0209 	add.w	r2, r2, #9
    1338:	7812      	ldrb	r2, [r2, #0]
    133a:	b2d2      	uxtb	r2, r2
    133c:	701a      	strb	r2, [r3, #0]
    133e:	7ffb      	ldrb	r3, [r7, #31]
    1340:	7dfa      	ldrb	r2, [r7, #23]
    1342:	fb02 f303 	mul.w	r3, r2, r3
    1346:	f103 0303 	add.w	r3, r3, #3
    134a:	68ba      	ldr	r2, [r7, #8]
    134c:	18d3      	adds	r3, r2, r3
    134e:	68fa      	ldr	r2, [r7, #12]
    1350:	6812      	ldr	r2, [r2, #0]
    1352:	f102 0208 	add.w	r2, r2, #8
    1356:	7812      	ldrb	r2, [r2, #0]
    1358:	b2d2      	uxtb	r2, r2
    135a:	701a      	strb	r2, [r3, #0]
    135c:	7ffb      	ldrb	r3, [r7, #31]
    135e:	f103 0301 	add.w	r3, r3, #1
    1362:	77fb      	strb	r3, [r7, #31]
    1364:	7ffb      	ldrb	r3, [r7, #31]
    1366:	2b0f      	cmp	r3, #15
    1368:	d9b1      	bls.n	12ce <FlashReadOnce+0x26>
    136a:	e000      	b.n	136e <FlashReadOnce+0xc6>
    136c:	bf00      	nop
    136e:	69bb      	ldr	r3, [r7, #24]
    1370:	4618      	mov	r0, r3
    1372:	f107 0720 	add.w	r7, r7, #32
    1376:	46bd      	mov	sp, r7
    1378:	bd80      	pop	{r7, pc}
    137a:	bf00      	nop

0000137c <FlashReadResource>:
    137c:	b580      	push	{r7, lr}
    137e:	b088      	sub	sp, #32
    1380:	af00      	add	r7, sp, #0
    1382:	60f8      	str	r0, [r7, #12]
    1384:	60b9      	str	r1, [r7, #8]
    1386:	607a      	str	r2, [r7, #4]
    1388:	603b      	str	r3, [r7, #0]
    138a:	f04f 0300 	mov.w	r3, #0
    138e:	61fb      	str	r3, [r7, #28]
    1390:	68bb      	ldr	r3, [r7, #8]
    1392:	f003 0303 	and.w	r3, r3, #3
    1396:	2b00      	cmp	r3, #0
    1398:	d003      	beq.n	13a2 <FlashReadResource+0x26>
    139a:	f44f 7380 	mov.w	r3, #256	; 0x100
    139e:	61fb      	str	r3, [r7, #28]
    13a0:	e06e      	b.n	1480 <FlashReadResource+0x104>
    13a2:	68fb      	ldr	r3, [r7, #12]
    13a4:	685a      	ldr	r2, [r3, #4]
    13a6:	68bb      	ldr	r3, [r7, #8]
    13a8:	429a      	cmp	r2, r3
    13aa:	d806      	bhi.n	13ba <FlashReadResource+0x3e>
    13ac:	68fb      	ldr	r3, [r7, #12]
    13ae:	685b      	ldr	r3, [r3, #4]
    13b0:	f503 7280 	add.w	r2, r3, #256	; 0x100
    13b4:	68bb      	ldr	r3, [r7, #8]
    13b6:	429a      	cmp	r2, r3
    13b8:	d817      	bhi.n	13ea <FlashReadResource+0x6e>
    13ba:	68fb      	ldr	r3, [r7, #12]
    13bc:	68da      	ldr	r2, [r3, #12]
    13be:	68bb      	ldr	r3, [r7, #8]
    13c0:	429a      	cmp	r2, r3
    13c2:	d806      	bhi.n	13d2 <FlashReadResource+0x56>
    13c4:	68fb      	ldr	r3, [r7, #12]
    13c6:	68db      	ldr	r3, [r3, #12]
    13c8:	f503 7280 	add.w	r2, r3, #256	; 0x100
    13cc:	68bb      	ldr	r3, [r7, #8]
    13ce:	429a      	cmp	r2, r3
    13d0:	d803      	bhi.n	13da <FlashReadResource+0x5e>
    13d2:	f04f 0302 	mov.w	r3, #2
    13d6:	61fb      	str	r3, [r7, #28]
    13d8:	e052      	b.n	1480 <FlashReadResource+0x104>
    13da:	68fb      	ldr	r3, [r7, #12]
    13dc:	68db      	ldr	r3, [r3, #12]
    13de:	68ba      	ldr	r2, [r7, #8]
    13e0:	1ad3      	subs	r3, r2, r3
    13e2:	f503 0300 	add.w	r3, r3, #8388608	; 0x800000
    13e6:	60bb      	str	r3, [r7, #8]
    13e8:	e004      	b.n	13f4 <FlashReadResource+0x78>
    13ea:	68fb      	ldr	r3, [r7, #12]
    13ec:	685b      	ldr	r3, [r3, #4]
    13ee:	68ba      	ldr	r2, [r7, #8]
    13f0:	1ad3      	subs	r3, r2, r3
    13f2:	60bb      	str	r3, [r7, #8]
    13f4:	f04f 0303 	mov.w	r3, #3
    13f8:	743b      	strb	r3, [r7, #16]
    13fa:	68bb      	ldr	r3, [r7, #8]
    13fc:	ea4f 4313 	mov.w	r3, r3, lsr #16
    1400:	b2db      	uxtb	r3, r3
    1402:	747b      	strb	r3, [r7, #17]
    1404:	68bb      	ldr	r3, [r7, #8]
    1406:	ea4f 2313 	mov.w	r3, r3, lsr #8
    140a:	b2db      	uxtb	r3, r3
    140c:	74bb      	strb	r3, [r7, #18]
    140e:	68bb      	ldr	r3, [r7, #8]
    1410:	b2db      	uxtb	r3, r3
    1412:	74fb      	strb	r3, [r7, #19]
    1414:	f04f 0300 	mov.w	r3, #0
    1418:	763b      	strb	r3, [r7, #24]
    141a:	f107 0210 	add.w	r2, r7, #16
    141e:	683b      	ldr	r3, [r7, #0]
    1420:	68f8      	ldr	r0, [r7, #12]
    1422:	f04f 0108 	mov.w	r1, #8
    1426:	4798      	blx	r3
    1428:	61f8      	str	r0, [r7, #28]
    142a:	69fb      	ldr	r3, [r7, #28]
    142c:	2b00      	cmp	r3, #0
    142e:	d126      	bne.n	147e <FlashReadResource+0x102>
    1430:	68fb      	ldr	r3, [r7, #12]
    1432:	681b      	ldr	r3, [r3, #0]
    1434:	f103 030b 	add.w	r3, r3, #11
    1438:	781b      	ldrb	r3, [r3, #0]
    143a:	b2da      	uxtb	r2, r3
    143c:	687b      	ldr	r3, [r7, #4]
    143e:	701a      	strb	r2, [r3, #0]
    1440:	687b      	ldr	r3, [r7, #4]
    1442:	f103 0301 	add.w	r3, r3, #1
    1446:	68fa      	ldr	r2, [r7, #12]
    1448:	6812      	ldr	r2, [r2, #0]
    144a:	f102 020a 	add.w	r2, r2, #10
    144e:	7812      	ldrb	r2, [r2, #0]
    1450:	b2d2      	uxtb	r2, r2
    1452:	701a      	strb	r2, [r3, #0]
    1454:	687b      	ldr	r3, [r7, #4]
    1456:	f103 0302 	add.w	r3, r3, #2
    145a:	68fa      	ldr	r2, [r7, #12]
    145c:	6812      	ldr	r2, [r2, #0]
    145e:	f102 0209 	add.w	r2, r2, #9
    1462:	7812      	ldrb	r2, [r2, #0]
    1464:	b2d2      	uxtb	r2, r2
    1466:	701a      	strb	r2, [r3, #0]
    1468:	687b      	ldr	r3, [r7, #4]
    146a:	f103 0303 	add.w	r3, r3, #3
    146e:	68fa      	ldr	r2, [r7, #12]
    1470:	6812      	ldr	r2, [r2, #0]
    1472:	f102 0208 	add.w	r2, r2, #8
    1476:	7812      	ldrb	r2, [r2, #0]
    1478:	b2d2      	uxtb	r2, r2
    147a:	701a      	strb	r2, [r3, #0]
    147c:	e000      	b.n	1480 <FlashReadResource+0x104>
    147e:	bf00      	nop
    1480:	69fb      	ldr	r3, [r7, #28]
    1482:	4618      	mov	r0, r3
    1484:	f107 0720 	add.w	r7, r7, #32
    1488:	46bd      	mov	sp, r7
    148a:	bd80      	pop	{r7, pc}

0000148c <FlashSecurityBypass>:
    148c:	b580      	push	{r7, lr}
    148e:	b08a      	sub	sp, #40	; 0x28
    1490:	af00      	add	r7, sp, #0
    1492:	60f8      	str	r0, [r7, #12]
    1494:	60b9      	str	r1, [r7, #8]
    1496:	607a      	str	r2, [r7, #4]
    1498:	f04f 0300 	mov.w	r3, #0
    149c:	627b      	str	r3, [r7, #36]	; 0x24
    149e:	68fb      	ldr	r3, [r7, #12]
    14a0:	681b      	ldr	r3, [r3, #0]
    14a2:	f103 0302 	add.w	r3, r3, #2
    14a6:	781b      	ldrb	r3, [r3, #0]
    14a8:	f887 3023 	strb.w	r3, [r7, #35]	; 0x23
    14ac:	f897 3023 	ldrb.w	r3, [r7, #35]	; 0x23
    14b0:	f003 0303 	and.w	r3, r3, #3
    14b4:	2b02      	cmp	r3, #2
    14b6:	d022      	beq.n	14fe <FlashSecurityBypass+0x72>
    14b8:	f04f 0345 	mov.w	r3, #69	; 0x45
    14bc:	753b      	strb	r3, [r7, #20]
    14be:	68bb      	ldr	r3, [r7, #8]
    14c0:	781b      	ldrb	r3, [r3, #0]
    14c2:	763b      	strb	r3, [r7, #24]
    14c4:	68bb      	ldr	r3, [r7, #8]
    14c6:	785b      	ldrb	r3, [r3, #1]
    14c8:	767b      	strb	r3, [r7, #25]
    14ca:	68bb      	ldr	r3, [r7, #8]
    14cc:	789b      	ldrb	r3, [r3, #2]
    14ce:	76bb      	strb	r3, [r7, #26]
    14d0:	68bb      	ldr	r3, [r7, #8]
    14d2:	78db      	ldrb	r3, [r3, #3]
    14d4:	76fb      	strb	r3, [r7, #27]
    14d6:	68bb      	ldr	r3, [r7, #8]
    14d8:	791b      	ldrb	r3, [r3, #4]
    14da:	773b      	strb	r3, [r7, #28]
    14dc:	68bb      	ldr	r3, [r7, #8]
    14de:	795b      	ldrb	r3, [r3, #5]
    14e0:	777b      	strb	r3, [r7, #29]
    14e2:	68bb      	ldr	r3, [r7, #8]
    14e4:	799b      	ldrb	r3, [r3, #6]
    14e6:	77bb      	strb	r3, [r7, #30]
    14e8:	68bb      	ldr	r3, [r7, #8]
    14ea:	79db      	ldrb	r3, [r3, #7]
    14ec:	77fb      	strb	r3, [r7, #31]
    14ee:	f107 0214 	add.w	r2, r7, #20
    14f2:	687b      	ldr	r3, [r7, #4]
    14f4:	68f8      	ldr	r0, [r7, #12]
    14f6:	f04f 010b 	mov.w	r1, #11
    14fa:	4798      	blx	r3
    14fc:	6278      	str	r0, [r7, #36]	; 0x24
    14fe:	6a7b      	ldr	r3, [r7, #36]	; 0x24
    1500:	4618      	mov	r0, r3
    1502:	f107 0728 	add.w	r7, r7, #40	; 0x28
    1506:	46bd      	mov	sp, r7
    1508:	bd80      	pop	{r7, pc}
    150a:	bf00      	nop

0000150c <FlashSetInterruptEnable>:
    150c:	b480      	push	{r7}
    150e:	b085      	sub	sp, #20
    1510:	af00      	add	r7, sp, #0
    1512:	6078      	str	r0, [r7, #4]
    1514:	460b      	mov	r3, r1
    1516:	70fb      	strb	r3, [r7, #3]
    1518:	78fb      	ldrb	r3, [r7, #3]
    151a:	f023 033f 	bic.w	r3, r3, #63	; 0x3f
    151e:	70fb      	strb	r3, [r7, #3]
    1520:	687b      	ldr	r3, [r7, #4]
    1522:	681b      	ldr	r3, [r3, #0]
    1524:	f103 0301 	add.w	r3, r3, #1
    1528:	781b      	ldrb	r3, [r3, #0]
    152a:	73fb      	strb	r3, [r7, #15]
    152c:	7bfb      	ldrb	r3, [r7, #15]
    152e:	f003 033f 	and.w	r3, r3, #63	; 0x3f
    1532:	73fb      	strb	r3, [r7, #15]
    1534:	7bfa      	ldrb	r2, [r7, #15]
    1536:	78fb      	ldrb	r3, [r7, #3]
    1538:	4313      	orrs	r3, r2
    153a:	73fb      	strb	r3, [r7, #15]
    153c:	687b      	ldr	r3, [r7, #4]
    153e:	681b      	ldr	r3, [r3, #0]
    1540:	f103 0301 	add.w	r3, r3, #1
    1544:	7bfa      	ldrb	r2, [r7, #15]
    1546:	701a      	strb	r2, [r3, #0]
    1548:	f04f 0300 	mov.w	r3, #0
    154c:	4618      	mov	r0, r3
    154e:	f107 0714 	add.w	r7, r7, #20
    1552:	46bd      	mov	sp, r7
    1554:	bc80      	pop	{r7}
    1556:	4770      	bx	lr

00001558 <FlashVerifyAllBlock>:
    1558:	b580      	push	{r7, lr}
    155a:	b086      	sub	sp, #24
    155c:	af00      	add	r7, sp, #0
    155e:	60f8      	str	r0, [r7, #12]
    1560:	460b      	mov	r3, r1
    1562:	607a      	str	r2, [r7, #4]
    1564:	72fb      	strb	r3, [r7, #11]
    1566:	f04f 0300 	mov.w	r3, #0
    156a:	617b      	str	r3, [r7, #20]
    156c:	f04f 0340 	mov.w	r3, #64	; 0x40
    1570:	743b      	strb	r3, [r7, #16]
    1572:	7afb      	ldrb	r3, [r7, #11]
    1574:	747b      	strb	r3, [r7, #17]
    1576:	f107 0210 	add.w	r2, r7, #16
    157a:	687b      	ldr	r3, [r7, #4]
    157c:	68f8      	ldr	r0, [r7, #12]
    157e:	f04f 0101 	mov.w	r1, #1
    1582:	4798      	blx	r3
    1584:	6178      	str	r0, [r7, #20]
    1586:	697b      	ldr	r3, [r7, #20]
    1588:	4618      	mov	r0, r3
    158a:	f107 0718 	add.w	r7, r7, #24
    158e:	46bd      	mov	sp, r7
    1590:	bd80      	pop	{r7, pc}
    1592:	bf00      	nop

00001594 <FlashVerifyBlock>:
    1594:	b580      	push	{r7, lr}
    1596:	b088      	sub	sp, #32
    1598:	af00      	add	r7, sp, #0
    159a:	60f8      	str	r0, [r7, #12]
    159c:	60b9      	str	r1, [r7, #8]
    159e:	603b      	str	r3, [r7, #0]
    15a0:	4613      	mov	r3, r2
    15a2:	71fb      	strb	r3, [r7, #7]
    15a4:	f04f 0300 	mov.w	r3, #0
    15a8:	61fb      	str	r3, [r7, #28]
    15aa:	68bb      	ldr	r3, [r7, #8]
    15ac:	f003 0303 	and.w	r3, r3, #3
    15b0:	2b00      	cmp	r3, #0
    15b2:	d003      	beq.n	15bc <FlashVerifyBlock+0x28>
    15b4:	f44f 7380 	mov.w	r3, #256	; 0x100
    15b8:	61fb      	str	r3, [r7, #28]
    15ba:	e044      	b.n	1646 <FlashVerifyBlock+0xb2>
    15bc:	68fb      	ldr	r3, [r7, #12]
    15be:	685a      	ldr	r2, [r3, #4]
    15c0:	68bb      	ldr	r3, [r7, #8]
    15c2:	429a      	cmp	r2, r3
    15c4:	d807      	bhi.n	15d6 <FlashVerifyBlock+0x42>
    15c6:	68fb      	ldr	r3, [r7, #12]
    15c8:	685a      	ldr	r2, [r3, #4]
    15ca:	68fb      	ldr	r3, [r7, #12]
    15cc:	689b      	ldr	r3, [r3, #8]
    15ce:	18d2      	adds	r2, r2, r3
    15d0:	68bb      	ldr	r3, [r7, #8]
    15d2:	429a      	cmp	r2, r3
    15d4:	d818      	bhi.n	1608 <FlashVerifyBlock+0x74>
    15d6:	68fb      	ldr	r3, [r7, #12]
    15d8:	68da      	ldr	r2, [r3, #12]
    15da:	68bb      	ldr	r3, [r7, #8]
    15dc:	429a      	cmp	r2, r3
    15de:	d807      	bhi.n	15f0 <FlashVerifyBlock+0x5c>
    15e0:	68fb      	ldr	r3, [r7, #12]
    15e2:	68da      	ldr	r2, [r3, #12]
    15e4:	68fb      	ldr	r3, [r7, #12]
    15e6:	691b      	ldr	r3, [r3, #16]
    15e8:	18d2      	adds	r2, r2, r3
    15ea:	68bb      	ldr	r3, [r7, #8]
    15ec:	429a      	cmp	r2, r3
    15ee:	d803      	bhi.n	15f8 <FlashVerifyBlock+0x64>
    15f0:	f04f 0302 	mov.w	r3, #2
    15f4:	61fb      	str	r3, [r7, #28]
    15f6:	e026      	b.n	1646 <FlashVerifyBlock+0xb2>
    15f8:	68fb      	ldr	r3, [r7, #12]
    15fa:	68db      	ldr	r3, [r3, #12]
    15fc:	68ba      	ldr	r2, [r7, #8]
    15fe:	1ad3      	subs	r3, r2, r3
    1600:	f503 0300 	add.w	r3, r3, #8388608	; 0x800000
    1604:	60bb      	str	r3, [r7, #8]
    1606:	e004      	b.n	1612 <FlashVerifyBlock+0x7e>
    1608:	68fb      	ldr	r3, [r7, #12]
    160a:	685b      	ldr	r3, [r3, #4]
    160c:	68ba      	ldr	r2, [r7, #8]
    160e:	1ad3      	subs	r3, r2, r3
    1610:	60bb      	str	r3, [r7, #8]
    1612:	f04f 0300 	mov.w	r3, #0
    1616:	753b      	strb	r3, [r7, #20]
    1618:	68bb      	ldr	r3, [r7, #8]
    161a:	ea4f 4313 	mov.w	r3, r3, lsr #16
    161e:	b2db      	uxtb	r3, r3
    1620:	757b      	strb	r3, [r7, #21]
    1622:	68bb      	ldr	r3, [r7, #8]
    1624:	ea4f 2313 	mov.w	r3, r3, lsr #8
    1628:	b2db      	uxtb	r3, r3
    162a:	75bb      	strb	r3, [r7, #22]
    162c:	68bb      	ldr	r3, [r7, #8]
    162e:	b2db      	uxtb	r3, r3
    1630:	75fb      	strb	r3, [r7, #23]
    1632:	79fb      	ldrb	r3, [r7, #7]
    1634:	763b      	strb	r3, [r7, #24]
    1636:	f107 0214 	add.w	r2, r7, #20
    163a:	683b      	ldr	r3, [r7, #0]
    163c:	68f8      	ldr	r0, [r7, #12]
    163e:	f04f 0104 	mov.w	r1, #4
    1642:	4798      	blx	r3
    1644:	61f8      	str	r0, [r7, #28]
    1646:	69fb      	ldr	r3, [r7, #28]
    1648:	4618      	mov	r0, r3
    164a:	f107 0720 	add.w	r7, r7, #32
    164e:	46bd      	mov	sp, r7
    1650:	bd80      	pop	{r7, pc}
    1652:	bf00      	nop

00001654 <FlashVerifySection>:
    1654:	b580      	push	{r7, lr}
    1656:	b08a      	sub	sp, #40	; 0x28
    1658:	af00      	add	r7, sp, #0
    165a:	60f8      	str	r0, [r7, #12]
    165c:	60b9      	str	r1, [r7, #8]
    165e:	80fa      	strh	r2, [r7, #6]
    1660:	717b      	strb	r3, [r7, #5]
    1662:	f04f 0300 	mov.w	r3, #0
    1666:	627b      	str	r3, [r7, #36]	; 0x24
    1668:	68fb      	ldr	r3, [r7, #12]
    166a:	685a      	ldr	r2, [r3, #4]
    166c:	68bb      	ldr	r3, [r7, #8]
    166e:	429a      	cmp	r2, r3
    1670:	d80f      	bhi.n	1692 <FlashVerifySection+0x3e>
    1672:	68fb      	ldr	r3, [r7, #12]
    1674:	685a      	ldr	r2, [r3, #4]
    1676:	68fb      	ldr	r3, [r7, #12]
    1678:	689b      	ldr	r3, [r3, #8]
    167a:	18d2      	adds	r2, r2, r3
    167c:	68bb      	ldr	r3, [r7, #8]
    167e:	429a      	cmp	r2, r3
    1680:	d907      	bls.n	1692 <FlashVerifySection+0x3e>
    1682:	88fb      	ldrh	r3, [r7, #6]
    1684:	ea4f 03c3 	mov.w	r3, r3, lsl #3
    1688:	461a      	mov	r2, r3
    168a:	68bb      	ldr	r3, [r7, #8]
    168c:	18d3      	adds	r3, r2, r3
    168e:	623b      	str	r3, [r7, #32]
    1690:	e018      	b.n	16c4 <FlashVerifySection+0x70>
    1692:	68fb      	ldr	r3, [r7, #12]
    1694:	68da      	ldr	r2, [r3, #12]
    1696:	68bb      	ldr	r3, [r7, #8]
    1698:	429a      	cmp	r2, r3
    169a:	d80f      	bhi.n	16bc <FlashVerifySection+0x68>
    169c:	68fb      	ldr	r3, [r7, #12]
    169e:	68da      	ldr	r2, [r3, #12]
    16a0:	68fb      	ldr	r3, [r7, #12]
    16a2:	691b      	ldr	r3, [r3, #16]
    16a4:	18d2      	adds	r2, r2, r3
    16a6:	68bb      	ldr	r3, [r7, #8]
    16a8:	429a      	cmp	r2, r3
    16aa:	d907      	bls.n	16bc <FlashVerifySection+0x68>
    16ac:	88fb      	ldrh	r3, [r7, #6]
    16ae:	ea4f 03c3 	mov.w	r3, r3, lsl #3
    16b2:	461a      	mov	r2, r3
    16b4:	68bb      	ldr	r3, [r7, #8]
    16b6:	18d3      	adds	r3, r2, r3
    16b8:	623b      	str	r3, [r7, #32]
    16ba:	e003      	b.n	16c4 <FlashVerifySection+0x70>
    16bc:	f04f 0302 	mov.w	r3, #2
    16c0:	627b      	str	r3, [r7, #36]	; 0x24
    16c2:	e062      	b.n	178a <FlashVerifySection+0x136>
    16c4:	68fb      	ldr	r3, [r7, #12]
    16c6:	685a      	ldr	r2, [r3, #4]
    16c8:	6a3b      	ldr	r3, [r7, #32]
    16ca:	429a      	cmp	r2, r3
    16cc:	d810      	bhi.n	16f0 <FlashVerifySection+0x9c>
    16ce:	68fb      	ldr	r3, [r7, #12]
    16d0:	685a      	ldr	r2, [r3, #4]
    16d2:	68fb      	ldr	r3, [r7, #12]
    16d4:	689b      	ldr	r3, [r3, #8]
    16d6:	18d2      	adds	r2, r2, r3
    16d8:	6a3b      	ldr	r3, [r7, #32]
    16da:	429a      	cmp	r2, r3
    16dc:	d308      	bcc.n	16f0 <FlashVerifySection+0x9c>
    16de:	68fb      	ldr	r3, [r7, #12]
    16e0:	685b      	ldr	r3, [r3, #4]
    16e2:	68ba      	ldr	r2, [r7, #8]
    16e4:	1ad3      	subs	r3, r2, r3
    16e6:	60bb      	str	r3, [r7, #8]
    16e8:	f04f 0308 	mov.w	r3, #8
    16ec:	61fb      	str	r3, [r7, #28]
    16ee:	e01b      	b.n	1728 <FlashVerifySection+0xd4>
    16f0:	68fb      	ldr	r3, [r7, #12]
    16f2:	68da      	ldr	r2, [r3, #12]
    16f4:	6a3b      	ldr	r3, [r7, #32]
    16f6:	429a      	cmp	r2, r3
    16f8:	d907      	bls.n	170a <FlashVerifySection+0xb6>
    16fa:	68fb      	ldr	r3, [r7, #12]
    16fc:	68da      	ldr	r2, [r3, #12]
    16fe:	68fb      	ldr	r3, [r7, #12]
    1700:	691b      	ldr	r3, [r3, #16]
    1702:	18d2      	adds	r2, r2, r3
    1704:	6a3b      	ldr	r3, [r7, #32]
    1706:	429a      	cmp	r2, r3
    1708:	d30a      	bcc.n	1720 <FlashVerifySection+0xcc>
    170a:	68fb      	ldr	r3, [r7, #12]
    170c:	68db      	ldr	r3, [r3, #12]
    170e:	68ba      	ldr	r2, [r7, #8]
    1710:	1ad3      	subs	r3, r2, r3
    1712:	f503 0300 	add.w	r3, r3, #8388608	; 0x800000
    1716:	60bb      	str	r3, [r7, #8]
    1718:	f04f 0308 	mov.w	r3, #8
    171c:	61fb      	str	r3, [r7, #28]
    171e:	e003      	b.n	1728 <FlashVerifySection+0xd4>
    1720:	f04f 0302 	mov.w	r3, #2
    1724:	627b      	str	r3, [r7, #36]	; 0x24
    1726:	e030      	b.n	178a <FlashVerifySection+0x136>
    1728:	68bb      	ldr	r3, [r7, #8]
    172a:	69fa      	ldr	r2, [r7, #28]
    172c:	fbb3 f2f2 	udiv	r2, r3, r2
    1730:	69f9      	ldr	r1, [r7, #28]
    1732:	fb01 f202 	mul.w	r2, r1, r2
    1736:	1a9b      	subs	r3, r3, r2
    1738:	2b00      	cmp	r3, #0
    173a:	d003      	beq.n	1744 <FlashVerifySection+0xf0>
    173c:	f44f 7380 	mov.w	r3, #256	; 0x100
    1740:	627b      	str	r3, [r7, #36]	; 0x24
    1742:	e022      	b.n	178a <FlashVerifySection+0x136>
    1744:	f04f 0301 	mov.w	r3, #1
    1748:	753b      	strb	r3, [r7, #20]
    174a:	68bb      	ldr	r3, [r7, #8]
    174c:	ea4f 4313 	mov.w	r3, r3, lsr #16
    1750:	b2db      	uxtb	r3, r3
    1752:	757b      	strb	r3, [r7, #21]
    1754:	68bb      	ldr	r3, [r7, #8]
    1756:	ea4f 2313 	mov.w	r3, r3, lsr #8
    175a:	b2db      	uxtb	r3, r3
    175c:	75bb      	strb	r3, [r7, #22]
    175e:	68bb      	ldr	r3, [r7, #8]
    1760:	b2db      	uxtb	r3, r3
    1762:	75fb      	strb	r3, [r7, #23]
    1764:	88fb      	ldrh	r3, [r7, #6]
    1766:	ea4f 2313 	mov.w	r3, r3, lsr #8
    176a:	b29b      	uxth	r3, r3
    176c:	b2db      	uxtb	r3, r3
    176e:	763b      	strb	r3, [r7, #24]
    1770:	88fb      	ldrh	r3, [r7, #6]
    1772:	b2db      	uxtb	r3, r3
    1774:	767b      	strb	r3, [r7, #25]
    1776:	797b      	ldrb	r3, [r7, #5]
    1778:	76bb      	strb	r3, [r7, #26]
    177a:	f107 0214 	add.w	r2, r7, #20
    177e:	6b3b      	ldr	r3, [r7, #48]	; 0x30
    1780:	68f8      	ldr	r0, [r7, #12]
    1782:	f04f 0106 	mov.w	r1, #6
    1786:	4798      	blx	r3
    1788:	6278      	str	r0, [r7, #36]	; 0x24
    178a:	6a7b      	ldr	r3, [r7, #36]	; 0x24
    178c:	4618      	mov	r0, r3
    178e:	f107 0728 	add.w	r7, r7, #40	; 0x28
    1792:	46bd      	mov	sp, r7
    1794:	bd80      	pop	{r7, pc}
    1796:	bf00      	nop

00001798 <PFlashGetProtection>:
    1798:	b480      	push	{r7}
    179a:	b087      	sub	sp, #28
    179c:	af00      	add	r7, sp, #0
    179e:	6078      	str	r0, [r7, #4]
    17a0:	6039      	str	r1, [r7, #0]
    17a2:	687b      	ldr	r3, [r7, #4]
    17a4:	681b      	ldr	r3, [r3, #0]
    17a6:	f103 0313 	add.w	r3, r3, #19
    17aa:	781b      	ldrb	r3, [r3, #0]
    17ac:	b2db      	uxtb	r3, r3
    17ae:	617b      	str	r3, [r7, #20]
    17b0:	687b      	ldr	r3, [r7, #4]
    17b2:	681b      	ldr	r3, [r3, #0]
    17b4:	f103 0312 	add.w	r3, r3, #18
    17b8:	781b      	ldrb	r3, [r3, #0]
    17ba:	b2db      	uxtb	r3, r3
    17bc:	613b      	str	r3, [r7, #16]
    17be:	687b      	ldr	r3, [r7, #4]
    17c0:	681b      	ldr	r3, [r3, #0]
    17c2:	f103 0311 	add.w	r3, r3, #17
    17c6:	781b      	ldrb	r3, [r3, #0]
    17c8:	b2db      	uxtb	r3, r3
    17ca:	60fb      	str	r3, [r7, #12]
    17cc:	687b      	ldr	r3, [r7, #4]
    17ce:	681b      	ldr	r3, [r3, #0]
    17d0:	f103 0310 	add.w	r3, r3, #16
    17d4:	781b      	ldrb	r3, [r3, #0]
    17d6:	b2db      	uxtb	r3, r3
    17d8:	60bb      	str	r3, [r7, #8]
    17da:	697b      	ldr	r3, [r7, #20]
    17dc:	ea4f 6203 	mov.w	r2, r3, lsl #24
    17e0:	693b      	ldr	r3, [r7, #16]
    17e2:	ea4f 4303 	mov.w	r3, r3, lsl #16
    17e6:	431a      	orrs	r2, r3
    17e8:	68fb      	ldr	r3, [r7, #12]
    17ea:	ea4f 2303 	mov.w	r3, r3, lsl #8
    17ee:	431a      	orrs	r2, r3
    17f0:	68bb      	ldr	r3, [r7, #8]
    17f2:	431a      	orrs	r2, r3
    17f4:	683b      	ldr	r3, [r7, #0]
    17f6:	601a      	str	r2, [r3, #0]
    17f8:	f04f 0300 	mov.w	r3, #0
    17fc:	4618      	mov	r0, r3
    17fe:	f107 071c 	add.w	r7, r7, #28
    1802:	46bd      	mov	sp, r7
    1804:	bc80      	pop	{r7}
    1806:	4770      	bx	lr

00001808 <PFlashGetSwapStatus>:
    1808:	b580      	push	{r7, lr}
    180a:	b088      	sub	sp, #32
    180c:	af00      	add	r7, sp, #0
    180e:	60f8      	str	r0, [r7, #12]
    1810:	60b9      	str	r1, [r7, #8]
    1812:	607a      	str	r2, [r7, #4]
    1814:	603b      	str	r3, [r7, #0]
    1816:	f04f 0300 	mov.w	r3, #0
    181a:	61fb      	str	r3, [r7, #28]
    181c:	68ba      	ldr	r2, [r7, #8]
    181e:	f1b2 3fff 	cmp.w	r2, #4294967295
    1822:	bf34      	ite	cc
    1824:	2300      	movcc	r3, #0
    1826:	2301      	movcs	r3, #1
    1828:	f1c3 0300 	rsb	r3, r3, #0
    182c:	1ad3      	subs	r3, r2, r3
    182e:	2b00      	cmp	r3, #0
    1830:	d003      	beq.n	183a <PFlashGetSwapStatus+0x32>
    1832:	f44f 7380 	mov.w	r3, #256	; 0x100
    1836:	61fb      	str	r3, [r7, #28]
    1838:	e065      	b.n	1906 <PFlashGetSwapStatus+0xfe>
    183a:	68fb      	ldr	r3, [r7, #12]
    183c:	685a      	ldr	r2, [r3, #4]
    183e:	68bb      	ldr	r3, [r7, #8]
    1840:	429a      	cmp	r2, r3
    1842:	d809      	bhi.n	1858 <PFlashGetSwapStatus+0x50>
    1844:	68fb      	ldr	r3, [r7, #12]
    1846:	685a      	ldr	r2, [r3, #4]
    1848:	68fb      	ldr	r3, [r7, #12]
    184a:	689b      	ldr	r3, [r3, #8]
    184c:	ea4f 0353 	mov.w	r3, r3, lsr #1
    1850:	18d2      	adds	r2, r2, r3
    1852:	68bb      	ldr	r3, [r7, #8]
    1854:	429a      	cmp	r2, r3
    1856:	d803      	bhi.n	1860 <PFlashGetSwapStatus+0x58>
    1858:	f04f 0302 	mov.w	r3, #2
    185c:	61fb      	str	r3, [r7, #28]
    185e:	e052      	b.n	1906 <PFlashGetSwapStatus+0xfe>
    1860:	68fb      	ldr	r3, [r7, #12]
    1862:	685b      	ldr	r3, [r3, #4]
    1864:	68ba      	ldr	r2, [r7, #8]
    1866:	1ad3      	subs	r3, r2, r3
    1868:	60bb      	str	r3, [r7, #8]
    186a:	68ba      	ldr	r2, [r7, #8]
    186c:	f240 33ff 	movw	r3, #1023	; 0x3ff
    1870:	429a      	cmp	r2, r3
    1872:	d908      	bls.n	1886 <PFlashGetSwapStatus+0x7e>
    1874:	68ba      	ldr	r2, [r7, #8]
    1876:	f240 430f 	movw	r3, #1039	; 0x40f
    187a:	429a      	cmp	r2, r3
    187c:	d803      	bhi.n	1886 <PFlashGetSwapStatus+0x7e>
    187e:	f04f 0302 	mov.w	r3, #2
    1882:	61fb      	str	r3, [r7, #28]
    1884:	e03f      	b.n	1906 <PFlashGetSwapStatus+0xfe>
    1886:	f04f 0346 	mov.w	r3, #70	; 0x46
    188a:	753b      	strb	r3, [r7, #20]
    188c:	68bb      	ldr	r3, [r7, #8]
    188e:	ea4f 4313 	mov.w	r3, r3, lsr #16
    1892:	b2db      	uxtb	r3, r3
    1894:	757b      	strb	r3, [r7, #21]
    1896:	68bb      	ldr	r3, [r7, #8]
    1898:	ea4f 2313 	mov.w	r3, r3, lsr #8
    189c:	b2db      	uxtb	r3, r3
    189e:	75bb      	strb	r3, [r7, #22]
    18a0:	68bb      	ldr	r3, [r7, #8]
    18a2:	b2db      	uxtb	r3, r3
    18a4:	75fb      	strb	r3, [r7, #23]
    18a6:	f04f 0308 	mov.w	r3, #8
    18aa:	763b      	strb	r3, [r7, #24]
    18ac:	f04f 03ff 	mov.w	r3, #255	; 0xff
    18b0:	767b      	strb	r3, [r7, #25]
    18b2:	f04f 03ff 	mov.w	r3, #255	; 0xff
    18b6:	76bb      	strb	r3, [r7, #26]
    18b8:	f04f 03ff 	mov.w	r3, #255	; 0xff
    18bc:	76fb      	strb	r3, [r7, #27]
    18be:	f107 0214 	add.w	r2, r7, #20
    18c2:	6afb      	ldr	r3, [r7, #44]	; 0x2c
    18c4:	68f8      	ldr	r0, [r7, #12]
    18c6:	f04f 0107 	mov.w	r1, #7
    18ca:	4798      	blx	r3
    18cc:	61f8      	str	r0, [r7, #28]
    18ce:	69fb      	ldr	r3, [r7, #28]
    18d0:	2b00      	cmp	r3, #0
    18d2:	d118      	bne.n	1906 <PFlashGetSwapStatus+0xfe>
    18d4:	68fb      	ldr	r3, [r7, #12]
    18d6:	681b      	ldr	r3, [r3, #0]
    18d8:	f103 030a 	add.w	r3, r3, #10
    18dc:	781b      	ldrb	r3, [r3, #0]
    18de:	b2da      	uxtb	r2, r3
    18e0:	687b      	ldr	r3, [r7, #4]
    18e2:	701a      	strb	r2, [r3, #0]
    18e4:	68fb      	ldr	r3, [r7, #12]
    18e6:	681b      	ldr	r3, [r3, #0]
    18e8:	f103 0309 	add.w	r3, r3, #9
    18ec:	781b      	ldrb	r3, [r3, #0]
    18ee:	b2da      	uxtb	r2, r3
    18f0:	683b      	ldr	r3, [r7, #0]
    18f2:	701a      	strb	r2, [r3, #0]
    18f4:	68fb      	ldr	r3, [r7, #12]
    18f6:	681b      	ldr	r3, [r3, #0]
    18f8:	f103 0308 	add.w	r3, r3, #8
    18fc:	781b      	ldrb	r3, [r3, #0]
    18fe:	b2da      	uxtb	r2, r3
    1900:	6abb      	ldr	r3, [r7, #40]	; 0x28
    1902:	701a      	strb	r2, [r3, #0]
    1904:	bf00      	nop
    1906:	69fb      	ldr	r3, [r7, #28]
    1908:	4618      	mov	r0, r3
    190a:	f107 0720 	add.w	r7, r7, #32
    190e:	46bd      	mov	sp, r7
    1910:	bd80      	pop	{r7, pc}
    1912:	bf00      	nop

00001914 <PFlashSetProtection>:
    1914:	b480      	push	{r7}
    1916:	b08b      	sub	sp, #44	; 0x2c
    1918:	af00      	add	r7, sp, #0
    191a:	6078      	str	r0, [r7, #4]
    191c:	6039      	str	r1, [r7, #0]
    191e:	f04f 0300 	mov.w	r3, #0
    1922:	627b      	str	r3, [r7, #36]	; 0x24
    1924:	687b      	ldr	r3, [r7, #4]
    1926:	681b      	ldr	r3, [r3, #0]
    1928:	781b      	ldrb	r3, [r3, #0]
    192a:	b2db      	uxtb	r3, r3
    192c:	b2db      	uxtb	r3, r3
    192e:	b25b      	sxtb	r3, r3
    1930:	2b00      	cmp	r3, #0
    1932:	db03      	blt.n	193c <PFlashSetProtection+0x28>
    1934:	f04f 0320 	mov.w	r3, #32
    1938:	627b      	str	r3, [r7, #36]	; 0x24
    193a:	e0d2      	b.n	1ae2 <PFlashSetProtection+0x1ce>
    193c:	687b      	ldr	r3, [r7, #4]
    193e:	681b      	ldr	r3, [r3, #0]
    1940:	f103 0313 	add.w	r3, r3, #19
    1944:	781b      	ldrb	r3, [r3, #0]
    1946:	b2db      	uxtb	r3, r3
    1948:	623b      	str	r3, [r7, #32]
    194a:	687b      	ldr	r3, [r7, #4]
    194c:	681b      	ldr	r3, [r3, #0]
    194e:	f103 0312 	add.w	r3, r3, #18
    1952:	781b      	ldrb	r3, [r3, #0]
    1954:	b2db      	uxtb	r3, r3
    1956:	61fb      	str	r3, [r7, #28]
    1958:	687b      	ldr	r3, [r7, #4]
    195a:	681b      	ldr	r3, [r3, #0]
    195c:	f103 0311 	add.w	r3, r3, #17
    1960:	781b      	ldrb	r3, [r3, #0]
    1962:	b2db      	uxtb	r3, r3
    1964:	61bb      	str	r3, [r7, #24]
    1966:	687b      	ldr	r3, [r7, #4]
    1968:	681b      	ldr	r3, [r3, #0]
    196a:	f103 0310 	add.w	r3, r3, #16
    196e:	781b      	ldrb	r3, [r3, #0]
    1970:	b2db      	uxtb	r3, r3
    1972:	617b      	str	r3, [r7, #20]
    1974:	6a3b      	ldr	r3, [r7, #32]
    1976:	ea4f 6203 	mov.w	r2, r3, lsl #24
    197a:	69fb      	ldr	r3, [r7, #28]
    197c:	ea4f 4303 	mov.w	r3, r3, lsl #16
    1980:	431a      	orrs	r2, r3
    1982:	69bb      	ldr	r3, [r7, #24]
    1984:	ea4f 2303 	mov.w	r3, r3, lsl #8
    1988:	431a      	orrs	r2, r3
    198a:	697b      	ldr	r3, [r7, #20]
    198c:	4313      	orrs	r3, r2
    198e:	613b      	str	r3, [r7, #16]
    1990:	687b      	ldr	r3, [r7, #4]
    1992:	681b      	ldr	r3, [r3, #0]
    1994:	f103 0313 	add.w	r3, r3, #19
    1998:	f04f 02ff 	mov.w	r2, #255	; 0xff
    199c:	701a      	strb	r2, [r3, #0]
    199e:	687b      	ldr	r3, [r7, #4]
    19a0:	681b      	ldr	r3, [r3, #0]
    19a2:	f103 0312 	add.w	r3, r3, #18
    19a6:	f04f 02ff 	mov.w	r2, #255	; 0xff
    19aa:	701a      	strb	r2, [r3, #0]
    19ac:	687b      	ldr	r3, [r7, #4]
    19ae:	681b      	ldr	r3, [r3, #0]
    19b0:	f103 0311 	add.w	r3, r3, #17
    19b4:	f04f 02ff 	mov.w	r2, #255	; 0xff
    19b8:	701a      	strb	r2, [r3, #0]
    19ba:	687b      	ldr	r3, [r7, #4]
    19bc:	681b      	ldr	r3, [r3, #0]
    19be:	f103 0310 	add.w	r3, r3, #16
    19c2:	f04f 02ff 	mov.w	r2, #255	; 0xff
    19c6:	701a      	strb	r2, [r3, #0]
    19c8:	687b      	ldr	r3, [r7, #4]
    19ca:	681b      	ldr	r3, [r3, #0]
    19cc:	f103 0313 	add.w	r3, r3, #19
    19d0:	781b      	ldrb	r3, [r3, #0]
    19d2:	b2db      	uxtb	r3, r3
    19d4:	623b      	str	r3, [r7, #32]
    19d6:	687b      	ldr	r3, [r7, #4]
    19d8:	681b      	ldr	r3, [r3, #0]
    19da:	f103 0312 	add.w	r3, r3, #18
    19de:	781b      	ldrb	r3, [r3, #0]
    19e0:	b2db      	uxtb	r3, r3
    19e2:	61fb      	str	r3, [r7, #28]
    19e4:	687b      	ldr	r3, [r7, #4]
    19e6:	681b      	ldr	r3, [r3, #0]
    19e8:	f103 0311 	add.w	r3, r3, #17
    19ec:	781b      	ldrb	r3, [r3, #0]
    19ee:	b2db      	uxtb	r3, r3
    19f0:	61bb      	str	r3, [r7, #24]
    19f2:	687b      	ldr	r3, [r7, #4]
    19f4:	681b      	ldr	r3, [r3, #0]
    19f6:	f103 0310 	add.w	r3, r3, #16
    19fa:	781b      	ldrb	r3, [r3, #0]
    19fc:	b2db      	uxtb	r3, r3
    19fe:	617b      	str	r3, [r7, #20]
    1a00:	6a3b      	ldr	r3, [r7, #32]
    1a02:	2bff      	cmp	r3, #255	; 0xff
    1a04:	bf0c      	ite	eq
    1a06:	2300      	moveq	r3, #0
    1a08:	2301      	movne	r3, #1
    1a0a:	b2da      	uxtb	r2, r3
    1a0c:	69fb      	ldr	r3, [r7, #28]
    1a0e:	2bff      	cmp	r3, #255	; 0xff
    1a10:	bf0c      	ite	eq
    1a12:	2300      	moveq	r3, #0
    1a14:	2301      	movne	r3, #1
    1a16:	b2db      	uxtb	r3, r3
    1a18:	4313      	orrs	r3, r2
    1a1a:	b2db      	uxtb	r3, r3
    1a1c:	461a      	mov	r2, r3
    1a1e:	69bb      	ldr	r3, [r7, #24]
    1a20:	2bff      	cmp	r3, #255	; 0xff
    1a22:	bf0c      	ite	eq
    1a24:	2300      	moveq	r3, #0
    1a26:	2301      	movne	r3, #1
    1a28:	b2db      	uxtb	r3, r3
    1a2a:	431a      	orrs	r2, r3
    1a2c:	697b      	ldr	r3, [r7, #20]
    1a2e:	2bff      	cmp	r3, #255	; 0xff
    1a30:	bf0c      	ite	eq
    1a32:	2300      	moveq	r3, #0
    1a34:	2301      	movne	r3, #1
    1a36:	b2db      	uxtb	r3, r3
    1a38:	4313      	orrs	r3, r2
    1a3a:	2b00      	cmp	r3, #0
    1a3c:	d02f      	beq.n	1a9e <PFlashSetProtection+0x18a>
    1a3e:	683a      	ldr	r2, [r7, #0]
    1a40:	693b      	ldr	r3, [r7, #16]
    1a42:	4053      	eors	r3, r2
    1a44:	60fb      	str	r3, [r7, #12]
    1a46:	68fa      	ldr	r2, [r7, #12]
    1a48:	683b      	ldr	r3, [r7, #0]
    1a4a:	4013      	ands	r3, r2
    1a4c:	2b00      	cmp	r3, #0
    1a4e:	d122      	bne.n	1a96 <PFlashSetProtection+0x182>
    1a50:	687b      	ldr	r3, [r7, #4]
    1a52:	681b      	ldr	r3, [r3, #0]
    1a54:	f103 0313 	add.w	r3, r3, #19
    1a58:	683a      	ldr	r2, [r7, #0]
    1a5a:	ea4f 6212 	mov.w	r2, r2, lsr #24
    1a5e:	b2d2      	uxtb	r2, r2
    1a60:	701a      	strb	r2, [r3, #0]
    1a62:	687b      	ldr	r3, [r7, #4]
    1a64:	681b      	ldr	r3, [r3, #0]
    1a66:	f103 0312 	add.w	r3, r3, #18
    1a6a:	683a      	ldr	r2, [r7, #0]
    1a6c:	ea4f 4212 	mov.w	r2, r2, lsr #16
    1a70:	b2d2      	uxtb	r2, r2
    1a72:	701a      	strb	r2, [r3, #0]
    1a74:	687b      	ldr	r3, [r7, #4]
    1a76:	681b      	ldr	r3, [r3, #0]
    1a78:	f103 0311 	add.w	r3, r3, #17
    1a7c:	683a      	ldr	r2, [r7, #0]
    1a7e:	ea4f 2212 	mov.w	r2, r2, lsr #8
    1a82:	b2d2      	uxtb	r2, r2
    1a84:	701a      	strb	r2, [r3, #0]
    1a86:	687b      	ldr	r3, [r7, #4]
    1a88:	681b      	ldr	r3, [r3, #0]
    1a8a:	f103 0310 	add.w	r3, r3, #16
    1a8e:	683a      	ldr	r2, [r7, #0]
    1a90:	b2d2      	uxtb	r2, r2
    1a92:	701a      	strb	r2, [r3, #0]
    1a94:	e025      	b.n	1ae2 <PFlashSetProtection+0x1ce>
    1a96:	f04f 0320 	mov.w	r3, #32
    1a9a:	627b      	str	r3, [r7, #36]	; 0x24
    1a9c:	e021      	b.n	1ae2 <PFlashSetProtection+0x1ce>
    1a9e:	687b      	ldr	r3, [r7, #4]
    1aa0:	681b      	ldr	r3, [r3, #0]
    1aa2:	f103 0313 	add.w	r3, r3, #19
    1aa6:	683a      	ldr	r2, [r7, #0]
    1aa8:	ea4f 6212 	mov.w	r2, r2, lsr #24
    1aac:	b2d2      	uxtb	r2, r2
    1aae:	701a      	strb	r2, [r3, #0]
    1ab0:	687b      	ldr	r3, [r7, #4]
    1ab2:	681b      	ldr	r3, [r3, #0]
    1ab4:	f103 0312 	add.w	r3, r3, #18
    1ab8:	683a      	ldr	r2, [r7, #0]
    1aba:	ea4f 4212 	mov.w	r2, r2, lsr #16
    1abe:	b2d2      	uxtb	r2, r2
    1ac0:	701a      	strb	r2, [r3, #0]
    1ac2:	687b      	ldr	r3, [r7, #4]
    1ac4:	681b      	ldr	r3, [r3, #0]
    1ac6:	f103 0311 	add.w	r3, r3, #17
    1aca:	683a      	ldr	r2, [r7, #0]
    1acc:	ea4f 2212 	mov.w	r2, r2, lsr #8
    1ad0:	b2d2      	uxtb	r2, r2
    1ad2:	701a      	strb	r2, [r3, #0]
    1ad4:	687b      	ldr	r3, [r7, #4]
    1ad6:	681b      	ldr	r3, [r3, #0]
    1ad8:	f103 0310 	add.w	r3, r3, #16
    1adc:	683a      	ldr	r2, [r7, #0]
    1ade:	b2d2      	uxtb	r2, r2
    1ae0:	701a      	strb	r2, [r3, #0]
    1ae2:	6a7b      	ldr	r3, [r7, #36]	; 0x24
    1ae4:	4618      	mov	r0, r3
    1ae6:	f107 072c 	add.w	r7, r7, #44	; 0x2c
    1aea:	46bd      	mov	sp, r7
    1aec:	bc80      	pop	{r7}
    1aee:	4770      	bx	lr

00001af0 <PFlashSwap>:
    1af0:	b580      	push	{r7, lr}
    1af2:	b086      	sub	sp, #24
    1af4:	af00      	add	r7, sp, #0
    1af6:	60f8      	str	r0, [r7, #12]
    1af8:	60b9      	str	r1, [r7, #8]
    1afa:	607a      	str	r2, [r7, #4]
    1afc:	f04f 03ff 	mov.w	r3, #255	; 0xff
    1b00:	74fb      	strb	r3, [r7, #19]
    1b02:	f04f 0300 	mov.w	r3, #0
    1b06:	617b      	str	r3, [r7, #20]
    1b08:	68ba      	ldr	r2, [r7, #8]
    1b0a:	f1b2 3fff 	cmp.w	r2, #4294967295
    1b0e:	bf34      	ite	cc
    1b10:	2300      	movcc	r3, #0
    1b12:	2301      	movcs	r3, #1
    1b14:	f1c3 0300 	rsb	r3, r3, #0
    1b18:	1ad3      	subs	r3, r2, r3
    1b1a:	2b00      	cmp	r3, #0
    1b1c:	d003      	beq.n	1b26 <PFlashSwap+0x36>
    1b1e:	f44f 7380 	mov.w	r3, #256	; 0x100
    1b22:	617b      	str	r3, [r7, #20]
    1b24:	e09d      	b.n	1c62 <PFlashSwap+0x172>
    1b26:	68fb      	ldr	r3, [r7, #12]
    1b28:	685a      	ldr	r2, [r3, #4]
    1b2a:	68bb      	ldr	r3, [r7, #8]
    1b2c:	429a      	cmp	r2, r3
    1b2e:	d809      	bhi.n	1b44 <PFlashSwap+0x54>
    1b30:	68fb      	ldr	r3, [r7, #12]
    1b32:	685a      	ldr	r2, [r3, #4]
    1b34:	68fb      	ldr	r3, [r7, #12]
    1b36:	689b      	ldr	r3, [r3, #8]
    1b38:	ea4f 0353 	mov.w	r3, r3, lsr #1
    1b3c:	18d2      	adds	r2, r2, r3
    1b3e:	68bb      	ldr	r3, [r7, #8]
    1b40:	429a      	cmp	r2, r3
    1b42:	d803      	bhi.n	1b4c <PFlashSwap+0x5c>
    1b44:	f04f 0302 	mov.w	r3, #2
    1b48:	617b      	str	r3, [r7, #20]
    1b4a:	e08a      	b.n	1c62 <PFlashSwap+0x172>
    1b4c:	68fb      	ldr	r3, [r7, #12]
    1b4e:	685b      	ldr	r3, [r3, #4]
    1b50:	68ba      	ldr	r2, [r7, #8]
    1b52:	1ad3      	subs	r3, r2, r3
    1b54:	60bb      	str	r3, [r7, #8]
    1b56:	68ba      	ldr	r2, [r7, #8]
    1b58:	f240 33ff 	movw	r3, #1023	; 0x3ff
    1b5c:	429a      	cmp	r2, r3
    1b5e:	d908      	bls.n	1b72 <PFlashSwap+0x82>
    1b60:	68ba      	ldr	r2, [r7, #8]
    1b62:	f240 430f 	movw	r3, #1039	; 0x40f
    1b66:	429a      	cmp	r2, r3
    1b68:	d803      	bhi.n	1b72 <PFlashSwap+0x82>
    1b6a:	f04f 0302 	mov.w	r3, #2
    1b6e:	617b      	str	r3, [r7, #20]
    1b70:	e077      	b.n	1c62 <PFlashSwap+0x172>
    1b72:	68f8      	ldr	r0, [r7, #12]
    1b74:	68b9      	ldr	r1, [r7, #8]
    1b76:	f04f 0208 	mov.w	r2, #8
    1b7a:	687b      	ldr	r3, [r7, #4]
    1b7c:	f000 f878 	bl	1c70 <_PFlashSwapCtl>
    1b80:	6178      	str	r0, [r7, #20]
    1b82:	697b      	ldr	r3, [r7, #20]
    1b84:	2b00      	cmp	r3, #0
    1b86:	d163      	bne.n	1c50 <PFlashSwap+0x160>
    1b88:	68fb      	ldr	r3, [r7, #12]
    1b8a:	681b      	ldr	r3, [r3, #0]
    1b8c:	f103 030a 	add.w	r3, r3, #10
    1b90:	781b      	ldrb	r3, [r3, #0]
    1b92:	74fb      	strb	r3, [r7, #19]
    1b94:	7cfb      	ldrb	r3, [r7, #19]
    1b96:	2b00      	cmp	r3, #0
    1b98:	d114      	bne.n	1bc4 <PFlashSwap+0xd4>
    1b9a:	68f8      	ldr	r0, [r7, #12]
    1b9c:	68b9      	ldr	r1, [r7, #8]
    1b9e:	f04f 0201 	mov.w	r2, #1
    1ba2:	687b      	ldr	r3, [r7, #4]
    1ba4:	f000 f864 	bl	1c70 <_PFlashSwapCtl>
    1ba8:	6178      	str	r0, [r7, #20]
    1baa:	697b      	ldr	r3, [r7, #20]
    1bac:	2b00      	cmp	r3, #0
    1bae:	d151      	bne.n	1c54 <PFlashSwap+0x164>
    1bb0:	bf00      	nop
    1bb2:	68fb      	ldr	r3, [r7, #12]
    1bb4:	681b      	ldr	r3, [r3, #0]
    1bb6:	f103 030a 	add.w	r3, r3, #10
    1bba:	781b      	ldrb	r3, [r3, #0]
    1bbc:	74fb      	strb	r3, [r7, #19]
    1bbe:	7cfb      	ldrb	r3, [r7, #19]
    1bc0:	2b00      	cmp	r3, #0
    1bc2:	d0f6      	beq.n	1bb2 <PFlashSwap+0xc2>
    1bc4:	7cfb      	ldrb	r3, [r7, #19]
    1bc6:	2b01      	cmp	r3, #1
    1bc8:	d114      	bne.n	1bf4 <PFlashSwap+0x104>
    1bca:	68f8      	ldr	r0, [r7, #12]
    1bcc:	68b9      	ldr	r1, [r7, #8]
    1bce:	f04f 0202 	mov.w	r2, #2
    1bd2:	687b      	ldr	r3, [r7, #4]
    1bd4:	f000 f84c 	bl	1c70 <_PFlashSwapCtl>
    1bd8:	6178      	str	r0, [r7, #20]
    1bda:	697b      	ldr	r3, [r7, #20]
    1bdc:	2b00      	cmp	r3, #0
    1bde:	d13b      	bne.n	1c58 <PFlashSwap+0x168>
    1be0:	bf00      	nop
    1be2:	68fb      	ldr	r3, [r7, #12]
    1be4:	681b      	ldr	r3, [r3, #0]
    1be6:	f103 030a 	add.w	r3, r3, #10
    1bea:	781b      	ldrb	r3, [r3, #0]
    1bec:	74fb      	strb	r3, [r7, #19]
    1bee:	7cfb      	ldrb	r3, [r7, #19]
    1bf0:	2b01      	cmp	r3, #1
    1bf2:	d0f6      	beq.n	1be2 <PFlashSwap+0xf2>
    1bf4:	7cfb      	ldrb	r3, [r7, #19]
    1bf6:	2b02      	cmp	r3, #2
    1bf8:	d002      	beq.n	1c00 <PFlashSwap+0x110>
    1bfa:	7cfb      	ldrb	r3, [r7, #19]
    1bfc:	2b03      	cmp	r3, #3
    1bfe:	d130      	bne.n	1c62 <PFlashSwap+0x172>
    1c00:	7cfb      	ldrb	r3, [r7, #19]
    1c02:	2b03      	cmp	r3, #3
    1c04:	d00e      	beq.n	1c24 <PFlashSwap+0x134>
    1c06:	68fb      	ldr	r3, [r7, #12]
    1c08:	689b      	ldr	r3, [r3, #8]
    1c0a:	ea4f 0253 	mov.w	r2, r3, lsr #1
    1c0e:	68bb      	ldr	r3, [r7, #8]
    1c10:	18d3      	adds	r3, r2, r3
    1c12:	68f8      	ldr	r0, [r7, #12]
    1c14:	4619      	mov	r1, r3
    1c16:	687a      	ldr	r2, [r7, #4]
    1c18:	f000 f862 	bl	1ce0 <_PFlashEraseSector>
    1c1c:	6178      	str	r0, [r7, #20]
    1c1e:	697b      	ldr	r3, [r7, #20]
    1c20:	2b00      	cmp	r3, #0
    1c22:	d11b      	bne.n	1c5c <PFlashSwap+0x16c>
    1c24:	68f8      	ldr	r0, [r7, #12]
    1c26:	68b9      	ldr	r1, [r7, #8]
    1c28:	f04f 0204 	mov.w	r2, #4
    1c2c:	687b      	ldr	r3, [r7, #4]
    1c2e:	f000 f81f 	bl	1c70 <_PFlashSwapCtl>
    1c32:	6178      	str	r0, [r7, #20]
    1c34:	697b      	ldr	r3, [r7, #20]
    1c36:	2b00      	cmp	r3, #0
    1c38:	d112      	bne.n	1c60 <PFlashSwap+0x170>
    1c3a:	bf00      	nop
    1c3c:	68fb      	ldr	r3, [r7, #12]
    1c3e:	681b      	ldr	r3, [r3, #0]
    1c40:	f103 030a 	add.w	r3, r3, #10
    1c44:	781b      	ldrb	r3, [r3, #0]
    1c46:	74fb      	strb	r3, [r7, #19]
    1c48:	7cfb      	ldrb	r3, [r7, #19]
    1c4a:	2b04      	cmp	r3, #4
    1c4c:	d1f6      	bne.n	1c3c <PFlashSwap+0x14c>
    1c4e:	e008      	b.n	1c62 <PFlashSwap+0x172>
    1c50:	bf00      	nop
    1c52:	e006      	b.n	1c62 <PFlashSwap+0x172>
    1c54:	bf00      	nop
    1c56:	e004      	b.n	1c62 <PFlashSwap+0x172>
    1c58:	bf00      	nop
    1c5a:	e002      	b.n	1c62 <PFlashSwap+0x172>
    1c5c:	bf00      	nop
    1c5e:	e000      	b.n	1c62 <PFlashSwap+0x172>
    1c60:	bf00      	nop
    1c62:	697b      	ldr	r3, [r7, #20]
    1c64:	4618      	mov	r0, r3
    1c66:	f107 0718 	add.w	r7, r7, #24
    1c6a:	46bd      	mov	sp, r7
    1c6c:	bd80      	pop	{r7, pc}
    1c6e:	bf00      	nop

00001c70 <_PFlashSwapCtl>:
    1c70:	b580      	push	{r7, lr}
    1c72:	b088      	sub	sp, #32
    1c74:	af00      	add	r7, sp, #0
    1c76:	60f8      	str	r0, [r7, #12]
    1c78:	60b9      	str	r1, [r7, #8]
    1c7a:	603b      	str	r3, [r7, #0]
    1c7c:	4613      	mov	r3, r2
    1c7e:	71fb      	strb	r3, [r7, #7]
    1c80:	f04f 0300 	mov.w	r3, #0
    1c84:	61fb      	str	r3, [r7, #28]
    1c86:	f04f 0346 	mov.w	r3, #70	; 0x46
    1c8a:	753b      	strb	r3, [r7, #20]
    1c8c:	68bb      	ldr	r3, [r7, #8]
    1c8e:	f403 037f 	and.w	r3, r3, #16711680	; 0xff0000
    1c92:	ea4f 4313 	mov.w	r3, r3, lsr #16
    1c96:	b2db      	uxtb	r3, r3
    1c98:	757b      	strb	r3, [r7, #21]
    1c9a:	68bb      	ldr	r3, [r7, #8]
    1c9c:	f403 437f 	and.w	r3, r3, #65280	; 0xff00
    1ca0:	ea4f 2313 	mov.w	r3, r3, lsr #8
    1ca4:	b2db      	uxtb	r3, r3
    1ca6:	75bb      	strb	r3, [r7, #22]
    1ca8:	68bb      	ldr	r3, [r7, #8]
    1caa:	b2db      	uxtb	r3, r3
    1cac:	75fb      	strb	r3, [r7, #23]
    1cae:	79fb      	ldrb	r3, [r7, #7]
    1cb0:	763b      	strb	r3, [r7, #24]
    1cb2:	f04f 03ff 	mov.w	r3, #255	; 0xff
    1cb6:	767b      	strb	r3, [r7, #25]
    1cb8:	f04f 03ff 	mov.w	r3, #255	; 0xff
    1cbc:	76bb      	strb	r3, [r7, #26]
    1cbe:	f04f 03ff 	mov.w	r3, #255	; 0xff
    1cc2:	76fb      	strb	r3, [r7, #27]
    1cc4:	f107 0214 	add.w	r2, r7, #20
    1cc8:	683b      	ldr	r3, [r7, #0]
    1cca:	68f8      	ldr	r0, [r7, #12]
    1ccc:	f04f 0107 	mov.w	r1, #7
    1cd0:	4798      	blx	r3
    1cd2:	61f8      	str	r0, [r7, #28]
    1cd4:	69fb      	ldr	r3, [r7, #28]
    1cd6:	4618      	mov	r0, r3
    1cd8:	f107 0720 	add.w	r7, r7, #32
    1cdc:	46bd      	mov	sp, r7
    1cde:	bd80      	pop	{r7, pc}

00001ce0 <_PFlashEraseSector>:
    1ce0:	b580      	push	{r7, lr}
    1ce2:	b086      	sub	sp, #24
    1ce4:	af00      	add	r7, sp, #0
    1ce6:	60f8      	str	r0, [r7, #12]
    1ce8:	60b9      	str	r1, [r7, #8]
    1cea:	607a      	str	r2, [r7, #4]
    1cec:	f04f 0300 	mov.w	r3, #0
    1cf0:	617b      	str	r3, [r7, #20]
    1cf2:	f04f 0309 	mov.w	r3, #9
    1cf6:	743b      	strb	r3, [r7, #16]
    1cf8:	68bb      	ldr	r3, [r7, #8]
    1cfa:	ea4f 4313 	mov.w	r3, r3, lsr #16
    1cfe:	b2db      	uxtb	r3, r3
    1d00:	747b      	strb	r3, [r7, #17]
    1d02:	68bb      	ldr	r3, [r7, #8]
    1d04:	ea4f 2313 	mov.w	r3, r3, lsr #8
    1d08:	b2db      	uxtb	r3, r3
    1d0a:	74bb      	strb	r3, [r7, #18]
    1d0c:	68bb      	ldr	r3, [r7, #8]
    1d0e:	b2db      	uxtb	r3, r3
    1d10:	74fb      	strb	r3, [r7, #19]
    1d12:	f107 0210 	add.w	r2, r7, #16
    1d16:	687b      	ldr	r3, [r7, #4]
    1d18:	68f8      	ldr	r0, [r7, #12]
    1d1a:	f04f 0103 	mov.w	r1, #3
    1d1e:	4798      	blx	r3
    1d20:	6178      	str	r0, [r7, #20]
    1d22:	697b      	ldr	r3, [r7, #20]
    1d24:	4618      	mov	r0, r3
    1d26:	f107 0718 	add.w	r7, r7, #24
    1d2a:	46bd      	mov	sp, r7
    1d2c:	bd80      	pop	{r7, pc}
    1d2e:	bf00      	nop

00001d30 <SetEEEEnable>:
    1d30:	b580      	push	{r7, lr}
    1d32:	b084      	sub	sp, #16
    1d34:	af00      	add	r7, sp, #0
    1d36:	6078      	str	r0, [r7, #4]
    1d38:	460b      	mov	r3, r1
    1d3a:	70fb      	strb	r3, [r7, #3]
    1d3c:	f04f 0300 	mov.w	r3, #0
    1d40:	60fb      	str	r3, [r7, #12]
    1d42:	f04f 0381 	mov.w	r3, #129	; 0x81
    1d46:	723b      	strb	r3, [r7, #8]
    1d48:	78fb      	ldrb	r3, [r7, #3]
    1d4a:	727b      	strb	r3, [r7, #9]
    1d4c:	f107 0308 	add.w	r3, r7, #8
    1d50:	6878      	ldr	r0, [r7, #4]
    1d52:	f04f 0101 	mov.w	r1, #1
    1d56:	461a      	mov	r2, r3
    1d58:	f7fe fcea 	bl	730 <FlashCommandSequence>
    1d5c:	60f8      	str	r0, [r7, #12]
    1d5e:	68fb      	ldr	r3, [r7, #12]
    1d60:	4618      	mov	r0, r3
    1d62:	f107 0710 	add.w	r7, r7, #16
    1d66:	46bd      	mov	sp, r7
    1d68:	bd80      	pop	{r7, pc}
    1d6a:	bf00      	nop

Disassembly of section .rodata:

00001d70 <unsecureword>:
    1d70:	fffffffe 			; <UNDEFINED> instruction: 0xfffffffe
    1d74:	00000000 	andeq	r0, r0, r0

00001d78 <unsecurewordLL>:
    1d78:	ffffffff 			; <UNDEFINED> instruction: 0xffffffff
    1d7c:	fffffffe 			; <UNDEFINED> instruction: 0xfffffffe

Disassembly of section .got:

00001d80 <_GLOBAL_OFFSET_TABLE_-0xc>:
    1d80:	00001d98 	muleq	r0, r8, sp
    1d84:	00000731 	andeq	r0, r0, r1, lsr r7
    1d88:	00001dc0 	andeq	r1, r0, r0, asr #27

00001d8c <_GLOBAL_OFFSET_TABLE_>:
	...

Disassembly of section .bss:

00001d98 <flashSSDConfig>:
	...

00001dc0 <base_adr>:
    1dc0:	00000000 	andeq	r0, r0, r0

Disassembly of section .driver_info:

00001dc4 <FlashDriver>:
    1dc4:	00300030 	eorseq	r0, r0, r0, lsr r0
    1dc8:	65657246 	strbvs	r7, [r5, #-582]!	; 0xfffffdba
    1dcc:	6c616373 	stclvs	3, cr6, [r1], #-460	; 0xfffffe34
    1dd0:	4b4d2065 	blmi	1349f6c <FlashDriver+0x13481a8>
    1dd4:	20205858 	eorcs	r5, r0, r8, asr r8
    1dd8:	34323031 	ldrtcc	r3, [r2], #-49	; 0xffffffcf
    1ddc:	4620424b 	strtmi	r4, [r0], -fp, asr #4
    1de0:	6873616c 	ldmdavs	r3!, {r2, r3, r5, r6, r8, sp, lr}^
	...
    1e48:	00000001 	andeq	r0, r0, r1
    1e4c:	00000000 	andeq	r0, r0, r0
    1e50:	00100000 	andseq	r0, r0, r0
    1e54:	00000200 	andeq	r0, r0, r0, lsl #4
    1e58:	000000ff 	strdeq	r0, [r0], -pc	; <UNPREDICTABLE>
    1e5c:	00001000 	andeq	r1, r0, r0
    1e60:	00000000 	andeq	r0, r0, r0
    1e64:	ffffffff 			; <UNDEFINED> instruction: 0xffffffff
    1e68:	ffffffff 			; <UNDEFINED> instruction: 0xffffffff
	...
    2e5c:	00001388 	andeq	r1, r0, r8, lsl #7
    2e60:	00001388 	andeq	r1, r0, r8, lsl #7
    2e64:	00001388 	andeq	r1, r0, r8, lsl #7
    2e68:	00002710 	andeq	r2, r0, r0, lsl r7

Disassembly of section .debug_info:

00000000 <.debug_info>:
       0:	000000f8 	strdeq	r0, [r0], -r8
       4:	00000002 	andeq	r0, r0, r2
       8:	01040000 	mrseq	r0, (UNDEF: 4)
       c:	00000017 	andeq	r0, r0, r7, lsl r0
      10:	00002301 	andeq	r2, r0, r1, lsl #6
      14:	00008900 	andeq	r8, r0, r0, lsl #18
      18:	00000000 	andeq	r0, r0, r0
      1c:	00003000 	andeq	r3, r0, r0
      20:	00000000 	andeq	r0, r0, r0
      24:	07040200 	streq	r0, [r4, -r0, lsl #4]
      28:	000003d3 	ldrdeq	r0, [r0], -r3
      2c:	70080102 	andvc	r0, r8, r2, lsl #2
      30:	02000000 	andeq	r0, r0, #0
      34:	00ce0704 	sbceq	r0, lr, r4, lsl #14
      38:	01020000 	mrseq	r0, (UNDEF: 2)
      3c:	00007908 	andeq	r7, r0, r8, lsl #18
      40:	000a0300 	andeq	r0, sl, r0, lsl #6
      44:	13010000 	movwne	r0, #4096	; 0x1000
      48:	0000004c 	andeq	r0, r0, ip, asr #32
      4c:	00520404 	subseq	r0, r2, r4, lsl #8
      50:	01050000 	mrseq	r0, (UNDEF: 5)
      54:	0000006c 	andeq	r0, r0, ip, rrx
      58:	0000006c 	andeq	r0, r0, ip, rrx
      5c:	00002506 	andeq	r2, r0, r6, lsl #10
      60:	00250600 	eoreq	r0, r5, r0, lsl #12
      64:	25060000 	strcs	r0, [r6, #-0]
      68:	00000000 	andeq	r0, r0, r0
      6c:	69050407 	stmdbvs	r5, {r0, r1, r2, sl}
      70:	0800746e 	stmdaeq	r0, {r1, r2, r3, r5, r6, sl, ip, sp, lr}
      74:	00000001 	andeq	r0, r0, r1
      78:	01260100 	teqeq	r6, r0, lsl #2
      7c:	00000000 	andeq	r0, r0, r0
      80:	00000002 	andeq	r0, r0, r2
      84:	01007d02 	tsteq	r0, r2, lsl #26
      88:	0000009a 	muleq	r0, sl, r0
      8c:	00004209 	andeq	r4, r0, r9, lsl #4
      90:	6c260100 	stfvss	f0, [r6], #-0
      94:	01000000 	mrseq	r0, (UNDEF: 0)
      98:	010a0050 	qaddeq	r0, r0, sl
      9c:	0000005c 	andeq	r0, r0, ip, asr r0
      a0:	6c013d01 	stcvs	13, cr3, [r1], {1}
      a4:	04000000 	streq	r0, [r0], #-0
      a8:	30000000 	andcc	r0, r0, r0
      ac:	00000000 	andeq	r0, r0, r0
      b0:	01000000 	mrseq	r0, (UNDEF: 0)
      b4:	00005409 	andeq	r5, r0, r9, lsl #8
      b8:	413d0100 	teqmi	sp, r0, lsl #2
      bc:	02000000 	andeq	r0, r0, #0
      c0:	7e096c91 	mcrvc	12, 0, r6, cr9, cr1, {4}
      c4:	01000000 	mrseq	r0, (UNDEF: 0)
      c8:	0000253e 	andeq	r2, r0, lr, lsr r5
      cc:	68910200 	ldmvs	r1, {r9}
      d0:	00004909 	andeq	r4, r0, r9, lsl #18
      d4:	253f0100 	ldrcs	r0, [pc, #-256]!	; ffffffdc <FlashDriver+0xffffe218>
      d8:	02000000 	andeq	r0, r0, #0
      dc:	c3096491 	movwgt	r6, #38033	; 0x9491
      e0:	01000000 	mrseq	r0, (UNDEF: 0)
      e4:	00002540 	andeq	r2, r0, r0, asr #10
      e8:	60910200 	addsvs	r0, r1, r0, lsl #4
      ec:	0000690b 	andeq	r6, r0, fp, lsl #18
      f0:	6c420100 	stfvse	f0, [r2], {-0}
      f4:	02000000 	andeq	r0, r0, #0
      f8:	00007491 	muleq	r0, r1, r4
      fc:	000001e6 	andeq	r0, r0, r6, ror #3
     100:	00a40002 	adceq	r0, r4, r2
     104:	01040000 	mrseq	r0, (UNDEF: 4)
     108:	00000017 	andeq	r0, r0, r7, lsl r0
     10c:	00011d01 	andeq	r1, r1, r1, lsl #26
     110:	00008900 	andeq	r8, r0, r0, lsl #18
     114:	00003000 	andeq	r3, r0, r0
     118:	00007200 	andeq	r7, r0, r0, lsl #4
     11c:	00005700 	andeq	r5, r0, r0, lsl #14
     120:	00fc0200 	rscseq	r0, ip, r0, lsl #4
     124:	25020000 	strcs	r0, [r2, #-0]
     128:	00000030 	andeq	r0, r0, r0, lsr r0
     12c:	70080103 	andvc	r0, r8, r3, lsl #2
     130:	03000000 	movweq	r0, #0
     134:	00720601 	rsbseq	r0, r2, r1, lsl #12
     138:	81020000 	mrshi	r0, (UNDEF: 2)
     13c:	02000002 	andeq	r0, r0, #2
     140:	00003028 	andeq	r3, r0, r8, lsr #32
     144:	05020300 	streq	r0, [r2, #-768]	; 0xfffffd00
     148:	00000224 	andeq	r0, r0, r4, lsr #4
     14c:	90070203 	andls	r0, r7, r3, lsl #4
     150:	03000001 	movweq	r0, #1
     154:	023e0504 	eorseq	r0, lr, #4, 10	; 0x1000000
     158:	00020000 	andeq	r0, r2, r0
     15c:	02000002 	andeq	r0, r0, #2
     160:	00006932 	andeq	r6, r0, r2, lsr r9
     164:	07040300 	streq	r0, [r4, -r0, lsl #6]
     168:	000003d3 	ldrdeq	r0, [r0], -r3
     16c:	0000d702 	andeq	sp, r0, r2, lsl #14
     170:	7bb10300 	blvc	fec40d78 <FlashDriver+0xfec3efb4>
     174:	04000000 	streq	r0, [r0], #-0
     178:	00008104 	andeq	r8, r0, r4, lsl #2
     17c:	06010500 	streq	r0, [r1], -r0, lsl #10
     180:	0000015e 	andeq	r0, r0, lr, asr r1
     184:	1cb70328 	ldcne	3, cr0, [r7], #160	; 0xa0
     188:	07000001 	streq	r0, [r0, -r1]
     18c:	00000247 	andeq	r0, r0, r7, asr #4
     190:	005eb903 	subseq	fp, lr, r3, lsl #18
     194:	23020000 	movwcs	r0, #8192	; 0x2000
     198:	01330700 	teqeq	r3, r0, lsl #14
     19c:	ba030000 	blt	c01a4 <FlashDriver+0xbe3e0>
     1a0:	0000005e 	andeq	r0, r0, lr, asr r0
     1a4:	07042302 	streq	r2, [r4, -r2, lsl #6]
     1a8:	0000016a 	andeq	r0, r0, sl, ror #2
     1ac:	005ebb03 	subseq	fp, lr, r3, lsl #22
     1b0:	23020000 	movwcs	r0, #8192	; 0x2000
     1b4:	00ec0708 	rsceq	r0, ip, r8, lsl #14
     1b8:	bc030000 	stclt	0, cr0, [r3], {-0}
     1bc:	0000005e 	andeq	r0, r0, lr, asr r0
     1c0:	070c2302 	streq	r2, [ip, -r2, lsl #6]
     1c4:	00000101 	andeq	r0, r0, r1, lsl #2
     1c8:	005ebd03 	subseq	fp, lr, r3, lsl #26
     1cc:	23020000 	movwcs	r0, #8192	; 0x2000
     1d0:	01f10710 	mvnseq	r0, r0, lsl r7
     1d4:	be030000 	cdplt	0, 0, cr0, cr3, cr0, {0}
     1d8:	0000005e 	andeq	r0, r0, lr, asr r0
     1dc:	07142302 	ldreq	r2, [r4, -r2, lsl #6]
     1e0:	00000215 	andeq	r0, r0, r5, lsl r2
     1e4:	005ebf03 	subseq	fp, lr, r3, lsl #30
     1e8:	23020000 	movwcs	r0, #8192	; 0x2000
     1ec:	01b80718 			; <UNDEFINED> instruction: 0x01b80718
     1f0:	c0030000 	andgt	r0, r3, r0
     1f4:	0000005e 	andeq	r0, r0, lr, asr r0
     1f8:	071c2302 	ldreq	r2, [ip, -r2, lsl #6]
     1fc:	00000111 	andeq	r0, r0, r1, lsl r1
     200:	0025c103 	eoreq	ip, r5, r3, lsl #2
     204:	23020000 	movwcs	r0, #8192	; 0x2000
     208:	01e80720 	mvneq	r0, r0, lsr #14
     20c:	c2030000 	andgt	r0, r3, #0
     210:	00000070 	andeq	r0, r0, r0, ror r0
     214:	00242302 	eoreq	r2, r4, r2, lsl #6
     218:	0001d602 	andeq	sp, r1, r2, lsl #12
     21c:	27c30300 	strbcs	r0, [r3, r0, lsl #6]
     220:	04000001 	streq	r0, [r0], #-1
     224:	00008304 	andeq	r8, r0, r4, lsl #6
     228:	017a0800 	cmneq	sl, r0, lsl #16
     22c:	30030000 	andcc	r0, r3, r0
     230:	00013903 	andeq	r3, r1, r3, lsl #18
     234:	3f040400 	svccc	0x00040400
     238:	09000001 	stmdbeq	r0, {r0}
     23c:	00005e01 	andeq	r5, r0, r1, lsl #28
     240:	00015900 	andeq	r5, r1, r0, lsl #18
     244:	011c0a00 	tsteq	ip, r0, lsl #20
     248:	3e0a0000 	cdpcc	0, 0, cr0, cr10, cr0, {0}
     24c:	0a000000 	beq	254 <EERAMGetProtection+0x38>
     250:	00000159 	andeq	r0, r0, r9, asr r1
     254:	3e040400 	cfcpyscc	mvf0, mvf4
     258:	0b000000 	bleq	260 <EERAMGetProtection+0x44>
     25c:	0001c501 	andeq	ip, r1, r1, lsl #10
     260:	01290100 	teqeq	r9, r0, lsl #2
     264:	0000005e 	andeq	r0, r0, lr, asr r0
     268:	00000030 	andeq	r0, r0, r0, lsr r0
     26c:	00000072 	andeq	r0, r0, r2, ror r0
     270:	00000038 	andeq	r0, r0, r8, lsr r0
     274:	0001d201 	andeq	sp, r1, r1, lsl #4
     278:	00e10c00 	rsceq	r0, r1, r0, lsl #24
     27c:	29010000 	stmdbcs	r1, {}	; <UNPREDICTABLE>
     280:	0000011c 	andeq	r0, r0, ip, lsl r1
     284:	0c649102 	stfeqp	f1, [r4], #-8
     288:	00000143 	andeq	r0, r0, r3, asr #2
     28c:	003e2a01 	eorseq	r2, lr, r1, lsl #20
     290:	91020000 	mrsls	r0, (UNDEF: 2)
     294:	022e0c63 	eoreq	r0, lr, #25344	; 0x6300
     298:	2b010000 	blcs	402a0 <FlashDriver+0x3e4dc>
     29c:	0000003e 	andeq	r0, r0, lr, lsr r0
     2a0:	0c629102 	stfeqp	f1, [r2], #-8
     2a4:	000001a3 	andeq	r0, r0, r3, lsr #3
     2a8:	012d2c01 	teqeq	sp, r1, lsl #24
     2ac:	91020000 	mrsls	r0, (UNDEF: 2)
     2b0:	02070d5c 	andeq	r0, r7, #92, 26	; 0x1700
     2b4:	2e010000 	cdpcs	0, 0, cr0, cr1, cr0, {0}
     2b8:	000001d2 	ldrdeq	r0, [r0], -r2
     2bc:	0d6c9102 	stfeqp	f1, [ip, #-8]!
     2c0:	00000153 	andeq	r0, r0, r3, asr r1
     2c4:	005e2f01 	subseq	r2, lr, r1, lsl #30
     2c8:	91020000 	mrsls	r0, (UNDEF: 2)
     2cc:	3e0e0074 	mcrcc	0, 0, r0, cr14, cr4, {3}
     2d0:	e2000000 	and	r0, r0, #0
     2d4:	0f000001 	svceq	0x00000001
     2d8:	000001e2 	andeq	r0, r0, r2, ror #3
     2dc:	04030005 	streq	r0, [r3], #-5
     2e0:	0000ce07 	andeq	ip, r0, r7, lsl #28
     2e4:	01900000 	orrseq	r0, r0, r0
     2e8:	00020000 	andeq	r0, r2, r0
     2ec:	00000169 	andeq	r0, r0, r9, ror #2
     2f0:	00170104 	andseq	r0, r7, r4, lsl #2
     2f4:	53010000 	movwpl	r0, #4096	; 0x1000
     2f8:	89000002 	stmdbhi	r0, {r1}
     2fc:	74000000 	strvc	r0, [r0], #-0
     300:	b2000000 	andlt	r0, r0, #0
     304:	c6000000 	strgt	r0, [r0], -r0
     308:	02000000 	andeq	r0, r0, #0
     30c:	000000fc 	strdeq	r0, [r0], -ip
     310:	00302502 	eorseq	r2, r0, r2, lsl #10
     314:	01030000 	mrseq	r0, (UNDEF: 3)
     318:	00007008 	andeq	r7, r0, r8
     31c:	06010300 	streq	r0, [r1], -r0, lsl #6
     320:	00000072 	andeq	r0, r0, r2, ror r0
     324:	00028102 	andeq	r8, r2, r2, lsl #2
     328:	30280200 	eorcc	r0, r8, r0, lsl #4
     32c:	02000000 	andeq	r0, r0, #0
     330:	00000280 	andeq	r0, r0, r0, lsl #5
     334:	00542a02 	subseq	r2, r4, r2, lsl #20
     338:	30040000 	andcc	r0, r4, r0
     33c:	03000000 	movweq	r0, #0
     340:	02240502 	eoreq	r0, r4, #8388608	; 0x800000
     344:	02030000 	andeq	r0, r3, #0
     348:	00019007 	andeq	r9, r1, r7
     34c:	05040300 	streq	r0, [r4, #-768]	; 0xfffffd00
     350:	0000023e 	andeq	r0, r0, lr, lsr r2
     354:	00020002 	andeq	r0, r2, r2
     358:	79320200 	ldmdbvc	r2!, {r9}
     35c:	03000000 	movweq	r0, #0
     360:	03d30704 	bicseq	r0, r3, #4, 14	; 0x100000
     364:	d7020000 	strle	r0, [r2, -r0]
     368:	03000000 	movweq	r0, #0
     36c:	00008bb1 			; <UNDEFINED> instruction: 0x00008bb1
     370:	91040500 	tstls	r4, r0, lsl #10
     374:	06000000 	streq	r0, [r0], -r0
     378:	015e0701 	cmpeq	lr, r1, lsl #14
     37c:	03280000 	teqeq	r8, #0
     380:	00012cb7 			; <UNDEFINED> instruction: 0x00012cb7
     384:	02470800 	subeq	r0, r7, #0, 16
     388:	b9030000 	stmdblt	r3, {}	; <UNPREDICTABLE>
     38c:	0000006e 	andeq	r0, r0, lr, rrx
     390:	08002302 	stmdaeq	r0, {r1, r8, r9, sp}
     394:	00000133 	andeq	r0, r0, r3, lsr r1
     398:	006eba03 	rsbeq	fp, lr, r3, lsl #20
     39c:	23020000 	movwcs	r0, #8192	; 0x2000
     3a0:	016a0804 	cmneq	sl, r4, lsl #16
     3a4:	bb030000 	bllt	c03ac <FlashDriver+0xbe5e8>
     3a8:	0000006e 	andeq	r0, r0, lr, rrx
     3ac:	08082302 	stmdaeq	r8, {r1, r8, r9, sp}
     3b0:	000000ec 	andeq	r0, r0, ip, ror #1
     3b4:	006ebc03 	rsbeq	fp, lr, r3, lsl #24
     3b8:	23020000 	movwcs	r0, #8192	; 0x2000
     3bc:	0101080c 	tsteq	r1, ip, lsl #16
     3c0:	bd030000 	stclt	0, cr0, [r3, #-0]
     3c4:	0000006e 	andeq	r0, r0, lr, rrx
     3c8:	08102302 	ldmdaeq	r0, {r1, r8, r9, sp}
     3cc:	000001f1 	strdeq	r0, [r0], -r1
     3d0:	006ebe03 	rsbeq	fp, lr, r3, lsl #28
     3d4:	23020000 	movwcs	r0, #8192	; 0x2000
     3d8:	02150814 	andseq	r0, r5, #20, 16	; 0x140000
     3dc:	bf030000 	svclt	0x00030000
     3e0:	0000006e 	andeq	r0, r0, lr, rrx
     3e4:	08182302 	ldmdaeq	r8, {r1, r8, r9, sp}
     3e8:	000001b8 			; <UNDEFINED> instruction: 0x000001b8
     3ec:	006ec003 	rsbeq	ip, lr, r3
     3f0:	23020000 	movwcs	r0, #8192	; 0x2000
     3f4:	0111081c 	tsteq	r1, ip, lsl r8
     3f8:	c1030000 	mrsgt	r0, (UNDEF: 3)
     3fc:	00000025 	andeq	r0, r0, r5, lsr #32
     400:	08202302 	stmdaeq	r0!, {r1, r8, r9, sp}
     404:	000001e8 	andeq	r0, r0, r8, ror #3
     408:	0080c203 	addeq	ip, r0, r3, lsl #4
     40c:	23020000 	movwcs	r0, #8192	; 0x2000
     410:	d6020024 	strle	r0, [r2], -r4, lsr #32
     414:	03000001 	movweq	r0, #1
     418:	000137c3 	andeq	r3, r1, r3, asr #15
     41c:	93040500 	movwls	r0, #17664	; 0x4500
     420:	05000000 	streq	r0, [r0, #-0]
     424:	00003e04 	andeq	r3, r0, r4, lsl #28
     428:	6c010900 	stcvs	9, cr0, [r1], {-0}
     42c:	01000002 	tsteq	r0, r2
     430:	006e0127 	rsbeq	r0, lr, r7, lsr #2
     434:	00740000 	rsbseq	r0, r4, r0
     438:	00b20000 	adcseq	r0, r2, r0
     43c:	00700000 	rsbseq	r0, r0, r0
     440:	0a010000 	beq	40448 <FlashDriver+0x3e684>
     444:	000000e1 	andeq	r0, r0, r1, ror #1
     448:	012c2701 	teqeq	ip, r1, lsl #14
     44c:	91020000 	mrsls	r0, (UNDEF: 2)
     450:	02870a6c 	addeq	r0, r7, #108, 20	; 0x6c000
     454:	27010000 	strcs	r0, [r1, -r0]
     458:	0000013d 	andeq	r0, r0, sp, lsr r1
     45c:	0b689102 	bleq	1a2486c <FlashDriver+0x1a22aa8>
     460:	00000153 	andeq	r0, r0, r3, asr r1
     464:	006e2901 	rsbeq	r2, lr, r1, lsl #18
     468:	91020000 	mrsls	r0, (UNDEF: 2)
     46c:	02950c74 	addseq	r0, r5, #116, 24	; 0x7400
     470:	3b010000 	blcc	40478 <FlashDriver+0x3e6b4>
     474:	000000a4 	andeq	r0, r0, r4, lsr #1
     478:	01a60000 			; <UNDEFINED> instruction: 0x01a60000
     47c:	00020000 	andeq	r0, r2, r0
     480:	0000020f 	andeq	r0, r0, pc, lsl #4
     484:	00170104 	andseq	r0, r7, r4, lsl #2
     488:	9f010000 	svcls	0x00010000
     48c:	89000002 	stmdbhi	r0, {r1}
     490:	b4000000 	strlt	r0, [r0], #-0
     494:	5c000000 	stcpl	0, cr0, [r0], {-0}
     498:	38000001 	stmdacc	r0, {r0}
     49c:	02000001 	andeq	r0, r0, #1
     4a0:	000000fc 	strdeq	r0, [r0], -ip
     4a4:	00302502 	eorseq	r2, r0, r2, lsl #10
     4a8:	01030000 	mrseq	r0, (UNDEF: 3)
     4ac:	00007008 	andeq	r7, r0, r8
     4b0:	06010300 	streq	r0, [r1], -r0, lsl #6
     4b4:	00000072 	andeq	r0, r0, r2, ror r0
     4b8:	00028102 	andeq	r8, r2, r2, lsl #2
     4bc:	30280200 	eorcc	r0, r8, r0, lsl #4
     4c0:	02000000 	andeq	r0, r0, #0
     4c4:	00000280 	andeq	r0, r0, r0, lsl #5
     4c8:	00542a02 	subseq	r2, r4, r2, lsl #20
     4cc:	30040000 	andcc	r0, r4, r0
     4d0:	03000000 	movweq	r0, #0
     4d4:	02240502 	eoreq	r0, r4, #8388608	; 0x800000
     4d8:	02030000 	andeq	r0, r3, #0
     4dc:	00019007 	andeq	r9, r1, r7
     4e0:	05040300 	streq	r0, [r4, #-768]	; 0xfffffd00
     4e4:	0000023e 	andeq	r0, r0, lr, lsr r2
     4e8:	00020002 	andeq	r0, r2, r2
     4ec:	79320200 	ldmdbvc	r2!, {r9}
     4f0:	03000000 	movweq	r0, #0
     4f4:	03d30704 	bicseq	r0, r3, #4, 14	; 0x100000
     4f8:	d7020000 	strle	r0, [r2, -r0]
     4fc:	03000000 	movweq	r0, #0
     500:	00008bb1 			; <UNDEFINED> instruction: 0x00008bb1
     504:	91040500 	tstls	r4, r0, lsl #10
     508:	06000000 	streq	r0, [r0], -r0
     50c:	015e0701 	cmpeq	lr, r1, lsl #14
     510:	03280000 	teqeq	r8, #0
     514:	00012cb7 			; <UNDEFINED> instruction: 0x00012cb7
     518:	02470800 	subeq	r0, r7, #0, 16
     51c:	b9030000 	stmdblt	r3, {}	; <UNPREDICTABLE>
     520:	0000006e 	andeq	r0, r0, lr, rrx
     524:	08002302 	stmdaeq	r0, {r1, r8, r9, sp}
     528:	00000133 	andeq	r0, r0, r3, lsr r1
     52c:	006eba03 	rsbeq	fp, lr, r3, lsl #20
     530:	23020000 	movwcs	r0, #8192	; 0x2000
     534:	016a0804 	cmneq	sl, r4, lsl #16
     538:	bb030000 	bllt	c0540 <FlashDriver+0xbe77c>
     53c:	0000006e 	andeq	r0, r0, lr, rrx
     540:	08082302 	stmdaeq	r8, {r1, r8, r9, sp}
     544:	000000ec 	andeq	r0, r0, ip, ror #1
     548:	006ebc03 	rsbeq	fp, lr, r3, lsl #24
     54c:	23020000 	movwcs	r0, #8192	; 0x2000
     550:	0101080c 	tsteq	r1, ip, lsl #16
     554:	bd030000 	stclt	0, cr0, [r3, #-0]
     558:	0000006e 	andeq	r0, r0, lr, rrx
     55c:	08102302 	ldmdaeq	r0, {r1, r8, r9, sp}
     560:	000001f1 	strdeq	r0, [r0], -r1
     564:	006ebe03 	rsbeq	fp, lr, r3, lsl #28
     568:	23020000 	movwcs	r0, #8192	; 0x2000
     56c:	02150814 	andseq	r0, r5, #20, 16	; 0x140000
     570:	bf030000 	svclt	0x00030000
     574:	0000006e 	andeq	r0, r0, lr, rrx
     578:	08182302 	ldmdaeq	r8, {r1, r8, r9, sp}
     57c:	000001b8 			; <UNDEFINED> instruction: 0x000001b8
     580:	006ec003 	rsbeq	ip, lr, r3
     584:	23020000 	movwcs	r0, #8192	; 0x2000
     588:	0111081c 	tsteq	r1, ip, lsl r8
     58c:	c1030000 	mrsgt	r0, (UNDEF: 3)
     590:	00000025 	andeq	r0, r0, r5, lsr #32
     594:	08202302 	stmdaeq	r0!, {r1, r8, r9, sp}
     598:	000001e8 	andeq	r0, r0, r8, ror #3
     59c:	0080c203 	addeq	ip, r0, r3, lsl #4
     5a0:	23020000 	movwcs	r0, #8192	; 0x2000
     5a4:	d6020024 	strle	r0, [r2], -r4, lsr #32
     5a8:	03000001 	movweq	r0, #1
     5ac:	000137c3 	andeq	r3, r1, r3, asr #15
     5b0:	93040500 	movwls	r0, #17664	; 0x4500
     5b4:	09000000 	stmdbeq	r0, {}	; <UNPREDICTABLE>
     5b8:	0002c601 	andeq	ip, r2, r1, lsl #12
     5bc:	012a0100 	teqeq	sl, r0, lsl #2
     5c0:	0000006e 	andeq	r0, r0, lr, rrx
     5c4:	000000b4 	strheq	r0, [r0], -r4
     5c8:	0000015c 	andeq	r0, r0, ip, asr r1
     5cc:	000000a8 	andeq	r0, r0, r8, lsr #1
     5d0:	00e10a01 	rsceq	r0, r1, r1, lsl #20
     5d4:	2a010000 	bcs	405dc <FlashDriver+0x3e818>
     5d8:	0000012c 	andeq	r0, r0, ip, lsr #2
     5dc:	0a6c9102 	beq	1b249ec <FlashDriver+0x1b22c28>
     5e0:	00000287 	andeq	r0, r0, r7, lsl #5
     5e4:	003e2a01 	eorseq	r2, lr, r1, lsl #20
     5e8:	91020000 	mrsls	r0, (UNDEF: 2)
     5ec:	02b80b6b 	adcseq	r0, r8, #109568	; 0x1ac00
     5f0:	2c010000 	stccs	0, cr0, [r1], {-0}
     5f4:	0000003e 	andeq	r0, r0, lr, lsr r0
     5f8:	0b739102 	bleq	1ce4a08 <FlashDriver+0x1ce2c44>
     5fc:	00000153 	andeq	r0, r0, r3, asr r1
     600:	006e2d01 	rsbeq	r2, lr, r1, lsl #26
     604:	91020000 	mrsls	r0, (UNDEF: 2)
     608:	029a0b74 	addseq	r0, sl, #116, 22	; 0x1d000
     60c:	2e010000 	cdpcs	0, 0, cr0, cr1, cr0, {0}
     610:	0000003e 	andeq	r0, r0, lr, lsr r0
     614:	0c729102 	ldfeqp	f1, [r2], #-8
     618:	00000295 	muleq	r0, r5, r2
     61c:	014e5a01 	cmpeq	lr, r1, lsl #20
     620:	00000000 	andeq	r0, r0, r0
     624:	000001a6 	andeq	r0, r0, r6, lsr #3
     628:	02b50002 	adcseq	r0, r5, #2
     62c:	01040000 	mrseq	r0, (UNDEF: 4)
     630:	00000017 	andeq	r0, r0, r7, lsl r0
     634:	0002ef01 	andeq	lr, r2, r1, lsl #30
     638:	00008900 	andeq	r8, r0, r0, lsl #18
     63c:	00015c00 	andeq	r5, r1, r0, lsl #24
     640:	00021a00 	andeq	r1, r2, r0, lsl #20
     644:	0001b600 	andeq	fp, r1, r0, lsl #12
     648:	00fc0200 	rscseq	r0, ip, r0, lsl #4
     64c:	25020000 	strcs	r0, [r2, #-0]
     650:	00000030 	andeq	r0, r0, r0, lsr r0
     654:	70080103 	andvc	r0, r8, r3, lsl #2
     658:	03000000 	movweq	r0, #0
     65c:	00720601 	rsbseq	r0, r2, r1, lsl #12
     660:	81020000 	mrshi	r0, (UNDEF: 2)
     664:	02000002 	andeq	r0, r0, #2
     668:	00003028 	andeq	r3, r0, r8, lsr #32
     66c:	02800200 	addeq	r0, r0, #0, 4
     670:	2a020000 	bcs	80678 <FlashDriver+0x7e8b4>
     674:	00000054 	andeq	r0, r0, r4, asr r0
     678:	00003004 	andeq	r3, r0, r4
     67c:	05020300 	streq	r0, [r2, #-768]	; 0xfffffd00
     680:	00000224 	andeq	r0, r0, r4, lsr #4
     684:	90070203 	andls	r0, r7, r3, lsl #4
     688:	03000001 	movweq	r0, #1
     68c:	023e0504 	eorseq	r0, lr, #4, 10	; 0x1000000
     690:	00020000 	andeq	r0, r2, r0
     694:	02000002 	andeq	r0, r0, #2
     698:	00007932 	andeq	r7, r0, r2, lsr r9
     69c:	07040300 	streq	r0, [r4, -r0, lsl #6]
     6a0:	000003d3 	ldrdeq	r0, [r0], -r3
     6a4:	0000d702 	andeq	sp, r0, r2, lsl #14
     6a8:	8bb10300 	blhi	fec412b0 <FlashDriver+0xfec3f4ec>
     6ac:	05000000 	streq	r0, [r0, #-0]
     6b0:	00009104 	andeq	r9, r0, r4, lsl #2
     6b4:	07010600 	streq	r0, [r1, -r0, lsl #12]
     6b8:	0000015e 	andeq	r0, r0, lr, asr r1
     6bc:	2cb70328 	ldccs	3, cr0, [r7], #160	; 0xa0
     6c0:	08000001 	stmdaeq	r0, {r0}
     6c4:	00000247 	andeq	r0, r0, r7, asr #4
     6c8:	006eb903 	rsbeq	fp, lr, r3, lsl #18
     6cc:	23020000 	movwcs	r0, #8192	; 0x2000
     6d0:	01330800 	teqeq	r3, r0, lsl #16
     6d4:	ba030000 	blt	c06dc <FlashDriver+0xbe918>
     6d8:	0000006e 	andeq	r0, r0, lr, rrx
     6dc:	08042302 	stmdaeq	r4, {r1, r8, r9, sp}
     6e0:	0000016a 	andeq	r0, r0, sl, ror #2
     6e4:	006ebb03 	rsbeq	fp, lr, r3, lsl #22
     6e8:	23020000 	movwcs	r0, #8192	; 0x2000
     6ec:	00ec0808 	rsceq	r0, ip, r8, lsl #16
     6f0:	bc030000 	stclt	0, cr0, [r3], {-0}
     6f4:	0000006e 	andeq	r0, r0, lr, rrx
     6f8:	080c2302 	stmdaeq	ip, {r1, r8, r9, sp}
     6fc:	00000101 	andeq	r0, r0, r1, lsl #2
     700:	006ebd03 	rsbeq	fp, lr, r3, lsl #26
     704:	23020000 	movwcs	r0, #8192	; 0x2000
     708:	01f10810 	mvnseq	r0, r0, lsl r8
     70c:	be030000 	cdplt	0, 0, cr0, cr3, cr0, {0}
     710:	0000006e 	andeq	r0, r0, lr, rrx
     714:	08142302 	ldmdaeq	r4, {r1, r8, r9, sp}
     718:	00000215 	andeq	r0, r0, r5, lsl r2
     71c:	006ebf03 	rsbeq	fp, lr, r3, lsl #30
     720:	23020000 	movwcs	r0, #8192	; 0x2000
     724:	01b80818 			; <UNDEFINED> instruction: 0x01b80818
     728:	c0030000 	andgt	r0, r3, r0
     72c:	0000006e 	andeq	r0, r0, lr, rrx
     730:	081c2302 	ldmdaeq	ip, {r1, r8, r9, sp}
     734:	00000111 	andeq	r0, r0, r1, lsl r1
     738:	0025c103 	eoreq	ip, r5, r3, lsl #2
     73c:	23020000 	movwcs	r0, #8192	; 0x2000
     740:	01e80820 	mvneq	r0, r0, lsr #16
     744:	c2030000 	andgt	r0, r3, #0
     748:	00000080 	andeq	r0, r0, r0, lsl #1
     74c:	00242302 	eoreq	r2, r4, r2, lsl #6
     750:	0001d602 	andeq	sp, r1, r2, lsl #12
     754:	37c30300 	strbcc	r0, [r3, r0, lsl #6]
     758:	05000001 	streq	r0, [r0, #-1]
     75c:	00009304 	andeq	r9, r0, r4, lsl #6
     760:	e6010900 	str	r0, [r1], -r0, lsl #18
     764:	01000002 	tsteq	r0, r2
     768:	006e012b 	rsbeq	r0, lr, fp, lsr #2
     76c:	015c0000 	cmpeq	ip, r0
     770:	021a0000 	andseq	r0, sl, #0
     774:	00e00000 	rsceq	r0, r0, r0
     778:	0a010000 	beq	40780 <FlashDriver+0x3e9bc>
     77c:	000000e1 	andeq	r0, r0, r1, ror #1
     780:	012c2b01 	teqeq	ip, r1, lsl #22
     784:	91020000 	mrsls	r0, (UNDEF: 2)
     788:	02da0a6c 	sbcseq	r0, sl, #108, 20	; 0x6c000
     78c:	2c010000 	stccs	0, cr0, [r1], {-0}
     790:	0000006e 	andeq	r0, r0, lr, rrx
     794:	0a689102 	beq	1a24ba4 <FlashDriver+0x1a22de0>
     798:	000002fd 	strdeq	r0, [r0], -sp
     79c:	006e2d01 	rsbeq	r2, lr, r1, lsl #26
     7a0:	91020000 	mrsls	r0, (UNDEF: 2)
     7a4:	082a0a64 	stmdaeq	sl!, {r2, r5, r6, r9, fp}
     7a8:	2e010000 	cdpcs	0, 0, cr0, cr1, cr0, {0}
     7ac:	0000006e 	andeq	r0, r0, lr, rrx
     7b0:	0b609102 	bleq	1824bc0 <FlashDriver+0x1822dfc>
     7b4:	00000153 	andeq	r0, r0, r3, asr r1
     7b8:	006e3001 	rsbeq	r3, lr, r1
     7bc:	91020000 	mrsls	r0, (UNDEF: 2)
     7c0:	02950c74 	addseq	r0, r5, #116, 24	; 0x7400
     7c4:	5c010000 	stcpl	0, cr0, [r1], {-0}
     7c8:	0000020c 	andeq	r0, r0, ip, lsl #4
     7cc:	01900000 	orrseq	r0, r0, r0
     7d0:	00020000 	andeq	r0, r2, r0
     7d4:	0000035b 	andeq	r0, r0, fp, asr r3
     7d8:	00170104 	andseq	r0, r7, r4, lsl #2
     7dc:	15010000 	strne	r0, [r1, #-0]
     7e0:	89000003 	stmdbhi	r0, {r0, r1}
     7e4:	1c000000 	stcne	0, cr0, [r0], {-0}
     7e8:	68000002 	stmdavs	r0, {r1}
     7ec:	44000002 	strmi	r0, [r0], #-2
     7f0:	02000002 	andeq	r0, r0, #2
     7f4:	000000fc 	strdeq	r0, [r0], -ip
     7f8:	00302502 	eorseq	r2, r0, r2, lsl #10
     7fc:	01030000 	mrseq	r0, (UNDEF: 3)
     800:	00007008 	andeq	r7, r0, r8
     804:	06010300 	streq	r0, [r1], -r0, lsl #6
     808:	00000072 	andeq	r0, r0, r2, ror r0
     80c:	00028102 	andeq	r8, r2, r2, lsl #2
     810:	30280200 	eorcc	r0, r8, r0, lsl #4
     814:	02000000 	andeq	r0, r0, #0
     818:	00000280 	andeq	r0, r0, r0, lsl #5
     81c:	00542a02 	subseq	r2, r4, r2, lsl #20
     820:	30040000 	andcc	r0, r4, r0
     824:	03000000 	movweq	r0, #0
     828:	02240502 	eoreq	r0, r4, #8388608	; 0x800000
     82c:	02030000 	andeq	r0, r3, #0
     830:	00019007 	andeq	r9, r1, r7
     834:	05040300 	streq	r0, [r4, #-768]	; 0xfffffd00
     838:	0000023e 	andeq	r0, r0, lr, lsr r2
     83c:	00020002 	andeq	r0, r2, r2
     840:	79320200 	ldmdbvc	r2!, {r9}
     844:	03000000 	movweq	r0, #0
     848:	03d30704 	bicseq	r0, r3, #4, 14	; 0x100000
     84c:	d7020000 	strle	r0, [r2, -r0]
     850:	03000000 	movweq	r0, #0
     854:	00008bb1 			; <UNDEFINED> instruction: 0x00008bb1
     858:	91040500 	tstls	r4, r0, lsl #10
     85c:	06000000 	streq	r0, [r0], -r0
     860:	015e0701 	cmpeq	lr, r1, lsl #14
     864:	03280000 	teqeq	r8, #0
     868:	00012cb7 			; <UNDEFINED> instruction: 0x00012cb7
     86c:	02470800 	subeq	r0, r7, #0, 16
     870:	b9030000 	stmdblt	r3, {}	; <UNPREDICTABLE>
     874:	0000006e 	andeq	r0, r0, lr, rrx
     878:	08002302 	stmdaeq	r0, {r1, r8, r9, sp}
     87c:	00000133 	andeq	r0, r0, r3, lsr r1
     880:	006eba03 	rsbeq	fp, lr, r3, lsl #20
     884:	23020000 	movwcs	r0, #8192	; 0x2000
     888:	016a0804 	cmneq	sl, r4, lsl #16
     88c:	bb030000 	bllt	c0894 <FlashDriver+0xbead0>
     890:	0000006e 	andeq	r0, r0, lr, rrx
     894:	08082302 	stmdaeq	r8, {r1, r8, r9, sp}
     898:	000000ec 	andeq	r0, r0, ip, ror #1
     89c:	006ebc03 	rsbeq	fp, lr, r3, lsl #24
     8a0:	23020000 	movwcs	r0, #8192	; 0x2000
     8a4:	0101080c 	tsteq	r1, ip, lsl #16
     8a8:	bd030000 	stclt	0, cr0, [r3, #-0]
     8ac:	0000006e 	andeq	r0, r0, lr, rrx
     8b0:	08102302 	ldmdaeq	r0, {r1, r8, r9, sp}
     8b4:	000001f1 	strdeq	r0, [r0], -r1
     8b8:	006ebe03 	rsbeq	fp, lr, r3, lsl #28
     8bc:	23020000 	movwcs	r0, #8192	; 0x2000
     8c0:	02150814 	andseq	r0, r5, #20, 16	; 0x140000
     8c4:	bf030000 	svclt	0x00030000
     8c8:	0000006e 	andeq	r0, r0, lr, rrx
     8cc:	08182302 	ldmdaeq	r8, {r1, r8, r9, sp}
     8d0:	000001b8 			; <UNDEFINED> instruction: 0x000001b8
     8d4:	006ec003 	rsbeq	ip, lr, r3
     8d8:	23020000 	movwcs	r0, #8192	; 0x2000
     8dc:	0111081c 	tsteq	r1, ip, lsl r8
     8e0:	c1030000 	mrsgt	r0, (UNDEF: 3)
     8e4:	00000025 	andeq	r0, r0, r5, lsr #32
     8e8:	08202302 	stmdaeq	r0!, {r1, r8, r9, sp}
     8ec:	000001e8 	andeq	r0, r0, r8, ror #3
     8f0:	0080c203 	addeq	ip, r0, r3, lsl #4
     8f4:	23020000 	movwcs	r0, #8192	; 0x2000
     8f8:	d6020024 	strle	r0, [r2], -r4, lsr #32
     8fc:	03000001 	movweq	r0, #1
     900:	000137c3 	andeq	r3, r1, r3, asr #15
     904:	93040500 	movwls	r0, #17664	; 0x4500
     908:	05000000 	streq	r0, [r0, #-0]
     90c:	00003e04 	andeq	r3, r0, r4, lsl #28
     910:	02010900 	andeq	r0, r1, #0, 18
     914:	01000003 	tsteq	r0, r3
     918:	006e0127 	rsbeq	r0, lr, r7, lsr #2
     91c:	021c0000 	andseq	r0, ip, #0
     920:	02680000 	rsbeq	r0, r8, #0
     924:	01180000 	tsteq	r8, r0
     928:	0a010000 	beq	40930 <FlashDriver+0x3eb6c>
     92c:	000000e1 	andeq	r0, r0, r1, ror #1
     930:	012c2701 	teqeq	ip, r1, lsl #14
     934:	91020000 	mrsls	r0, (UNDEF: 2)
     938:	02870a6c 	addeq	r0, r7, #108, 20	; 0x6c000
     93c:	27010000 	strcs	r0, [r1, -r0]
     940:	0000013d 	andeq	r0, r0, sp, lsr r1
     944:	0b689102 	bleq	1a24d54 <FlashDriver+0x1a22f90>
     948:	00000153 	andeq	r0, r0, r3, asr r1
     94c:	006e2901 	rsbeq	r2, lr, r1, lsl #18
     950:	91020000 	mrsls	r0, (UNDEF: 2)
     954:	02950c74 	addseq	r0, r5, #116, 24	; 0x7400
     958:	3a010000 	bcc	40960 <FlashDriver+0x3eb9c>
     95c:	0000025a 	andeq	r0, r0, sl, asr r2
     960:	01a60000 			; <UNDEFINED> instruction: 0x01a60000
     964:	00020000 	andeq	r0, r2, r0
     968:	00000401 	andeq	r0, r0, r1, lsl #8
     96c:	00170104 	andseq	r0, r7, r4, lsl #2
     970:	2d010000 	stccs	0, cr0, [r1, #-0]
     974:	89000003 	stmdbhi	r0, {r0, r1}
     978:	68000000 	stmdavs	r0, {}	; <UNPREDICTABLE>
     97c:	1c000002 	stcne	0, cr0, [r0], {2}
     980:	b5000003 	strlt	r0, [r0, #-3]
     984:	02000002 	andeq	r0, r0, #2
     988:	000000fc 	strdeq	r0, [r0], -ip
     98c:	00302502 	eorseq	r2, r0, r2, lsl #10
     990:	01030000 	mrseq	r0, (UNDEF: 3)
     994:	00007008 	andeq	r7, r0, r8
     998:	06010300 	streq	r0, [r1], -r0, lsl #6
     99c:	00000072 	andeq	r0, r0, r2, ror r0
     9a0:	00028102 	andeq	r8, r2, r2, lsl #2
     9a4:	30280200 	eorcc	r0, r8, r0, lsl #4
     9a8:	02000000 	andeq	r0, r0, #0
     9ac:	00000280 	andeq	r0, r0, r0, lsl #5
     9b0:	00542a02 	subseq	r2, r4, r2, lsl #20
     9b4:	30040000 	andcc	r0, r4, r0
     9b8:	03000000 	movweq	r0, #0
     9bc:	02240502 	eoreq	r0, r4, #8388608	; 0x800000
     9c0:	02030000 	andeq	r0, r3, #0
     9c4:	00019007 	andeq	r9, r1, r7
     9c8:	05040300 	streq	r0, [r4, #-768]	; 0xfffffd00
     9cc:	0000023e 	andeq	r0, r0, lr, lsr r2
     9d0:	00020002 	andeq	r0, r2, r2
     9d4:	79320200 	ldmdbvc	r2!, {r9}
     9d8:	03000000 	movweq	r0, #0
     9dc:	03d30704 	bicseq	r0, r3, #4, 14	; 0x100000
     9e0:	d7020000 	strle	r0, [r2, -r0]
     9e4:	03000000 	movweq	r0, #0
     9e8:	00008bb1 			; <UNDEFINED> instruction: 0x00008bb1
     9ec:	91040500 	tstls	r4, r0, lsl #10
     9f0:	06000000 	streq	r0, [r0], -r0
     9f4:	015e0701 	cmpeq	lr, r1, lsl #14
     9f8:	03280000 	teqeq	r8, #0
     9fc:	00012cb7 			; <UNDEFINED> instruction: 0x00012cb7
     a00:	02470800 	subeq	r0, r7, #0, 16
     a04:	b9030000 	stmdblt	r3, {}	; <UNPREDICTABLE>
     a08:	0000006e 	andeq	r0, r0, lr, rrx
     a0c:	08002302 	stmdaeq	r0, {r1, r8, r9, sp}
     a10:	00000133 	andeq	r0, r0, r3, lsr r1
     a14:	006eba03 	rsbeq	fp, lr, r3, lsl #20
     a18:	23020000 	movwcs	r0, #8192	; 0x2000
     a1c:	016a0804 	cmneq	sl, r4, lsl #16
     a20:	bb030000 	bllt	c0a28 <FlashDriver+0xbec64>
     a24:	0000006e 	andeq	r0, r0, lr, rrx
     a28:	08082302 	stmdaeq	r8, {r1, r8, r9, sp}
     a2c:	000000ec 	andeq	r0, r0, ip, ror #1
     a30:	006ebc03 	rsbeq	fp, lr, r3, lsl #24
     a34:	23020000 	movwcs	r0, #8192	; 0x2000
     a38:	0101080c 	tsteq	r1, ip, lsl #16
     a3c:	bd030000 	stclt	0, cr0, [r3, #-0]
     a40:	0000006e 	andeq	r0, r0, lr, rrx
     a44:	08102302 	ldmdaeq	r0, {r1, r8, r9, sp}
     a48:	000001f1 	strdeq	r0, [r0], -r1
     a4c:	006ebe03 	rsbeq	fp, lr, r3, lsl #28
     a50:	23020000 	movwcs	r0, #8192	; 0x2000
     a54:	02150814 	andseq	r0, r5, #20, 16	; 0x140000
     a58:	bf030000 	svclt	0x00030000
     a5c:	0000006e 	andeq	r0, r0, lr, rrx
     a60:	08182302 	ldmdaeq	r8, {r1, r8, r9, sp}
     a64:	000001b8 			; <UNDEFINED> instruction: 0x000001b8
     a68:	006ec003 	rsbeq	ip, lr, r3
     a6c:	23020000 	movwcs	r0, #8192	; 0x2000
     a70:	0111081c 	tsteq	r1, ip, lsl r8
     a74:	c1030000 	mrsgt	r0, (UNDEF: 3)
     a78:	00000025 	andeq	r0, r0, r5, lsr #32
     a7c:	08202302 	stmdaeq	r0!, {r1, r8, r9, sp}
     a80:	000001e8 	andeq	r0, r0, r8, ror #3
     a84:	0080c203 	addeq	ip, r0, r3, lsl #4
     a88:	23020000 	movwcs	r0, #8192	; 0x2000
     a8c:	d6020024 	strle	r0, [r2], -r4, lsr #32
     a90:	03000001 	movweq	r0, #1
     a94:	000137c3 	andeq	r3, r1, r3, asr #15
     a98:	93040500 	movwls	r0, #17664	; 0x4500
     a9c:	09000000 	stmdbeq	r0, {}	; <UNPREDICTABLE>
     aa0:	00034501 	andeq	r4, r3, r1, lsl #10
     aa4:	01280100 	teqeq	r8, r0, lsl #2
     aa8:	0000006e 	andeq	r0, r0, lr, rrx
     aac:	00000268 	andeq	r0, r0, r8, ror #4
     ab0:	0000031c 	andeq	r0, r0, ip, lsl r3
     ab4:	00000150 	andeq	r0, r0, r0, asr r1
     ab8:	00e10a01 	rsceq	r0, r1, r1, lsl #20
     abc:	28010000 	stmdacs	r1, {}	; <UNPREDICTABLE>
     ac0:	0000012c 	andeq	r0, r0, ip, lsr #2
     ac4:	0a6c9102 	beq	1b24ed4 <FlashDriver+0x1b23110>
     ac8:	00000287 	andeq	r0, r0, r7, lsl #5
     acc:	003e2801 	eorseq	r2, lr, r1, lsl #16
     ad0:	91020000 	mrsls	r0, (UNDEF: 2)
     ad4:	02b80b6b 	adcseq	r0, r8, #109568	; 0x1ac00
     ad8:	2a010000 	bcs	40ae0 <FlashDriver+0x3ed1c>
     adc:	0000003e 	andeq	r0, r0, lr, lsr r0
     ae0:	0b739102 	bleq	1ce4ef0 <FlashDriver+0x1ce312c>
     ae4:	00000153 	andeq	r0, r0, r3, asr r1
     ae8:	006e2b01 	rsbeq	r2, lr, r1, lsl #22
     aec:	91020000 	mrsls	r0, (UNDEF: 2)
     af0:	029a0b74 	addseq	r0, sl, #116, 22	; 0x1d000
     af4:	2c010000 	stccs	0, cr0, [r1], {-0}
     af8:	0000003e 	andeq	r0, r0, lr, lsr r0
     afc:	0c729102 	ldfeqp	f1, [r2], #-8
     b00:	00000295 	muleq	r0, r5, r2
     b04:	030e5901 	movweq	r5, #59649	; 0xe901
     b08:	00000000 	andeq	r0, r0, r0
     b0c:	000003a2 	andeq	r0, r0, r2, lsr #7
     b10:	04a70002 	strteq	r0, [r7], #2
     b14:	01040000 	mrseq	r0, (UNDEF: 4)
     b18:	00000017 	andeq	r0, r0, r7, lsl r0
     b1c:	00040701 	andeq	r0, r4, r1, lsl #14
     b20:	00008900 	andeq	r8, r0, r0, lsl #18
     b24:	00031c00 	andeq	r1, r3, r0, lsl #24
     b28:	00066400 	andeq	r6, r6, r0, lsl #8
     b2c:	00033200 	andeq	r3, r3, r0, lsl #4
     b30:	07040200 	streq	r0, [r4, -r0, lsl #4]
     b34:	000003d3 	ldrdeq	r0, [r0], -r3
     b38:	70080102 	andvc	r0, r8, r2, lsl #2
     b3c:	02000000 	andeq	r0, r0, #0
     b40:	00ce0704 	sbceq	r0, lr, r4, lsl #14
     b44:	01020000 	mrseq	r0, (UNDEF: 2)
     b48:	00007908 	andeq	r7, r0, r8, lsl #18
     b4c:	00fc0300 	rscseq	r0, ip, r0, lsl #6
     b50:	25020000 	strcs	r0, [r2, #-0]
     b54:	0000002c 	andeq	r0, r0, ip, lsr #32
     b58:	72060102 	andvc	r0, r6, #-2147483648	; 0x80000000
     b5c:	03000000 	movweq	r0, #0
     b60:	00000281 	andeq	r0, r0, r1, lsl #5
     b64:	002c2802 	eoreq	r2, ip, r2, lsl #16
     b68:	80030000 	andhi	r0, r3, r0
     b6c:	02000002 	andeq	r0, r0, #2
     b70:	0000692a 	andeq	r6, r0, sl, lsr #18
     b74:	002c0400 	eoreq	r0, ip, r0, lsl #8
     b78:	02020000 	andeq	r0, r2, #0
     b7c:	00022405 	andeq	r2, r2, r5, lsl #8
     b80:	07020200 	streq	r0, [r2, -r0, lsl #4]
     b84:	00000190 	muleq	r0, r0, r1
     b88:	3e050402 	cdpcc	4, 0, cr0, cr5, cr2, {0}
     b8c:	03000002 	movweq	r0, #2
     b90:	00000200 	andeq	r0, r0, r0, lsl #4
     b94:	00253202 	eoreq	r3, r5, r2, lsl #4
     b98:	d7030000 	strle	r0, [r3, -r0]
     b9c:	03000000 	movweq	r0, #0
     ba0:	000099b1 			; <UNDEFINED> instruction: 0x000099b1
     ba4:	9f040500 	svcls	0x00040500
     ba8:	06000000 	streq	r0, [r0], -r0
     bac:	015e0701 	cmpeq	lr, r1, lsl #14
     bb0:	03280000 	teqeq	r8, #0
     bb4:	00013ab7 			; <UNDEFINED> instruction: 0x00013ab7
     bb8:	02470800 	subeq	r0, r7, #0, 16
     bbc:	b9030000 	stmdblt	r3, {}	; <UNPREDICTABLE>
     bc0:	00000083 	andeq	r0, r0, r3, lsl #1
     bc4:	08002302 	stmdaeq	r0, {r1, r8, r9, sp}
     bc8:	00000133 	andeq	r0, r0, r3, lsr r1
     bcc:	0083ba03 	addeq	fp, r3, r3, lsl #20
     bd0:	23020000 	movwcs	r0, #8192	; 0x2000
     bd4:	016a0804 	cmneq	sl, r4, lsl #16
     bd8:	bb030000 	bllt	c0be0 <FlashDriver+0xbee1c>
     bdc:	00000083 	andeq	r0, r0, r3, lsl #1
     be0:	08082302 	stmdaeq	r8, {r1, r8, r9, sp}
     be4:	000000ec 	andeq	r0, r0, ip, ror #1
     be8:	0083bc03 	addeq	fp, r3, r3, lsl #24
     bec:	23020000 	movwcs	r0, #8192	; 0x2000
     bf0:	0101080c 	tsteq	r1, ip, lsl #16
     bf4:	bd030000 	stclt	0, cr0, [r3, #-0]
     bf8:	00000083 	andeq	r0, r0, r3, lsl #1
     bfc:	08102302 	ldmdaeq	r0, {r1, r8, r9, sp}
     c00:	000001f1 	strdeq	r0, [r0], -r1
     c04:	0083be03 	addeq	fp, r3, r3, lsl #28
     c08:	23020000 	movwcs	r0, #8192	; 0x2000
     c0c:	02150814 	andseq	r0, r5, #20, 16	; 0x140000
     c10:	bf030000 	svclt	0x00030000
     c14:	00000083 	andeq	r0, r0, r3, lsl #1
     c18:	08182302 	ldmdaeq	r8, {r1, r8, r9, sp}
     c1c:	000001b8 			; <UNDEFINED> instruction: 0x000001b8
     c20:	0083c003 	addeq	ip, r3, r3
     c24:	23020000 	movwcs	r0, #8192	; 0x2000
     c28:	0111081c 	tsteq	r1, ip, lsl r8
     c2c:	c1030000 	mrsgt	r0, (UNDEF: 3)
     c30:	00000041 	andeq	r0, r0, r1, asr #32
     c34:	08202302 	stmdaeq	r0!, {r1, r8, r9, sp}
     c38:	000001e8 	andeq	r0, r0, r8, ror #3
     c3c:	008ec203 	addeq	ip, lr, r3, lsl #4
     c40:	23020000 	movwcs	r0, #8192	; 0x2000
     c44:	d7030024 	strle	r0, [r3, -r4, lsr #32]
     c48:	03000001 	movweq	r0, #1
     c4c:	0000a1c3 	andeq	sl, r0, r3, asr #3
     c50:	01d60300 	bicseq	r0, r6, r0, lsl #6
     c54:	c3030000 	movwgt	r0, #12288	; 0x3000
     c58:	00000150 	andeq	r0, r0, r0, asr r1
     c5c:	00a10405 	adceq	r0, r1, r5, lsl #8
     c60:	7a090000 	bvc	240c68 <FlashDriver+0x23eea4>
     c64:	03000001 	movweq	r0, #1
     c68:	01620330 	cmneq	r2, r0, lsr r3
     c6c:	04050000 	streq	r0, [r5], #-0
     c70:	00000168 	andeq	r0, r0, r8, ror #2
     c74:	0083010a 	addeq	r0, r3, sl, lsl #2
     c78:	01820000 	orreq	r0, r2, r0
     c7c:	450b0000 	strmi	r0, [fp, #-0]
     c80:	0b000001 	bleq	c8c <FlashInit0+0xf0>
     c84:	00000053 	andeq	r0, r0, r3, asr r0
     c88:	0001820b 	andeq	r8, r1, fp, lsl #4
     c8c:	04050000 	streq	r0, [r5], #-0
     c90:	00000053 	andeq	r0, r0, r3, asr r0
     c94:	039d010c 	orrseq	r0, sp, #12, 2
     c98:	3e010000 	cdpcc	0, 0, cr0, cr1, cr0, {0}
     c9c:	00008301 	andeq	r8, r0, r1, lsl #6
     ca0:	00031c00 	andeq	r1, r3, r0, lsl #24
     ca4:	00047a00 	andeq	r7, r4, r0, lsl #20
     ca8:	00018800 	andeq	r8, r1, r0, lsl #16
     cac:	02220100 	eoreq	r0, r2, #0, 2
     cb0:	e10d0000 	mrs	r0, (UNDEF: 13)
     cb4:	01000000 	mrseq	r0, (UNDEF: 0)
     cb8:	0001453e 	andeq	r4, r1, lr, lsr r5
     cbc:	5c910200 	lfmpl	f0, 4, [r1], {0}
     cc0:	0002da0d 	andeq	sp, r2, sp, lsl #20
     cc4:	833f0100 	teqhi	pc, #0, 2
     cc8:	02000000 	andeq	r0, r0, #0
     ccc:	fd0d5891 	stc2	8, cr5, [sp, #-580]	; 0xfffffdbc
     cd0:	01000002 	tsteq	r0, r2
     cd4:	00008340 	andeq	r8, r0, r0, asr #6
     cd8:	54910200 	ldrpl	r0, [r1], #512	; 0x200
     cdc:	00082a0d 	andeq	r2, r8, sp, lsl #20
     ce0:	83410100 	movthi	r0, #4352	; 0x1100
     ce4:	02000000 	andeq	r0, r0, #0
     ce8:	a30d5091 	movwge	r5, #53393	; 0xd091
     cec:	01000001 	tsteq	r0, r1
     cf0:	00015642 	andeq	r5, r1, r2, asr #12
     cf4:	00910200 	addseq	r0, r1, r0, lsl #4
     cf8:	0002070e 	andeq	r0, r2, lr, lsl #14
     cfc:	22440100 	subcs	r0, r4, #0, 2
     d00:	02000002 	andeq	r0, r0, #2
     d04:	530e6491 	movwpl	r6, #58513	; 0xe491
     d08:	01000001 	tsteq	r0, r1
     d0c:	00008345 	andeq	r8, r0, r5, asr #6
     d10:	74910200 	ldrvc	r0, [r1], #512	; 0x200
     d14:	0003f00e 	andeq	pc, r3, lr
     d18:	83460100 	movthi	r0, #24832	; 0x6100
     d1c:	02000000 	andeq	r0, r0, #0
     d20:	950f7091 	strls	r7, [pc, #-145]	; c97 <FlashInit0+0xfb>
     d24:	01000002 	tsteq	r0, r2
     d28:	00046ea8 	andeq	r6, r4, r8, lsr #29
     d2c:	53100000 	tstpl	r0, #0
     d30:	32000000 	andcc	r0, r0, #0
     d34:	11000002 	tstne	r0, r2
     d38:	00000033 	andeq	r0, r0, r3, lsr r0
     d3c:	010c000b 	tsteq	ip, fp
     d40:	00000384 	andeq	r0, r0, r4, lsl #7
     d44:	7b01c901 	blvc	73150 <FlashDriver+0x7138c>
     d48:	7c000002 	stcvc	0, cr0, [r0], {2}
     d4c:	4c000004 	stcmi	0, cr0, [r0], {4}
     d50:	c0000005 	andgt	r0, r0, r5
     d54:	01000001 	tsteq	r0, r1
     d58:	0000027b 	andeq	r0, r0, fp, ror r2
     d5c:	0003580d 	andeq	r5, r3, sp, lsl #16
     d60:	25c90100 	strbcs	r0, [r9, #256]	; 0x100
     d64:	02000000 	andeq	r0, r0, #0
     d68:	63127491 	tstvs	r2, #-1862270976	; 0x91000000
     d6c:	01006b6c 	tsteq	r0, ip, ror #22
     d70:	000025ca 	andeq	r2, r0, sl, asr #11
     d74:	70910200 	addsvc	r0, r1, r0, lsl #4
     d78:	0003700d 	andeq	r7, r3, sp
     d7c:	25cb0100 	strbcs	r0, [fp, #256]	; 0x100
     d80:	02000000 	andeq	r0, r0, #0
     d84:	13006c91 	movwne	r6, #3217	; 0xc91
     d88:	6e690504 	cdpvs	5, 6, cr0, cr9, cr4, {0}
     d8c:	01140074 	tsteq	r4, r4, ror r0
     d90:	000003fb 	strdeq	r0, [r0], -fp
     d94:	7b01f501 	blvc	7e1a0 <FlashDriver+0x7c3dc>
     d98:	4c000002 	stcmi	0, cr0, [r0], {2}
     d9c:	64000005 	strvs	r0, [r0], #-5
     da0:	f8000005 			; <UNDEFINED> instruction: 0xf8000005
     da4:	01000001 	tsteq	r0, r1
     da8:	000002af 	andeq	r0, r0, pc, lsr #5
     dac:	0003700d 	andeq	r7, r3, sp
     db0:	25f50100 	ldrbcs	r0, [r5, #256]!	; 0x100
     db4:	02000000 	andeq	r0, r0, #0
     db8:	15007491 	strne	r7, [r0, #-1169]	; 0xfffffb6f
     dbc:	000a5f01 	andeq	r5, sl, r1, lsl #30
     dc0:	01070100 	mrseq	r0, (UNDEF: 23)
     dc4:	00027b01 	andeq	r7, r2, r1, lsl #22
     dc8:	00056400 	andeq	r6, r5, r0, lsl #8
     dcc:	0005a800 	andeq	sl, r5, r0, lsl #16
     dd0:	00023000 	andeq	r3, r2, r0
     dd4:	02de0100 	sbcseq	r0, lr, #0, 2
     dd8:	e5160000 	ldr	r0, [r6, #-0]
     ddc:	01000003 	tsteq	r0, r3
     de0:	00250107 	eoreq	r0, r5, r7, lsl #2
     de4:	91020000 	mrsls	r0, (UNDEF: 2)
     de8:	01170074 	tsteq	r7, r4, ror r0
     dec:	0000041a 	andeq	r0, r0, sl, lsl r4
     df0:	01010e01 	tsteq	r1, r1, lsl #28
     df4:	0000027b 	andeq	r0, r0, fp, ror r2
     df8:	000005a8 	andeq	r0, r0, r8, lsr #11
     dfc:	00000610 	andeq	r0, r0, r0, lsl r6
     e00:	00000268 	andeq	r0, r0, r8, ror #4
     e04:	b0011501 	andlt	r1, r1, r1, lsl #10
     e08:	01000003 	tsteq	r0, r3
     e0c:	7b010125 	blvc	412a8 <FlashDriver+0x3f4e4>
     e10:	10000002 	andne	r0, r0, r2
     e14:	64000006 	strvs	r0, [r0], #-6
     e18:	a0000006 	andge	r0, r0, r6
     e1c:	01000002 	tsteq	r0, r2
     e20:	00000346 	andeq	r0, r0, r6, asr #6
     e24:	00042916 	andeq	r2, r4, r6, lsl r9
     e28:	01250100 	teqeq	r5, r0, lsl #2
     e2c:	00000025 	andeq	r0, r0, r5, lsr #32
     e30:	16749102 	ldrbtne	r9, [r4], -r2, lsl #2
     e34:	000002fd 	strdeq	r0, [r0], -sp
     e38:	25012601 	strcs	r2, [r1, #-1537]	; 0xfffff9ff
     e3c:	02000000 	andeq	r0, r0, #0
     e40:	62187091 	andsvs	r7, r8, #145	; 0x91
     e44:	01006675 	tsteq	r0, r5, ror r6
     e48:	03460127 	movteq	r0, #24871	; 0x6127
     e4c:	91020000 	mrsls	r0, (UNDEF: 2)
     e50:	0405006c 	streq	r0, [r5], #-108	; 0xffffff94
     e54:	0000002c 	andeq	r0, r0, ip, lsr #32
     e58:	00036119 	andeq	r6, r3, r9, lsl r1
     e5c:	3a280100 	bcc	a01264 <FlashDriver+0x9ff4a0>
     e60:	01000001 	tsteq	r0, r1
     e64:	1d980305 	ldcne	3, cr0, [r8, #20]
     e68:	7b190000 	blvc	640e70 <FlashDriver+0x63f0ac>
     e6c:	01000003 	tsteq	r0, r3
     e70:	00002529 	andeq	r2, r0, r9, lsr #10
     e74:	03050100 	movweq	r0, #20736	; 0x5100
     e78:	00001dc0 	andeq	r1, r0, r0, asr #27
     e7c:	0003c119 	andeq	ip, r3, r9, lsl r1
     e80:	822a0100 	eorhi	r0, sl, #0, 2
     e84:	01000003 	tsteq	r0, r3
     e88:	1d700305 	ldclne	3, cr0, [r0, #-20]!	; 0xffffffec
     e8c:	251a0000 	ldrcs	r0, [sl, #-0]
     e90:	19000000 	stmdbne	r0, {}	; <UNPREDICTABLE>
     e94:	0000038e 	andeq	r0, r0, lr, lsl #7
     e98:	03992b01 	orrseq	r2, r9, #1024	; 0x400
     e9c:	05010000 	streq	r0, [r1, #-0]
     ea0:	001d7803 	andseq	r7, sp, r3, lsl #16
     ea4:	039e1a00 	orrseq	r1, lr, #0, 20
     ea8:	08020000 	stmdaeq	r2, {}	; <UNPREDICTABLE>
     eac:	0003ce07 	andeq	ip, r3, r7, lsl #28
     eb0:	016e0000 	cmneq	lr, r0
     eb4:	00020000 	andeq	r0, r2, r0
     eb8:	00000622 	andeq	r0, r0, r2, lsr #12
     ebc:	00170104 	andseq	r0, r7, r4, lsl #2
     ec0:	eb010000 	bl	40ec8 <FlashDriver+0x3f104>
     ec4:	89000004 	stmdbhi	r0, {r2}
     ec8:	35000000 	strcc	r0, [r0, #-0]
     ecc:	02000004 	andeq	r0, r0, #4
     ed0:	00000498 	muleq	r0, r8, r4
     ed4:	46280108 	strtmi	r0, [r8], -r8, lsl #2
     ed8:	03000000 	movweq	r0, #0
     edc:	000002fd 	strdeq	r0, [r0], -sp
     ee0:	00462901 	subeq	r2, r6, r1, lsl #18
     ee4:	23020000 	movwcs	r0, #8192	; 0x2000
     ee8:	04670300 	strbteq	r0, [r7], #-768	; 0xfffffd00
     eec:	2a010000 	bcs	40ef4 <FlashDriver+0x3f130>
     ef0:	00000046 	andeq	r0, r0, r6, asr #32
     ef4:	00042302 	andeq	r2, r4, r2, lsl #6
     ef8:	d3070404 	movwle	r0, #29700	; 0x7404
     efc:	05000003 	streq	r0, [r0, #-3]
     f00:	00000481 	andeq	r0, r0, r1, lsl #9
     f04:	2e011014 	mcrcs	0, 0, r1, cr1, cr4, {0}
     f08:	000000af 	andeq	r0, r0, pc, lsr #1
     f0c:	0000d203 	andeq	sp, r0, r3, lsl #4
     f10:	462f0100 	strtmi	r0, [pc], -r0, lsl #2
     f14:	02000000 	andeq	r0, r0, #0
     f18:	58030023 	stmdapl	r3, {r0, r1, r5}
     f1c:	01000003 	tsteq	r0, r3
     f20:	00004630 	andeq	r4, r0, r0, lsr r6
     f24:	04230200 	strteq	r0, [r3], #-512	; 0xfffffe00
     f28:	00043203 	andeq	r3, r4, r3, lsl #4
     f2c:	46310100 	ldrtmi	r0, [r1], -r0, lsl #2
     f30:	02000000 	andeq	r0, r0, #0
     f34:	6c030823 	stcvs	8, cr0, [r3], {35}	; 0x23
     f38:	01000004 	tsteq	r0, r4
     f3c:	00004632 	andeq	r4, r0, r2, lsr r6
     f40:	0c230200 	sfmeq	f0, 4, [r3], #-0
     f44:	0004e003 	andeq	lr, r4, r3
     f48:	af330100 	svcge	0x00330100
     f4c:	02000000 	andeq	r0, r0, #0
     f50:	a4031023 	strge	r1, [r3], #-35	; 0xffffffdd
     f54:	01000004 	tsteq	r0, r4
     f58:	0000b634 	andeq	fp, r0, r4, lsr r6
     f5c:	14230200 	strtne	r0, [r3], #-512	; 0xfffffe00
     f60:	08010400 	stmdaeq	r1, {sl}
     f64:	00000070 	andeq	r0, r0, r0, ror r0
     f68:	00001d06 	andeq	r1, r0, r6, lsl #26
     f6c:	0000c700 	andeq	ip, r0, r0, lsl #14
     f70:	00c70700 	sbceq	r0, r7, r0, lsl #14
     f74:	01ff0000 	mvnseq	r0, r0
     f78:	07040400 	streq	r0, [r4, -r0, lsl #8]
     f7c:	000000ce 	andeq	r0, r0, lr, asr #1
     f80:	0004ac05 	andeq	sl, r4, r5, lsl #24
     f84:	0110a800 	tsteq	r0, r0, lsl #16
     f88:	00014338 	andeq	r4, r1, r8, lsr r3
     f8c:	04d80300 	ldrbeq	r0, [r8], #768	; 0x300
     f90:	39010000 	stmdbcc	r1, {}	; <UNPREDICTABLE>
     f94:	00000046 	andeq	r0, r0, r6, asr #32
     f98:	03002302 	movweq	r2, #770	; 0x302
     f9c:	00000475 	andeq	r0, r0, r5, ror r4
     fa0:	01433a01 	cmpeq	r3, r1, lsl #20
     fa4:	23020000 	movwcs	r0, #8192	; 0x2000
     fa8:	048d0304 	streq	r0, [sp], #772	; 0x304
     fac:	3b010000 	blcc	40fb4 <FlashDriver+0x3f1f0>
     fb0:	0000004d 	andeq	r0, r0, sp, asr #32
     fb4:	01842303 	orreq	r2, r4, r3, lsl #6
     fb8:	00043c03 	andeq	r3, r4, r3, lsl #24
     fbc:	463c0100 	ldrtmi	r0, [ip], -r0, lsl #2
     fc0:	03000000 	movweq	r0, #0
     fc4:	03219823 	teqeq	r1, #2293760	; 0x230000
     fc8:	00000448 	andeq	r0, r0, r8, asr #8
     fcc:	00463d01 	subeq	r3, r6, r1, lsl #26
     fd0:	23030000 	movwcs	r0, #12288	; 0x3000
     fd4:	5403219c 	strpl	r2, [r3], #-412	; 0xfffffe64
     fd8:	01000004 	tsteq	r0, r4
     fdc:	0000463e 	andeq	r4, r0, lr, lsr r6
     fe0:	a0230300 	eorge	r0, r3, r0, lsl #6
     fe4:	04c70321 	strbeq	r0, [r7], #801	; 0x321
     fe8:	3f010000 	svccc	0x00010000
     fec:	00000046 	andeq	r0, r0, r6, asr #32
     ff0:	21a42303 			; <UNDEFINED> instruction: 0x21a42303
     ff4:	01530600 	cmpeq	r3, r0, lsl #12
     ff8:	01530000 	cmpeq	r3, r0
     ffc:	c7080000 	strgt	r0, [r8, -r0]
    1000:	7f000000 	svcvc	0x00000000
    1004:	08010400 	stmdaeq	r1, {sl}
    1008:	00000079 	andeq	r0, r0, r9, ror r0
    100c:	0004bb09 	andeq	fp, r4, r9, lsl #22
    1010:	6c1a0200 	lfmvs	f0, 4, [sl], {-0}
    1014:	01000001 	tsteq	r0, r1
    1018:	1dc40305 	stclne	3, cr0, [r4, #20]
    101c:	ce0a0000 	cdpgt	0, 0, cr0, cr10, cr0, {0}
    1020:	00000000 	andeq	r0, r0, r0
    1024:	000001d6 	ldrdeq	r0, [r0], -r6
    1028:	069d0002 	ldreq	r0, [sp], r2
    102c:	01040000 	mrseq	r0, (UNDEF: 4)
    1030:	00000017 	andeq	r0, r0, r7, lsl r0
    1034:	00051e01 	andeq	r1, r5, r1, lsl #28
    1038:	00008900 	andeq	r8, r0, r0, lsl #18
    103c:	00066400 	andeq	r6, r6, r0, lsl #8
    1040:	00072e00 	andeq	r2, r7, r0, lsl #28
    1044:	00048c00 	andeq	r8, r4, r0, lsl #24
    1048:	00fc0200 	rscseq	r0, ip, r0, lsl #4
    104c:	25020000 	strcs	r0, [r2, #-0]
    1050:	00000030 	andeq	r0, r0, r0, lsr r0
    1054:	70080103 	andvc	r0, r8, r3, lsl #2
    1058:	03000000 	movweq	r0, #0
    105c:	00720601 	rsbseq	r0, r2, r1, lsl #12
    1060:	81020000 	mrshi	r0, (UNDEF: 2)
    1064:	02000002 	andeq	r0, r0, #2
    1068:	00003028 	andeq	r3, r0, r8, lsr #32
    106c:	02800200 	addeq	r0, r0, #0, 4
    1070:	2a020000 	bcs	81078 <FlashDriver+0x7f2b4>
    1074:	00000054 	andeq	r0, r0, r4, asr r0
    1078:	00003004 	andeq	r3, r0, r4
    107c:	05020300 	streq	r0, [r2, #-768]	; 0xfffffd00
    1080:	00000224 	andeq	r0, r0, r4, lsr #4
    1084:	90070203 	andls	r0, r7, r3, lsl #4
    1088:	03000001 	movweq	r0, #1
    108c:	023e0504 	eorseq	r0, lr, #4, 10	; 0x1000000
    1090:	00020000 	andeq	r0, r2, r0
    1094:	02000002 	andeq	r0, r0, #2
    1098:	00007932 	andeq	r7, r0, r2, lsr r9
    109c:	07040300 	streq	r0, [r4, -r0, lsl #6]
    10a0:	000003d3 	ldrdeq	r0, [r0], -r3
    10a4:	0000d702 	andeq	sp, r0, r2, lsl #14
    10a8:	8bb10300 	blhi	fec41cb0 <FlashDriver+0xfec3feec>
    10ac:	05000000 	streq	r0, [r0, #-0]
    10b0:	00009104 	andeq	r9, r0, r4, lsl #2
    10b4:	07010600 	streq	r0, [r1, -r0, lsl #12]
    10b8:	0000015e 	andeq	r0, r0, lr, asr r1
    10bc:	2cb70328 	ldccs	3, cr0, [r7], #160	; 0xa0
    10c0:	08000001 	stmdaeq	r0, {r0}
    10c4:	00000247 	andeq	r0, r0, r7, asr #4
    10c8:	006eb903 	rsbeq	fp, lr, r3, lsl #18
    10cc:	23020000 	movwcs	r0, #8192	; 0x2000
    10d0:	01330800 	teqeq	r3, r0, lsl #16
    10d4:	ba030000 	blt	c10dc <FlashDriver+0xbf318>
    10d8:	0000006e 	andeq	r0, r0, lr, rrx
    10dc:	08042302 	stmdaeq	r4, {r1, r8, r9, sp}
    10e0:	0000016a 	andeq	r0, r0, sl, ror #2
    10e4:	006ebb03 	rsbeq	fp, lr, r3, lsl #22
    10e8:	23020000 	movwcs	r0, #8192	; 0x2000
    10ec:	00ec0808 	rsceq	r0, ip, r8, lsl #16
    10f0:	bc030000 	stclt	0, cr0, [r3], {-0}
    10f4:	0000006e 	andeq	r0, r0, lr, rrx
    10f8:	080c2302 	stmdaeq	ip, {r1, r8, r9, sp}
    10fc:	00000101 	andeq	r0, r0, r1, lsl #2
    1100:	006ebd03 	rsbeq	fp, lr, r3, lsl #26
    1104:	23020000 	movwcs	r0, #8192	; 0x2000
    1108:	01f10810 	mvnseq	r0, r0, lsl r8
    110c:	be030000 	cdplt	0, 0, cr0, cr3, cr0, {0}
    1110:	0000006e 	andeq	r0, r0, lr, rrx
    1114:	08142302 	ldmdaeq	r4, {r1, r8, r9, sp}
    1118:	00000215 	andeq	r0, r0, r5, lsl r2
    111c:	006ebf03 	rsbeq	fp, lr, r3, lsl #30
    1120:	23020000 	movwcs	r0, #8192	; 0x2000
    1124:	01b80818 			; <UNDEFINED> instruction: 0x01b80818
    1128:	c0030000 	andgt	r0, r3, r0
    112c:	0000006e 	andeq	r0, r0, lr, rrx
    1130:	081c2302 	ldmdaeq	ip, {r1, r8, r9, sp}
    1134:	00000111 	andeq	r0, r0, r1, lsl r1
    1138:	0025c103 	eoreq	ip, r5, r3, lsl #2
    113c:	23020000 	movwcs	r0, #8192	; 0x2000
    1140:	01e80820 	mvneq	r0, r0, lsr #16
    1144:	c2030000 	andgt	r0, r3, #0
    1148:	00000080 	andeq	r0, r0, r0, lsl #1
    114c:	00242302 	eoreq	r2, r4, r2, lsl #6
    1150:	0001d602 	andeq	sp, r1, r2, lsl #12
    1154:	37c30300 	strbcc	r0, [r3, r0, lsl #6]
    1158:	05000001 	streq	r0, [r0, #-1]
    115c:	00009304 	andeq	r9, r0, r4, lsl #6
    1160:	6e040500 	cfsh32vs	mvfx0, mvfx4, #0
    1164:	09000000 	stmdbeq	r0, {}	; <UNPREDICTABLE>
    1168:	00051001 	andeq	r1, r5, r1
    116c:	01290100 	teqeq	r9, r0, lsl #2
    1170:	0000006e 	andeq	r0, r0, lr, rrx
    1174:	00000664 	andeq	r0, r0, r4, ror #12
    1178:	0000072e 	andeq	r0, r0, lr, lsr #14
    117c:	000002d8 	ldrdeq	r0, [r0], -r8
    1180:	00e10a01 	rsceq	r0, r1, r1, lsl #20
    1184:	29010000 	stmdbcs	r1, {}	; <UNPREDICTABLE>
    1188:	0000012c 	andeq	r0, r0, ip, lsr #2
    118c:	0a649102 	beq	192559c <FlashDriver+0x19237d8>
    1190:	000002da 	ldrdeq	r0, [r0], -sl
    1194:	006e2a01 	rsbeq	r2, lr, r1, lsl #20
    1198:	91020000 	mrsls	r0, (UNDEF: 2)
    119c:	02fd0a60 	rscseq	r0, sp, #96, 20	; 0x60000
    11a0:	2b010000 	blcs	411a8 <FlashDriver+0x3f3e4>
    11a4:	0000006e 	andeq	r0, r0, lr, rrx
    11a8:	0a5c9102 	beq	17255b8 <FlashDriver+0x17237f4>
    11ac:	0000050b 	andeq	r0, r0, fp, lsl #10
    11b0:	013d2c01 	teqeq	sp, r1, lsl #24
    11b4:	91020000 	mrsls	r0, (UNDEF: 2)
    11b8:	05030b58 	streq	r0, [r3, #-2904]	; 0xfffff4a8
    11bc:	2e010000 	cdpcs	0, 0, cr0, cr1, cr0, {0}
    11c0:	0000006e 	andeq	r0, r0, lr, rrx
    11c4:	0b749102 	bleq	1d255d4 <FlashDriver+0x1d23810>
    11c8:	000004fe 	strdeq	r0, [r0], -lr
    11cc:	006e2f01 	rsbeq	r2, lr, r1, lsl #30
    11d0:	91020000 	mrsls	r0, (UNDEF: 2)
    11d4:	01530b68 	cmpeq	r3, r8, ror #22
    11d8:	30010000 	andcc	r0, r1, r0
    11dc:	0000006e 	andeq	r0, r0, lr, rrx
    11e0:	0b709102 	bleq	1c255f0 <FlashDriver+0x1c2382c>
    11e4:	000003f0 	strdeq	r0, [r0], -r0	; <UNPREDICTABLE>
    11e8:	006e3101 	rsbeq	r3, lr, r1, lsl #2
    11ec:	91020000 	mrsls	r0, (UNDEF: 2)
    11f0:	02950c6c 	addseq	r0, r5, #108, 24	; 0x6c00
    11f4:	76010000 	strvc	r0, [r1], -r0
    11f8:	00000722 	andeq	r0, r0, r2, lsr #14
    11fc:	01af0000 			; <UNDEFINED> instruction: 0x01af0000
    1200:	00020000 	andeq	r0, r2, r0
    1204:	00000743 	andeq	r0, r0, r3, asr #14
    1208:	00170104 	andseq	r0, r7, r4, lsl #2
    120c:	31010000 	mrscc	r0, (UNDEF: 1)
    1210:	89000005 	stmdbhi	r0, {r0, r2}
    1214:	30000000 	andcc	r0, r0, r0
    1218:	24000007 	strcs	r0, [r0], #-7
    121c:	22000009 	andcs	r0, r0, #9
    1220:	02000005 	andeq	r0, r0, #5
    1224:	000000fc 	strdeq	r0, [r0], -ip
    1228:	00302502 	eorseq	r2, r0, r2, lsl #10
    122c:	01030000 	mrseq	r0, (UNDEF: 3)
    1230:	00007008 	andeq	r7, r0, r8
    1234:	06010300 	streq	r0, [r1], -r0, lsl #6
    1238:	00000072 	andeq	r0, r0, r2, ror r0
    123c:	00028102 	andeq	r8, r2, r2, lsl #2
    1240:	30280200 	eorcc	r0, r8, r0, lsl #4
    1244:	02000000 	andeq	r0, r0, #0
    1248:	00000280 	andeq	r0, r0, r0, lsl #5
    124c:	00542a02 	subseq	r2, r4, r2, lsl #20
    1250:	30040000 	andcc	r0, r4, r0
    1254:	03000000 	movweq	r0, #0
    1258:	02240502 	eoreq	r0, r4, #8388608	; 0x800000
    125c:	02030000 	andeq	r0, r3, #0
    1260:	00019007 	andeq	r9, r1, r7
    1264:	05040300 	streq	r0, [r4, #-768]	; 0xfffffd00
    1268:	0000023e 	andeq	r0, r0, lr, lsr r2
    126c:	00020002 	andeq	r0, r2, r2
    1270:	79320200 	ldmdbvc	r2!, {r9}
    1274:	03000000 	movweq	r0, #0
    1278:	03d30704 	bicseq	r0, r3, #4, 14	; 0x100000
    127c:	d7020000 	strle	r0, [r2, -r0]
    1280:	03000000 	movweq	r0, #0
    1284:	00008bb1 			; <UNDEFINED> instruction: 0x00008bb1
    1288:	91040500 	tstls	r4, r0, lsl #10
    128c:	06000000 	streq	r0, [r0], -r0
    1290:	015e0701 	cmpeq	lr, r1, lsl #14
    1294:	03280000 	teqeq	r8, #0
    1298:	00012cb7 			; <UNDEFINED> instruction: 0x00012cb7
    129c:	02470800 	subeq	r0, r7, #0, 16
    12a0:	b9030000 	stmdblt	r3, {}	; <UNPREDICTABLE>
    12a4:	0000006e 	andeq	r0, r0, lr, rrx
    12a8:	08002302 	stmdaeq	r0, {r1, r8, r9, sp}
    12ac:	00000133 	andeq	r0, r0, r3, lsr r1
    12b0:	006eba03 	rsbeq	fp, lr, r3, lsl #20
    12b4:	23020000 	movwcs	r0, #8192	; 0x2000
    12b8:	016a0804 	cmneq	sl, r4, lsl #16
    12bc:	bb030000 	bllt	c12c4 <FlashDriver+0xbf500>
    12c0:	0000006e 	andeq	r0, r0, lr, rrx
    12c4:	08082302 	stmdaeq	r8, {r1, r8, r9, sp}
    12c8:	000000ec 	andeq	r0, r0, ip, ror #1
    12cc:	006ebc03 	rsbeq	fp, lr, r3, lsl #24
    12d0:	23020000 	movwcs	r0, #8192	; 0x2000
    12d4:	0101080c 	tsteq	r1, ip, lsl #16
    12d8:	bd030000 	stclt	0, cr0, [r3, #-0]
    12dc:	0000006e 	andeq	r0, r0, lr, rrx
    12e0:	08102302 	ldmdaeq	r0, {r1, r8, r9, sp}
    12e4:	000001f1 	strdeq	r0, [r0], -r1
    12e8:	006ebe03 	rsbeq	fp, lr, r3, lsl #28
    12ec:	23020000 	movwcs	r0, #8192	; 0x2000
    12f0:	02150814 	andseq	r0, r5, #20, 16	; 0x140000
    12f4:	bf030000 	svclt	0x00030000
    12f8:	0000006e 	andeq	r0, r0, lr, rrx
    12fc:	08182302 	ldmdaeq	r8, {r1, r8, r9, sp}
    1300:	000001b8 			; <UNDEFINED> instruction: 0x000001b8
    1304:	006ec003 	rsbeq	ip, lr, r3
    1308:	23020000 	movwcs	r0, #8192	; 0x2000
    130c:	0111081c 	tsteq	r1, ip, lsl r8
    1310:	c1030000 	mrsgt	r0, (UNDEF: 3)
    1314:	00000025 	andeq	r0, r0, r5, lsr #32
    1318:	08202302 	stmdaeq	r0!, {r1, r8, r9, sp}
    131c:	000001e8 	andeq	r0, r0, r8, ror #3
    1320:	0080c203 	addeq	ip, r0, r3, lsl #4
    1324:	23020000 	movwcs	r0, #8192	; 0x2000
    1328:	d6020024 	strle	r0, [r2], -r4, lsr #32
    132c:	03000001 	movweq	r0, #1
    1330:	000137c3 	andeq	r3, r1, r3, asr #15
    1334:	93040500 	movwls	r0, #17664	; 0x4500
    1338:	05000000 	streq	r0, [r0, #-0]
    133c:	00003e04 	andeq	r3, r0, r4, lsl #28
    1340:	a3010900 	movwge	r0, #6400	; 0x1900
    1344:	01000001 	tsteq	r0, r1
    1348:	006e0125 	rsbeq	r0, lr, r5, lsr #2
    134c:	07300000 	ldreq	r0, [r0, -r0]!
    1350:	09240000 	stmdbeq	r4!, {}	; <UNPREDICTABLE>
    1354:	03100000 	tsteq	r0, #0
    1358:	0a010000 	beq	41360 <FlashDriver+0x3f59c>
    135c:	000000e1 	andeq	r0, r0, r1, ror #1
    1360:	012c2501 	teqeq	ip, r1, lsl #10
    1364:	91020000 	mrsls	r0, (UNDEF: 2)
    1368:	054b0a64 	strbeq	r0, [fp, #-2660]	; 0xfffff59c
    136c:	26010000 	strcs	r0, [r1], -r0
    1370:	0000003e 	andeq	r0, r0, lr, lsr r0
    1374:	0a639102 	beq	18e5784 <FlashDriver+0x18e39c0>
    1378:	00000207 	andeq	r0, r0, r7, lsl #4
    137c:	013d2701 	teqeq	sp, r1, lsl #14
    1380:	91020000 	mrsls	r0, (UNDEF: 2)
    1384:	05030b5c 	streq	r0, [r3, #-2908]	; 0xfffff4a4
    1388:	29010000 	stmdbcs	r1, {}	; <UNPREDICTABLE>
    138c:	0000003e 	andeq	r0, r0, lr, lsr r0
    1390:	0b779102 	bleq	1de57a0 <FlashDriver+0x1de39dc>
    1394:	000002b8 			; <UNDEFINED> instruction: 0x000002b8
    1398:	003e2a01 	eorseq	r2, lr, r1, lsl #20
    139c:	91020000 	mrsls	r0, (UNDEF: 2)
    13a0:	01530b6f 	cmpeq	r3, pc, ror #22
    13a4:	2b010000 	blcs	413ac <FlashDriver+0x3f5e8>
    13a8:	0000006e 	andeq	r0, r0, lr, rrx
    13ac:	00709102 	rsbseq	r9, r0, r2, lsl #2
    13b0:	0001ca00 	andeq	ip, r1, r0, lsl #20
    13b4:	dc000200 	sfmle	f0, 4, [r0], {-0}
    13b8:	04000007 	streq	r0, [r0], #-7
    13bc:	00001701 	andeq	r1, r0, r1, lsl #14
    13c0:	05710100 	ldrbeq	r0, [r1, #-256]!	; 0xffffff00
    13c4:	00890000 	addeq	r0, r9, r0
    13c8:	09240000 	stmdbeq	r4!, {}	; <UNPREDICTABLE>
    13cc:	09560000 	ldmdbeq	r6, {}^	; <UNPREDICTABLE>
    13d0:	05d50000 	ldrbeq	r0, [r5]
    13d4:	fc020000 	stc2	0, cr0, [r2], {-0}
    13d8:	02000000 	andeq	r0, r0, #0
    13dc:	00003025 	andeq	r3, r0, r5, lsr #32
    13e0:	08010300 	stmdaeq	r1, {r8, r9}
    13e4:	00000070 	andeq	r0, r0, r0, ror r0
    13e8:	72060103 	andvc	r0, r6, #-1073741824	; 0xc0000000
    13ec:	02000000 	andeq	r0, r0, #0
    13f0:	00000281 	andeq	r0, r0, r1, lsl #5
    13f4:	00302802 	eorseq	r2, r0, r2, lsl #16
    13f8:	02030000 	andeq	r0, r3, #0
    13fc:	00022405 	andeq	r2, r2, r5, lsl #8
    1400:	07020300 	streq	r0, [r2, -r0, lsl #6]
    1404:	00000190 	muleq	r0, r0, r1
    1408:	3e050403 	cdpcc	4, 0, cr0, cr5, cr3, {0}
    140c:	02000002 	andeq	r0, r0, #2
    1410:	00000200 	andeq	r0, r0, r0, lsl #4
    1414:	00693202 	rsbeq	r3, r9, r2, lsl #4
    1418:	04030000 	streq	r0, [r3], #-0
    141c:	0003d307 	andeq	sp, r3, r7, lsl #6
    1420:	00d70200 	sbcseq	r0, r7, r0, lsl #4
    1424:	b1030000 	mrslt	r0, (UNDEF: 3)
    1428:	0000007b 	andeq	r0, r0, fp, ror r0
    142c:	00810404 	addeq	r0, r1, r4, lsl #8
    1430:	01050000 	mrseq	r0, (UNDEF: 5)
    1434:	00015e06 	andeq	r5, r1, r6, lsl #28
    1438:	b7032800 	strlt	r2, [r3, -r0, lsl #16]
    143c:	0000011c 	andeq	r0, r0, ip, lsl r1
    1440:	00024707 	andeq	r4, r2, r7, lsl #14
    1444:	5eb90300 	cdppl	3, 11, cr0, cr9, cr0, {0}
    1448:	02000000 	andeq	r0, r0, #0
    144c:	33070023 	movwcc	r0, #28707	; 0x7023
    1450:	03000001 	movweq	r0, #1
    1454:	00005eba 			; <UNDEFINED> instruction: 0x00005eba
    1458:	04230200 	strteq	r0, [r3], #-512	; 0xfffffe00
    145c:	00016a07 	andeq	r6, r1, r7, lsl #20
    1460:	5ebb0300 	cdppl	3, 11, cr0, cr11, cr0, {0}
    1464:	02000000 	andeq	r0, r0, #0
    1468:	ec070823 	stc	8, cr0, [r7], {35}	; 0x23
    146c:	03000000 	movweq	r0, #0
    1470:	00005ebc 			; <UNDEFINED> instruction: 0x00005ebc
    1474:	0c230200 	sfmeq	f0, 4, [r3], #-0
    1478:	00010107 	andeq	r0, r1, r7, lsl #2
    147c:	5ebd0300 	cdppl	3, 11, cr0, cr13, cr0, {0}
    1480:	02000000 	andeq	r0, r0, #0
    1484:	f1071023 			; <UNDEFINED> instruction: 0xf1071023
    1488:	03000001 	movweq	r0, #1
    148c:	00005ebe 			; <UNDEFINED> instruction: 0x00005ebe
    1490:	14230200 	strtne	r0, [r3], #-512	; 0xfffffe00
    1494:	00021507 	andeq	r1, r2, r7, lsl #10
    1498:	5ebf0300 	cdppl	3, 11, cr0, cr15, cr0, {0}
    149c:	02000000 	andeq	r0, r0, #0
    14a0:	b8071823 	stmdalt	r7, {r0, r1, r5, fp, ip}
    14a4:	03000001 	movweq	r0, #1
    14a8:	00005ec0 	andeq	r5, r0, r0, asr #29
    14ac:	1c230200 	sfmne	f0, 4, [r3], #-0
    14b0:	00011107 	andeq	r1, r1, r7, lsl #2
    14b4:	25c10300 	strbcs	r0, [r1, #768]	; 0x300
    14b8:	02000000 	andeq	r0, r0, #0
    14bc:	e8072023 	stmda	r7, {r0, r1, r5, sp}
    14c0:	03000001 	movweq	r0, #1
    14c4:	000070c2 	andeq	r7, r0, r2, asr #1
    14c8:	24230200 	strtcs	r0, [r3], #-512	; 0xfffffe00
    14cc:	01d60200 	bicseq	r0, r6, r0, lsl #4
    14d0:	c3030000 	movwgt	r0, #12288	; 0x3000
    14d4:	00000127 	andeq	r0, r0, r7, lsr #2
    14d8:	00830404 	addeq	r0, r3, r4, lsl #8
    14dc:	7a080000 	bvc	2014e4 <FlashDriver+0x1ff720>
    14e0:	03000001 	movweq	r0, #1
    14e4:	01390330 	teqeq	r9, r0, lsr r3
    14e8:	04040000 	streq	r0, [r4], #-0
    14ec:	0000013f 	andeq	r0, r0, pc, lsr r1
    14f0:	005e0109 	subseq	r0, lr, r9, lsl #2
    14f4:	01590000 	cmpeq	r9, r0
    14f8:	1c0a0000 	stcne	0, cr0, [sl], {-0}
    14fc:	0a000001 	beq	1508 <FlashSecurityBypass+0x7c>
    1500:	0000003e 	andeq	r0, r0, lr, lsr r0
    1504:	0001590a 	andeq	r5, r1, sl, lsl #18
    1508:	04040000 	streq	r0, [r4], #-0
    150c:	0000003e 	andeq	r0, r0, lr, lsr r0
    1510:	055e010b 	ldrbeq	r0, [lr, #-267]	; 0xfffffef5
    1514:	2a010000 	bcs	4151c <FlashDriver+0x3f758>
    1518:	00005e01 	andeq	r5, r0, r1, lsl #28
    151c:	00092400 	andeq	r2, r9, r0, lsl #8
    1520:	00095600 	andeq	r5, r9, r0, lsl #12
    1524:	00034800 	andeq	r4, r3, r0, lsl #16
    1528:	01b60100 			; <UNDEFINED> instruction: 0x01b60100
    152c:	e10c0000 	mrs	r0, (UNDEF: 12)
    1530:	01000000 	mrseq	r0, (UNDEF: 0)
    1534:	00011c2a 	andeq	r1, r1, sl, lsr #24
    1538:	6c910200 	lfmvs	f0, 4, [r1], {0}
    153c:	0001a30c 	andeq	sl, r1, ip, lsl #6
    1540:	2d2b0100 	stfcss	f0, [fp, #-0]
    1544:	02000001 	andeq	r0, r0, #1
    1548:	510d6891 			; <UNDEFINED> instruction: 0x510d6891
    154c:	01000005 	tsteq	r0, r5
    1550:	0001b62d 	andeq	fp, r1, sp, lsr #12
    1554:	70910200 	addsvc	r0, r1, r0, lsl #4
    1558:	0001530d 	andeq	r5, r1, sp, lsl #6
    155c:	5e2e0100 	sufple	f0, f6, f0
    1560:	02000000 	andeq	r0, r0, #0
    1564:	0e007491 	mcreq	4, 0, r7, cr0, cr1, {4}
    1568:	0000003e 	andeq	r0, r0, lr, lsr r0
    156c:	000001c6 	andeq	r0, r0, r6, asr #3
    1570:	0001c60f 	andeq	ip, r1, pc, lsl #12
    1574:	03000000 	movweq	r0, #0
    1578:	00ce0704 	sbceq	r0, lr, r4, lsl #14
    157c:	e3000000 	movw	r0, #0
    1580:	02000001 	andeq	r0, r0, #1
    1584:	0008a100 	andeq	sl, r8, r0, lsl #2
    1588:	17010400 	strne	r0, [r1, -r0, lsl #8]
    158c:	01000000 	mrseq	r0, (UNDEF: 0)
    1590:	00000589 	andeq	r0, r0, r9, lsl #11
    1594:	00000089 	andeq	r0, r0, r9, lsl #1
    1598:	00000958 	andeq	r0, r0, r8, asr r9
    159c:	00000a0e 	andeq	r0, r0, lr, lsl #20
    15a0:	00000644 	andeq	r0, r0, r4, asr #12
    15a4:	0000fc02 	andeq	pc, r0, r2, lsl #24
    15a8:	30250200 	eorcc	r0, r5, r0, lsl #4
    15ac:	03000000 	movweq	r0, #0
    15b0:	00700801 	rsbseq	r0, r0, r1, lsl #16
    15b4:	01030000 	mrseq	r0, (UNDEF: 3)
    15b8:	00007206 	andeq	r7, r0, r6, lsl #4
    15bc:	02810200 	addeq	r0, r1, #0, 4
    15c0:	28020000 	stmdacs	r2, {}	; <UNPREDICTABLE>
    15c4:	00000030 	andeq	r0, r0, r0, lsr r0
    15c8:	24050203 	strcs	r0, [r5], #-515	; 0xfffffdfd
    15cc:	03000002 	movweq	r0, #2
    15d0:	01900702 	orrseq	r0, r0, r2, lsl #14
    15d4:	04030000 	streq	r0, [r3], #-0
    15d8:	00023e05 	andeq	r3, r2, r5, lsl #28
    15dc:	02000200 	andeq	r0, r0, #0, 4
    15e0:	32020000 	andcc	r0, r2, #0
    15e4:	00000069 	andeq	r0, r0, r9, rrx
    15e8:	d3070403 	movwle	r0, #29699	; 0x7403
    15ec:	02000003 	andeq	r0, r0, #3
    15f0:	000000d7 	ldrdeq	r0, [r0], -r7
    15f4:	007bb103 	rsbseq	fp, fp, r3, lsl #2
    15f8:	04040000 	streq	r0, [r4], #-0
    15fc:	00000081 	andeq	r0, r0, r1, lsl #1
    1600:	5e060105 	adfpls	f0, f6, f5
    1604:	28000001 	stmdacs	r0, {r0}
    1608:	011cb703 	tsteq	ip, r3, lsl #14
    160c:	47070000 	strmi	r0, [r7, -r0]
    1610:	03000002 	movweq	r0, #2
    1614:	00005eb9 			; <UNDEFINED> instruction: 0x00005eb9
    1618:	00230200 	eoreq	r0, r3, r0, lsl #4
    161c:	00013307 	andeq	r3, r1, r7, lsl #6
    1620:	5eba0300 	cdppl	3, 11, cr0, cr10, cr0, {0}
    1624:	02000000 	andeq	r0, r0, #0
    1628:	6a070423 	bvs	1c26bc <FlashDriver+0x1c08f8>
    162c:	03000001 	movweq	r0, #1
    1630:	00005ebb 			; <UNDEFINED> instruction: 0x00005ebb
    1634:	08230200 	stmdaeq	r3!, {r9}
    1638:	0000ec07 	andeq	lr, r0, r7, lsl #24
    163c:	5ebc0300 	cdppl	3, 11, cr0, cr12, cr0, {0}
    1640:	02000000 	andeq	r0, r0, #0
    1644:	01070c23 	tsteq	r7, r3, lsr #24
    1648:	03000001 	movweq	r0, #1
    164c:	00005ebd 			; <UNDEFINED> instruction: 0x00005ebd
    1650:	10230200 	eorne	r0, r3, r0, lsl #4
    1654:	0001f107 	andeq	pc, r1, r7, lsl #2
    1658:	5ebe0300 	cdppl	3, 11, cr0, cr14, cr0, {0}
    165c:	02000000 	andeq	r0, r0, #0
    1660:	15071423 	strne	r1, [r7, #-1059]	; 0xfffffbdd
    1664:	03000002 	movweq	r0, #2
    1668:	00005ebf 			; <UNDEFINED> instruction: 0x00005ebf
    166c:	18230200 	stmdane	r3!, {r9}
    1670:	0001b807 	andeq	fp, r1, r7, lsl #16
    1674:	5ec00300 	cdppl	3, 12, cr0, cr0, cr0, {0}
    1678:	02000000 	andeq	r0, r0, #0
    167c:	11071c23 	tstne	r7, r3, lsr #24
    1680:	03000001 	movweq	r0, #1
    1684:	000025c1 	andeq	r2, r0, r1, asr #11
    1688:	20230200 	eorcs	r0, r3, r0, lsl #4
    168c:	0001e807 	andeq	lr, r1, r7, lsl #16
    1690:	70c20300 	sbcvc	r0, r2, r0, lsl #6
    1694:	02000000 	andeq	r0, r0, #0
    1698:	02002423 	andeq	r2, r0, #587202560	; 0x23000000
    169c:	000001d6 	ldrdeq	r0, [r0], -r6
    16a0:	0127c303 	teqeq	r7, r3, lsl #6
    16a4:	04040000 	streq	r0, [r4], #-0
    16a8:	00000083 	andeq	r0, r0, r3, lsl #1
    16ac:	00017a08 	andeq	r7, r1, r8, lsl #20
    16b0:	03300300 	teqeq	r0, #0, 6
    16b4:	00000139 	andeq	r0, r0, r9, lsr r1
    16b8:	013f0404 	teqeq	pc, r4, lsl #8
    16bc:	01090000 	mrseq	r0, (UNDEF: 9)
    16c0:	0000005e 	andeq	r0, r0, lr, asr r0
    16c4:	00000159 	andeq	r0, r0, r9, asr r1
    16c8:	00011c0a 	andeq	r1, r1, sl, lsl #24
    16cc:	003e0a00 	eorseq	r0, lr, r0, lsl #20
    16d0:	590a0000 	stmdbpl	sl, {}	; <UNPREDICTABLE>
    16d4:	00000001 	andeq	r0, r0, r1
    16d8:	003e0404 	eorseq	r0, lr, r4, lsl #8
    16dc:	010b0000 	mrseq	r0, (UNDEF: 11)
    16e0:	0000059e 	muleq	r0, lr, r5
    16e4:	5e012901 	cdppl	9, 0, cr2, cr1, cr1, {0}
    16e8:	58000000 	stmdapl	r0, {}	; <UNPREDICTABLE>
    16ec:	0e000009 	cdpeq	0, 0, cr0, cr0, cr9, {0}
    16f0:	8000000a 	andhi	r0, r0, sl
    16f4:	01000003 	tsteq	r0, r3
    16f8:	000001cf 	andeq	r0, r0, pc, asr #3
    16fc:	0000e10c 	andeq	lr, r0, ip, lsl #2
    1700:	1c290100 	stfnes	f0, [r9], #-0
    1704:	02000001 	andeq	r0, r0, #1
    1708:	da0c6c91 	ble	31c954 <FlashDriver+0x31ab90>
    170c:	01000002 	tsteq	r0, r2
    1710:	00005e2a 	andeq	r5, r0, sl, lsr #28
    1714:	68910200 	ldmvs	r1, {r9}
    1718:	0001a30c 	andeq	sl, r1, ip, lsl #6
    171c:	2d2b0100 	stfcss	f0, [fp, #-0]
    1720:	02000001 	andeq	r0, r0, #1
    1724:	070d6491 			; <UNDEFINED> instruction: 0x070d6491
    1728:	01000002 	tsteq	r0, r2
    172c:	0001cf2d 	andeq	ip, r1, sp, lsr #30
    1730:	70910200 	addsvc	r0, r1, r0, lsl #4
    1734:	0001530d 	andeq	r5, r1, sp, lsl #6
    1738:	5e2e0100 	sufple	f0, f6, f0
    173c:	02000000 	andeq	r0, r0, #0
    1740:	950e7491 	strls	r7, [lr, #-1169]	; 0xfffffb6f
    1744:	01000002 	tsteq	r0, r2
    1748:	000a025b 	andeq	r0, sl, fp, asr r2
    174c:	3e0f0000 	cdpcc	0, 0, cr0, cr15, cr0, {0}
    1750:	df000000 	svcle	0x00000000
    1754:	10000001 	andne	r0, r0, r1
    1758:	000001df 	ldrdeq	r0, [r0], -pc	; <UNPREDICTABLE>
    175c:	04030003 	streq	r0, [r3], #-3
    1760:	0000ce07 	andeq	ip, r0, r7, lsl #28
    1764:	01660000 	cmneq	r6, r0
    1768:	00020000 	andeq	r0, r2, r0
    176c:	00000973 	andeq	r0, r0, r3, ror r9
    1770:	00170104 	andseq	r0, r7, r4, lsl #2
    1774:	ae010000 	cdpge	0, 0, cr0, cr1, cr0, {0}
    1778:	89000005 	stmdbhi	r0, {r0, r2}
    177c:	10000000 	andne	r0, r0, r0
    1780:	3600000a 	strcc	r0, [r0], -sl
    1784:	dd00000a 	stcle	0, cr0, [r0, #-40]	; 0xffffffd8
    1788:	02000006 	andeq	r0, r0, #6
    178c:	000000fc 	strdeq	r0, [r0], -ip
    1790:	00302502 	eorseq	r2, r0, r2, lsl #10
    1794:	01030000 	mrseq	r0, (UNDEF: 3)
    1798:	00007008 	andeq	r7, r0, r8
    179c:	06010300 	streq	r0, [r1], -r0, lsl #6
    17a0:	00000072 	andeq	r0, r0, r2, ror r0
    17a4:	00028002 	andeq	r8, r2, r2
    17a8:	492a0200 	stmdbmi	sl!, {r9}
    17ac:	04000000 	streq	r0, [r0], #-0
    17b0:	00000030 	andeq	r0, r0, r0, lsr r0
    17b4:	24050203 	strcs	r0, [r5], #-515	; 0xfffffdfd
    17b8:	03000002 	movweq	r0, #2
    17bc:	01900702 	orrseq	r0, r0, r2, lsl #14
    17c0:	04030000 	streq	r0, [r3], #-0
    17c4:	00023e05 	andeq	r3, r2, r5, lsl #28
    17c8:	02000200 	andeq	r0, r0, #0, 4
    17cc:	32020000 	andcc	r0, r2, #0
    17d0:	0000006e 	andeq	r0, r0, lr, rrx
    17d4:	d3070403 	movwle	r0, #29699	; 0x7403
    17d8:	02000003 	andeq	r0, r0, #3
    17dc:	000000d7 	ldrdeq	r0, [r0], -r7
    17e0:	0080b103 	addeq	fp, r0, r3, lsl #2
    17e4:	04050000 	streq	r0, [r5], #-0
    17e8:	00000086 	andeq	r0, r0, r6, lsl #1
    17ec:	5e070106 	adfpls	f0, f7, f6
    17f0:	28000001 	stmdacs	r0, {r0}
    17f4:	0121b703 	teqeq	r1, r3, lsl #14
    17f8:	47080000 	strmi	r0, [r8, -r0]
    17fc:	03000002 	movweq	r0, #2
    1800:	000063b9 			; <UNDEFINED> instruction: 0x000063b9
    1804:	00230200 	eoreq	r0, r3, r0, lsl #4
    1808:	00013308 	andeq	r3, r1, r8, lsl #6
    180c:	63ba0300 			; <UNDEFINED> instruction: 0x63ba0300
    1810:	02000000 	andeq	r0, r0, #0
    1814:	6a080423 	bvs	2028a8 <FlashDriver+0x200ae4>
    1818:	03000001 	movweq	r0, #1
    181c:	000063bb 			; <UNDEFINED> instruction: 0x000063bb
    1820:	08230200 	stmdaeq	r3!, {r9}
    1824:	0000ec08 	andeq	lr, r0, r8, lsl #24
    1828:	63bc0300 			; <UNDEFINED> instruction: 0x63bc0300
    182c:	02000000 	andeq	r0, r0, #0
    1830:	01080c23 	tsteq	r8, r3, lsr #24
    1834:	03000001 	movweq	r0, #1
    1838:	000063bd 			; <UNDEFINED> instruction: 0x000063bd
    183c:	10230200 	eorne	r0, r3, r0, lsl #4
    1840:	0001f108 	andeq	pc, r1, r8, lsl #2
    1844:	63be0300 			; <UNDEFINED> instruction: 0x63be0300
    1848:	02000000 	andeq	r0, r0, #0
    184c:	15081423 	strne	r1, [r8, #-1059]	; 0xfffffbdd
    1850:	03000002 	movweq	r0, #2
    1854:	000063bf 			; <UNDEFINED> instruction: 0x000063bf
    1858:	18230200 	stmdane	r3!, {r9}
    185c:	0001b808 	andeq	fp, r1, r8, lsl #16
    1860:	63c00300 	bicvs	r0, r0, #0, 6
    1864:	02000000 	andeq	r0, r0, #0
    1868:	11081c23 	tstne	r8, r3, lsr #24
    186c:	03000001 	movweq	r0, #1
    1870:	000025c1 	andeq	r2, r0, r1, asr #11
    1874:	20230200 	eorcs	r0, r3, r0, lsl #4
    1878:	0001e808 	andeq	lr, r1, r8, lsl #16
    187c:	75c20300 	strbvc	r0, [r2, #768]	; 0x300
    1880:	02000000 	andeq	r0, r0, #0
    1884:	02002423 	andeq	r2, r0, #587202560	; 0x23000000
    1888:	000001d6 	ldrdeq	r0, [r0], -r6
    188c:	012cc303 	teqeq	ip, r3, lsl #6
    1890:	04050000 	streq	r0, [r5], #-0
    1894:	00000088 	andeq	r0, r0, r8, lsl #1
    1898:	05c40109 	strbeq	r0, [r4, #265]	; 0x109
    189c:	28010000 	stmdacs	r1, {}	; <UNPREDICTABLE>
    18a0:	00006301 	andeq	r6, r0, r1, lsl #6
    18a4:	000a1000 	andeq	r1, sl, r0
    18a8:	000a3600 	andeq	r3, sl, r0, lsl #12
    18ac:	0003b800 	andeq	fp, r3, r0, lsl #16
    18b0:	e10a0100 	mrs	r0, (UNDEF: 26)
    18b4:	01000000 	mrseq	r0, (UNDEF: 0)
    18b8:	00012128 	andeq	r2, r1, r8, lsr #2
    18bc:	6c910200 	lfmvs	f0, 4, [r1], {0}
    18c0:	0001530b 	andeq	r5, r1, fp, lsl #6
    18c4:	632b0100 	teqvs	fp, #0, 2
    18c8:	02000000 	andeq	r0, r0, #0
    18cc:	00007491 	muleq	r0, r1, r4
    18d0:	000001f4 	strdeq	r0, [r0], -r4
    18d4:	0a0c0002 	beq	3018e4 <FlashDriver+0x2ffb20>
    18d8:	01040000 	mrseq	r0, (UNDEF: 4)
    18dc:	00000017 	andeq	r0, r0, r7, lsl r0
    18e0:	0005e001 	andeq	lr, r5, r1
    18e4:	00008900 	andeq	r8, r0, r0, lsl #18
    18e8:	000a3800 	andeq	r3, sl, r0, lsl #16
    18ec:	000ab400 	andeq	fp, sl, r0, lsl #8
    18f0:	00074900 	andeq	r4, r7, r0, lsl #18
    18f4:	00fc0200 	rscseq	r0, ip, r0, lsl #4
    18f8:	25020000 	strcs	r0, [r2, #-0]
    18fc:	00000030 	andeq	r0, r0, r0, lsr r0
    1900:	70080103 	andvc	r0, r8, r3, lsl #2
    1904:	03000000 	movweq	r0, #0
    1908:	00720601 	rsbseq	r0, r2, r1, lsl #12
    190c:	81020000 	mrshi	r0, (UNDEF: 2)
    1910:	02000002 	andeq	r0, r0, #2
    1914:	00003028 	andeq	r3, r0, r8, lsr #32
    1918:	05020300 	streq	r0, [r2, #-768]	; 0xfffffd00
    191c:	00000224 	andeq	r0, r0, r4, lsr #4
    1920:	90070203 	andls	r0, r7, r3, lsl #4
    1924:	03000001 	movweq	r0, #1
    1928:	023e0504 	eorseq	r0, lr, #4, 10	; 0x1000000
    192c:	00020000 	andeq	r0, r2, r0
    1930:	02000002 	andeq	r0, r0, #2
    1934:	00006932 	andeq	r6, r0, r2, lsr r9
    1938:	07040300 	streq	r0, [r4, -r0, lsl #6]
    193c:	000003d3 	ldrdeq	r0, [r0], -r3
    1940:	0000d702 	andeq	sp, r0, r2, lsl #14
    1944:	7bb10300 	blvc	fec4254c <FlashDriver+0xfec40788>
    1948:	04000000 	streq	r0, [r0], #-0
    194c:	00008104 	andeq	r8, r0, r4, lsl #2
    1950:	06010500 	streq	r0, [r1], -r0, lsl #10
    1954:	0000015e 	andeq	r0, r0, lr, asr r1
    1958:	1cb70328 	ldcne	3, cr0, [r7], #160	; 0xa0
    195c:	07000001 	streq	r0, [r0, -r1]
    1960:	00000247 	andeq	r0, r0, r7, asr #4
    1964:	005eb903 	subseq	fp, lr, r3, lsl #18
    1968:	23020000 	movwcs	r0, #8192	; 0x2000
    196c:	01330700 	teqeq	r3, r0, lsl #14
    1970:	ba030000 	blt	c1978 <FlashDriver+0xbfbb4>
    1974:	0000005e 	andeq	r0, r0, lr, asr r0
    1978:	07042302 	streq	r2, [r4, -r2, lsl #6]
    197c:	0000016a 	andeq	r0, r0, sl, ror #2
    1980:	005ebb03 	subseq	fp, lr, r3, lsl #22
    1984:	23020000 	movwcs	r0, #8192	; 0x2000
    1988:	00ec0708 	rsceq	r0, ip, r8, lsl #14
    198c:	bc030000 	stclt	0, cr0, [r3], {-0}
    1990:	0000005e 	andeq	r0, r0, lr, asr r0
    1994:	070c2302 	streq	r2, [ip, -r2, lsl #6]
    1998:	00000101 	andeq	r0, r0, r1, lsl #2
    199c:	005ebd03 	subseq	fp, lr, r3, lsl #26
    19a0:	23020000 	movwcs	r0, #8192	; 0x2000
    19a4:	01f10710 	mvnseq	r0, r0, lsl r7
    19a8:	be030000 	cdplt	0, 0, cr0, cr3, cr0, {0}
    19ac:	0000005e 	andeq	r0, r0, lr, asr r0
    19b0:	07142302 	ldreq	r2, [r4, -r2, lsl #6]
    19b4:	00000215 	andeq	r0, r0, r5, lsl r2
    19b8:	005ebf03 	subseq	fp, lr, r3, lsl #30
    19bc:	23020000 	movwcs	r0, #8192	; 0x2000
    19c0:	01b80718 			; <UNDEFINED> instruction: 0x01b80718
    19c4:	c0030000 	andgt	r0, r3, r0
    19c8:	0000005e 	andeq	r0, r0, lr, asr r0
    19cc:	071c2302 	ldreq	r2, [ip, -r2, lsl #6]
    19d0:	00000111 	andeq	r0, r0, r1, lsl r1
    19d4:	0025c103 	eoreq	ip, r5, r3, lsl #2
    19d8:	23020000 	movwcs	r0, #8192	; 0x2000
    19dc:	01e80720 	mvneq	r0, r0, lsr #14
    19e0:	c2030000 	andgt	r0, r3, #0
    19e4:	00000070 	andeq	r0, r0, r0, ror r0
    19e8:	00242302 	eoreq	r2, r4, r2, lsl #6
    19ec:	0001d602 	andeq	sp, r1, r2, lsl #12
    19f0:	27c30300 	strbcs	r0, [r3, r0, lsl #6]
    19f4:	04000001 	streq	r0, [r0], #-1
    19f8:	00008304 	andeq	r8, r0, r4, lsl #6
    19fc:	017a0800 	cmneq	sl, r0, lsl #16
    1a00:	30030000 	andcc	r0, r3, r0
    1a04:	00013903 	andeq	r3, r1, r3, lsl #18
    1a08:	3f040400 	svccc	0x00040400
    1a0c:	09000001 	stmdbeq	r0, {r0}
    1a10:	00005e01 	andeq	r5, r0, r1, lsl #28
    1a14:	00015900 	andeq	r5, r1, r0, lsl #18
    1a18:	011c0a00 	tsteq	ip, r0, lsl #20
    1a1c:	3e0a0000 	cdpcc	0, 0, cr0, cr10, cr0, {0}
    1a20:	0a000000 	beq	1a28 <PFlashSetProtection+0x114>
    1a24:	00000159 	andeq	r0, r0, r9, asr r1
    1a28:	3e040400 	cfcpyscc	mvf0, mvf4
    1a2c:	0b000000 	bleq	1a34 <PFlashSetProtection+0x120>
    1a30:	0005fb01 	andeq	pc, r5, r1, lsl #22
    1a34:	01190100 	tsteq	r9, r0, lsl #2
    1a38:	0000005e 	andeq	r0, r0, lr, asr r0
    1a3c:	00000a38 	andeq	r0, r0, r8, lsr sl
    1a40:	00000ab4 			; <UNDEFINED> instruction: 0x00000ab4
    1a44:	000003f0 	strdeq	r0, [r0], -r0	; <UNPREDICTABLE>
    1a48:	0001e001 	andeq	lr, r1, r1
    1a4c:	00e10c00 	rsceq	r0, r1, r0, lsl #24
    1a50:	19010000 	stmdbne	r1, {}	; <UNPREDICTABLE>
    1a54:	0000011c 	andeq	r0, r0, ip, lsl r1
    1a58:	0c649102 	stfeqp	f1, [r4], #-8
    1a5c:	000002da 	ldrdeq	r0, [r0], -sl
    1a60:	005e1a01 	subseq	r1, lr, r1, lsl #20
    1a64:	91020000 	mrsls	r0, (UNDEF: 2)
    1a68:	02fd0c60 	rscseq	r0, sp, #96, 24	; 0x6000
    1a6c:	1b010000 	blne	41a74 <FlashDriver+0x3fcb0>
    1a70:	0000005e 	andeq	r0, r0, lr, asr r0
    1a74:	0c5c9102 	ldfeqp	f1, [ip], {2}
    1a78:	000001a3 	andeq	r0, r0, r3, lsr #3
    1a7c:	012d1c01 	teqeq	sp, r1, lsl #24
    1a80:	91020000 	mrsls	r0, (UNDEF: 2)
    1a84:	02070d58 	andeq	r0, r7, #88, 26	; 0x1600
    1a88:	1e010000 	cdpne	0, 0, cr0, cr1, cr0, {0}
    1a8c:	000001e0 	andeq	r0, r0, r0, ror #3
    1a90:	0d6c9102 	stfeqp	f1, [ip, #-8]!
    1a94:	00000153 	andeq	r0, r0, r3, asr r1
    1a98:	005e1f01 	subseq	r1, lr, r1, lsl #30
    1a9c:	91020000 	mrsls	r0, (UNDEF: 2)
    1aa0:	05d50d74 	ldrbeq	r0, [r5, #3444]	; 0xd74
    1aa4:	21010000 	mrscs	r0, (UNDEF: 1)
    1aa8:	0000005e 	andeq	r0, r0, lr, asr r0
    1aac:	00709102 	rsbseq	r9, r0, r2, lsl #2
    1ab0:	00003e0e 	andeq	r3, r0, lr, lsl #28
    1ab4:	0001f000 	andeq	pc, r1, r0
    1ab8:	01f00f00 	mvnseq	r0, r0, lsl #30
    1abc:	00030000 	andeq	r0, r3, r0
    1ac0:	ce070403 	cdpgt	4, 0, cr0, cr7, cr3, {0}
    1ac4:	00000000 	andeq	r0, r0, r0
    1ac8:	00000166 	andeq	r0, r0, r6, ror #2
    1acc:	0ad10002 	beq	ff441adc <FlashDriver+0xff43fd18>
    1ad0:	01040000 	mrseq	r0, (UNDEF: 4)
    1ad4:	00000017 	andeq	r0, r0, r7, lsl r0
    1ad8:	00060d01 	andeq	r0, r6, r1, lsl #26
    1adc:	00008900 	andeq	r8, r0, r0, lsl #18
    1ae0:	000ab400 	andeq	fp, sl, r0, lsl #8
    1ae4:	000afc00 	andeq	pc, sl, r0, lsl #24
    1ae8:	0007ce00 	andeq	ip, r7, r0, lsl #28
    1aec:	00fc0200 	rscseq	r0, ip, r0, lsl #4
    1af0:	25020000 	strcs	r0, [r2, #-0]
    1af4:	00000030 	andeq	r0, r0, r0, lsr r0
    1af8:	70080103 	andvc	r0, r8, r3, lsl #2
    1afc:	03000000 	movweq	r0, #0
    1b00:	00720601 	rsbseq	r0, r2, r1, lsl #12
    1b04:	80020000 	andhi	r0, r2, r0
    1b08:	02000002 	andeq	r0, r0, #2
    1b0c:	0000492a 	andeq	r4, r0, sl, lsr #18
    1b10:	00300400 	eorseq	r0, r0, r0, lsl #8
    1b14:	02030000 	andeq	r0, r3, #0
    1b18:	00022405 	andeq	r2, r2, r5, lsl #8
    1b1c:	07020300 	streq	r0, [r2, -r0, lsl #6]
    1b20:	00000190 	muleq	r0, r0, r1
    1b24:	3e050403 	cdpcc	4, 0, cr0, cr5, cr3, {0}
    1b28:	02000002 	andeq	r0, r0, #2
    1b2c:	00000200 	andeq	r0, r0, r0, lsl #4
    1b30:	006e3202 	rsbeq	r3, lr, r2, lsl #4
    1b34:	04030000 	streq	r0, [r3], #-0
    1b38:	0003d307 	andeq	sp, r3, r7, lsl #6
    1b3c:	00d70200 	sbcseq	r0, r7, r0, lsl #4
    1b40:	b1030000 	mrslt	r0, (UNDEF: 3)
    1b44:	00000080 	andeq	r0, r0, r0, lsl #1
    1b48:	00860405 	addeq	r0, r6, r5, lsl #8
    1b4c:	01060000 	mrseq	r0, (UNDEF: 6)
    1b50:	00015e07 	andeq	r5, r1, r7, lsl #28
    1b54:	b7032800 	strlt	r2, [r3, -r0, lsl #16]
    1b58:	00000121 	andeq	r0, r0, r1, lsr #2
    1b5c:	00024708 	andeq	r4, r2, r8, lsl #14
    1b60:	63b90300 			; <UNDEFINED> instruction: 0x63b90300
    1b64:	02000000 	andeq	r0, r0, #0
    1b68:	33080023 	movwcc	r0, #32803	; 0x8023
    1b6c:	03000001 	movweq	r0, #1
    1b70:	000063ba 			; <UNDEFINED> instruction: 0x000063ba
    1b74:	04230200 	strteq	r0, [r3], #-512	; 0xfffffe00
    1b78:	00016a08 	andeq	r6, r1, r8, lsl #20
    1b7c:	63bb0300 			; <UNDEFINED> instruction: 0x63bb0300
    1b80:	02000000 	andeq	r0, r0, #0
    1b84:	ec080823 	stc	8, cr0, [r8], {35}	; 0x23
    1b88:	03000000 	movweq	r0, #0
    1b8c:	000063bc 			; <UNDEFINED> instruction: 0x000063bc
    1b90:	0c230200 	sfmeq	f0, 4, [r3], #-0
    1b94:	00010108 	andeq	r0, r1, r8, lsl #2
    1b98:	63bd0300 			; <UNDEFINED> instruction: 0x63bd0300
    1b9c:	02000000 	andeq	r0, r0, #0
    1ba0:	f1081023 			; <UNDEFINED> instruction: 0xf1081023
    1ba4:	03000001 	movweq	r0, #1
    1ba8:	000063be 			; <UNDEFINED> instruction: 0x000063be
    1bac:	14230200 	strtne	r0, [r3], #-512	; 0xfffffe00
    1bb0:	00021508 	andeq	r1, r2, r8, lsl #10
    1bb4:	63bf0300 			; <UNDEFINED> instruction: 0x63bf0300
    1bb8:	02000000 	andeq	r0, r0, #0
    1bbc:	b8081823 	stmdalt	r8, {r0, r1, r5, fp, ip}
    1bc0:	03000001 	movweq	r0, #1
    1bc4:	000063c0 	andeq	r6, r0, r0, asr #7
    1bc8:	1c230200 	sfmne	f0, 4, [r3], #-0
    1bcc:	00011108 	andeq	r1, r1, r8, lsl #2
    1bd0:	25c10300 	strbcs	r0, [r1, #768]	; 0x300
    1bd4:	02000000 	andeq	r0, r0, #0
    1bd8:	e8082023 	stmda	r8, {r0, r1, r5, sp}
    1bdc:	03000001 	movweq	r0, #1
    1be0:	000075c2 	andeq	r7, r0, r2, asr #11
    1be4:	24230200 	strtcs	r0, [r3], #-512	; 0xfffffe00
    1be8:	01d60200 	bicseq	r0, r6, r0, lsl #4
    1bec:	c3030000 	movwgt	r0, #12288	; 0x3000
    1bf0:	0000012c 	andeq	r0, r0, ip, lsr #2
    1bf4:	00880405 	addeq	r0, r8, r5, lsl #8
    1bf8:	01090000 	mrseq	r0, (UNDEF: 9)
    1bfc:	00000624 	andeq	r0, r0, r4, lsr #12
    1c00:	63012801 	movwvs	r2, #6145	; 0x1801
    1c04:	b4000000 	strlt	r0, [r0], #-0
    1c08:	fc00000a 	stc2	0, cr0, [r0], {10}
    1c0c:	2800000a 	stmdacs	r0, {r1, r3}
    1c10:	01000004 	tsteq	r0, r4
    1c14:	0000e10a 	andeq	lr, r0, sl, lsl #2
    1c18:	21280100 	teqcs	r8, r0, lsl #2
    1c1c:	02000001 	andeq	r0, r0, #1
    1c20:	530b6c91 	movwpl	r6, #48273	; 0xbc91
    1c24:	01000001 	tsteq	r0, r1
    1c28:	0000632a 	andeq	r6, r0, sl, lsr #6
    1c2c:	74910200 	ldrvc	r0, [r1], #512	; 0x200
    1c30:	01850000 	orreq	r0, r5, r0
    1c34:	00020000 	andeq	r0, r2, r0
    1c38:	00000b6a 	andeq	r0, r0, sl, ror #22
    1c3c:	00170104 	andseq	r0, r7, r4, lsl #2
    1c40:	5d010000 	stcpl	0, cr0, [r1, #-0]
    1c44:	89000006 	stmdbhi	r0, {r1, r2}
    1c48:	fc000000 	stc2	0, cr0, [r0], {-0}
    1c4c:	4200000a 	andmi	r0, r0, #10
    1c50:	3c00000b 	stccc	0, cr0, [r0], {11}
    1c54:	02000008 	andeq	r0, r0, #8
    1c58:	000000fc 	strdeq	r0, [r0], -ip
    1c5c:	00302502 	eorseq	r2, r0, r2, lsl #10
    1c60:	01030000 	mrseq	r0, (UNDEF: 3)
    1c64:	00007008 	andeq	r7, r0, r8
    1c68:	06010300 	streq	r0, [r1], -r0, lsl #6
    1c6c:	00000072 	andeq	r0, r0, r2, ror r0
    1c70:	00028102 	andeq	r8, r2, r2, lsl #2
    1c74:	30280200 	eorcc	r0, r8, r0, lsl #4
    1c78:	02000000 	andeq	r0, r0, #0
    1c7c:	00000280 	andeq	r0, r0, r0, lsl #5
    1c80:	00542a02 	subseq	r2, r4, r2, lsl #20
    1c84:	30040000 	andcc	r0, r4, r0
    1c88:	03000000 	movweq	r0, #0
    1c8c:	02240502 	eoreq	r0, r4, #8388608	; 0x800000
    1c90:	02030000 	andeq	r0, r3, #0
    1c94:	00019007 	andeq	r9, r1, r7
    1c98:	05040300 	streq	r0, [r4, #-768]	; 0xfffffd00
    1c9c:	0000023e 	andeq	r0, r0, lr, lsr r2
    1ca0:	00020002 	andeq	r0, r2, r2
    1ca4:	79320200 	ldmdbvc	r2!, {r9}
    1ca8:	03000000 	movweq	r0, #0
    1cac:	03d30704 	bicseq	r0, r3, #4, 14	; 0x100000
    1cb0:	d7020000 	strle	r0, [r2, -r0]
    1cb4:	03000000 	movweq	r0, #0
    1cb8:	00008bb1 			; <UNDEFINED> instruction: 0x00008bb1
    1cbc:	91040500 	tstls	r4, r0, lsl #10
    1cc0:	06000000 	streq	r0, [r0], -r0
    1cc4:	015e0701 	cmpeq	lr, r1, lsl #14
    1cc8:	03280000 	teqeq	r8, #0
    1ccc:	00012cb7 			; <UNDEFINED> instruction: 0x00012cb7
    1cd0:	02470800 	subeq	r0, r7, #0, 16
    1cd4:	b9030000 	stmdblt	r3, {}	; <UNPREDICTABLE>
    1cd8:	0000006e 	andeq	r0, r0, lr, rrx
    1cdc:	08002302 	stmdaeq	r0, {r1, r8, r9, sp}
    1ce0:	00000133 	andeq	r0, r0, r3, lsr r1
    1ce4:	006eba03 	rsbeq	fp, lr, r3, lsl #20
    1ce8:	23020000 	movwcs	r0, #8192	; 0x2000
    1cec:	016a0804 	cmneq	sl, r4, lsl #16
    1cf0:	bb030000 	bllt	c1cf8 <FlashDriver+0xbff34>
    1cf4:	0000006e 	andeq	r0, r0, lr, rrx
    1cf8:	08082302 	stmdaeq	r8, {r1, r8, r9, sp}
    1cfc:	000000ec 	andeq	r0, r0, ip, ror #1
    1d00:	006ebc03 	rsbeq	fp, lr, r3, lsl #24
    1d04:	23020000 	movwcs	r0, #8192	; 0x2000
    1d08:	0101080c 	tsteq	r1, ip, lsl #16
    1d0c:	bd030000 	stclt	0, cr0, [r3, #-0]
    1d10:	0000006e 	andeq	r0, r0, lr, rrx
    1d14:	08102302 	ldmdaeq	r0, {r1, r8, r9, sp}
    1d18:	000001f1 	strdeq	r0, [r0], -r1
    1d1c:	006ebe03 	rsbeq	fp, lr, r3, lsl #28
    1d20:	23020000 	movwcs	r0, #8192	; 0x2000
    1d24:	02150814 	andseq	r0, r5, #20, 16	; 0x140000
    1d28:	bf030000 	svclt	0x00030000
    1d2c:	0000006e 	andeq	r0, r0, lr, rrx
    1d30:	08182302 	ldmdaeq	r8, {r1, r8, r9, sp}
    1d34:	000001b8 			; <UNDEFINED> instruction: 0x000001b8
    1d38:	006ec003 	rsbeq	ip, lr, r3
    1d3c:	23020000 	movwcs	r0, #8192	; 0x2000
    1d40:	0111081c 	tsteq	r1, ip, lsl r8
    1d44:	c1030000 	mrsgt	r0, (UNDEF: 3)
    1d48:	00000025 	andeq	r0, r0, r5, lsr #32
    1d4c:	08202302 	stmdaeq	r0!, {r1, r8, r9, sp}
    1d50:	000001e8 	andeq	r0, r0, r8, ror #3
    1d54:	0080c203 	addeq	ip, r0, r3, lsl #4
    1d58:	23020000 	movwcs	r0, #8192	; 0x2000
    1d5c:	d6020024 	strle	r0, [r2], -r4, lsr #32
    1d60:	03000001 	movweq	r0, #1
    1d64:	000137c3 	andeq	r3, r1, r3, asr #15
    1d68:	93040500 	movwls	r0, #17664	; 0x4500
    1d6c:	05000000 	streq	r0, [r0, #-0]
    1d70:	00003e04 	andeq	r3, r0, r4, lsl #28
    1d74:	45010900 	strmi	r0, [r1, #-2304]	; 0xfffff700
    1d78:	01000006 	tsteq	r0, r6
    1d7c:	006e0129 	rsbeq	r0, lr, r9, lsr #2
    1d80:	0afc0000 	beq	fff01d88 <FlashDriver+0xffefffc4>
    1d84:	0b420000 	bleq	1081d8c <FlashDriver+0x107ffc8>
    1d88:	04600000 	strbteq	r0, [r0], #-0
    1d8c:	0a010000 	beq	41d94 <FlashDriver+0x3ffd0>
    1d90:	000000e1 	andeq	r0, r0, r1, ror #1
    1d94:	012c2901 	teqeq	ip, r1, lsl #18
    1d98:	91020000 	mrsls	r0, (UNDEF: 2)
    1d9c:	06360a6c 	ldrteq	r0, [r6], -ip, ror #20
    1da0:	29010000 	stmdbcs	r1, {}	; <UNPREDICTABLE>
    1da4:	0000013d 	andeq	r0, r0, sp, lsr r1
    1da8:	0b689102 	bleq	1a261b8 <FlashDriver+0x1a243f4>
    1dac:	000002b8 			; <UNDEFINED> instruction: 0x000002b8
    1db0:	003e2c01 	eorseq	r2, lr, r1, lsl #24
    1db4:	91020000 	mrsls	r0, (UNDEF: 2)
    1db8:	85000077 	strhi	r0, [r0, #-119]	; 0xffffff89
    1dbc:	02000001 	andeq	r0, r0, #1
    1dc0:	000c0300 	andeq	r0, ip, r0, lsl #6
    1dc4:	17010400 	strne	r0, [r1, -r0, lsl #8]
    1dc8:	01000000 	mrseq	r0, (UNDEF: 0)
    1dcc:	0000067a 	andeq	r0, r0, sl, ror r6
    1dd0:	00000089 	andeq	r0, r0, r9, lsl #1
    1dd4:	00000b44 	andeq	r0, r0, r4, asr #22
    1dd8:	00000b9a 	muleq	r0, sl, fp
    1ddc:	000008b0 			; <UNDEFINED> instruction: 0x000008b0
    1de0:	0000fc02 	andeq	pc, r0, r2, lsl #24
    1de4:	30250200 	eorcc	r0, r5, r0, lsl #4
    1de8:	03000000 	movweq	r0, #0
    1dec:	00700801 	rsbseq	r0, r0, r1, lsl #16
    1df0:	01030000 	mrseq	r0, (UNDEF: 3)
    1df4:	00007206 	andeq	r7, r0, r6, lsl #4
    1df8:	02810200 	addeq	r0, r1, #0, 4
    1dfc:	28020000 	stmdacs	r2, {}	; <UNPREDICTABLE>
    1e00:	00000030 	andeq	r0, r0, r0, lsr r0
    1e04:	00028002 	andeq	r8, r2, r2
    1e08:	542a0200 	strtpl	r0, [sl], #-512	; 0xfffffe00
    1e0c:	04000000 	streq	r0, [r0], #-0
    1e10:	00000030 	andeq	r0, r0, r0, lsr r0
    1e14:	24050203 	strcs	r0, [r5], #-515	; 0xfffffdfd
    1e18:	03000002 	movweq	r0, #2
    1e1c:	01900702 	orrseq	r0, r0, r2, lsl #14
    1e20:	04030000 	streq	r0, [r3], #-0
    1e24:	00023e05 	andeq	r3, r2, r5, lsl #28
    1e28:	02000200 	andeq	r0, r0, #0, 4
    1e2c:	32020000 	andcc	r0, r2, #0
    1e30:	00000079 	andeq	r0, r0, r9, ror r0
    1e34:	d3070403 	movwle	r0, #29699	; 0x7403
    1e38:	02000003 	andeq	r0, r0, #3
    1e3c:	000000d7 	ldrdeq	r0, [r0], -r7
    1e40:	008bb103 	addeq	fp, fp, r3, lsl #2
    1e44:	04050000 	streq	r0, [r5], #-0
    1e48:	00000091 	muleq	r0, r1, r0
    1e4c:	5e070106 	adfpls	f0, f7, f6
    1e50:	28000001 	stmdacs	r0, {r0}
    1e54:	012cb703 	teqeq	ip, r3, lsl #14
    1e58:	47080000 	strmi	r0, [r8, -r0]
    1e5c:	03000002 	movweq	r0, #2
    1e60:	00006eb9 			; <UNDEFINED> instruction: 0x00006eb9
    1e64:	00230200 	eoreq	r0, r3, r0, lsl #4
    1e68:	00013308 	andeq	r3, r1, r8, lsl #6
    1e6c:	6eba0300 	cdpvs	3, 11, cr0, cr10, cr0, {0}
    1e70:	02000000 	andeq	r0, r0, #0
    1e74:	6a080423 	bvs	202f08 <FlashDriver+0x201144>
    1e78:	03000001 	movweq	r0, #1
    1e7c:	00006ebb 			; <UNDEFINED> instruction: 0x00006ebb
    1e80:	08230200 	stmdaeq	r3!, {r9}
    1e84:	0000ec08 	andeq	lr, r0, r8, lsl #24
    1e88:	6ebc0300 	cdpvs	3, 11, cr0, cr12, cr0, {0}
    1e8c:	02000000 	andeq	r0, r0, #0
    1e90:	01080c23 	tsteq	r8, r3, lsr #24
    1e94:	03000001 	movweq	r0, #1
    1e98:	00006ebd 			; <UNDEFINED> instruction: 0x00006ebd
    1e9c:	10230200 	eorne	r0, r3, r0, lsl #4
    1ea0:	0001f108 	andeq	pc, r1, r8, lsl #2
    1ea4:	6ebe0300 	cdpvs	3, 11, cr0, cr14, cr0, {0}
    1ea8:	02000000 	andeq	r0, r0, #0
    1eac:	15081423 	strne	r1, [r8, #-1059]	; 0xfffffbdd
    1eb0:	03000002 	movweq	r0, #2
    1eb4:	00006ebf 			; <UNDEFINED> instruction: 0x00006ebf
    1eb8:	18230200 	stmdane	r3!, {r9}
    1ebc:	0001b808 	andeq	fp, r1, r8, lsl #16
    1ec0:	6ec00300 	cdpvs	3, 12, cr0, cr0, cr0, {0}
    1ec4:	02000000 	andeq	r0, r0, #0
    1ec8:	11081c23 	tstne	r8, r3, lsr #24
    1ecc:	03000001 	movweq	r0, #1
    1ed0:	000025c1 	andeq	r2, r0, r1, asr #11
    1ed4:	20230200 	eorcs	r0, r3, r0, lsl #4
    1ed8:	0001e808 	andeq	lr, r1, r8, lsl #16
    1edc:	80c20300 	sbchi	r0, r2, r0, lsl #6
    1ee0:	02000000 	andeq	r0, r0, #0
    1ee4:	02002423 	andeq	r2, r0, #587202560	; 0x23000000
    1ee8:	000001d6 	ldrdeq	r0, [r0], -r6
    1eec:	0137c303 	teqeq	r7, r3, lsl #6
    1ef0:	04050000 	streq	r0, [r5], #-0
    1ef4:	00000093 	muleq	r0, r3, r0
    1ef8:	003e0405 	eorseq	r0, lr, r5, lsl #8
    1efc:	01090000 	mrseq	r0, (UNDEF: 9)
    1f00:	00000695 	muleq	r0, r5, r6
    1f04:	6e012901 	cdpvs	9, 0, cr2, cr1, cr1, {0}
    1f08:	44000000 	strmi	r0, [r0], #-0
    1f0c:	9a00000b 	bls	1f40 <FlashDriver+0x17c>
    1f10:	9800000b 	stmdals	r0, {r0, r1, r3}
    1f14:	01000004 	tsteq	r0, r4
    1f18:	0000e10a 	andeq	lr, r0, sl, lsl #2
    1f1c:	2c290100 	stfcss	f0, [r9], #-0
    1f20:	02000001 	andeq	r0, r0, #1
    1f24:	ab0a6c91 	blge	29d170 <FlashDriver+0x29b3ac>
    1f28:	01000006 	tsteq	r0, r6
    1f2c:	00013d29 	andeq	r3, r1, r9, lsr #26
    1f30:	68910200 	ldmvs	r1, {r9}
    1f34:	0002b80b 	andeq	fp, r2, fp, lsl #16
    1f38:	3e2c0100 	sufcce	f0, f4, f0
    1f3c:	02000000 	andeq	r0, r0, #0
    1f40:	00007791 	muleq	r0, r1, r7
    1f44:	0000018d 	andeq	r0, r0, sp, lsl #3
    1f48:	0c9c0002 	ldceq	0, cr0, [ip], {2}
    1f4c:	01040000 	mrseq	r0, (UNDEF: 4)
    1f50:	00000017 	andeq	r0, r0, r7, lsl r0
    1f54:	0006c801 	andeq	ip, r6, r1, lsl #16
    1f58:	00008900 	andeq	r8, r0, r0, lsl #18
    1f5c:	000b9c00 	andeq	r9, fp, r0, lsl #24
    1f60:	000e3c00 	andeq	r3, lr, r0, lsl #24
    1f64:	00092500 	andeq	r2, r9, r0, lsl #10
    1f68:	00fc0200 	rscseq	r0, ip, r0, lsl #4
    1f6c:	25020000 	strcs	r0, [r2, #-0]
    1f70:	00000030 	andeq	r0, r0, r0, lsr r0
    1f74:	70080103 	andvc	r0, r8, r3, lsl #2
    1f78:	03000000 	movweq	r0, #0
    1f7c:	00720601 	rsbseq	r0, r2, r1, lsl #12
    1f80:	81020000 	mrshi	r0, (UNDEF: 2)
    1f84:	02000002 	andeq	r0, r0, #2
    1f88:	00003028 	andeq	r3, r0, r8, lsr #32
    1f8c:	02800200 	addeq	r0, r0, #0, 4
    1f90:	2a020000 	bcs	81f98 <FlashDriver+0x801d4>
    1f94:	00000054 	andeq	r0, r0, r4, asr r0
    1f98:	00003004 	andeq	r3, r0, r4
    1f9c:	05020300 	streq	r0, [r2, #-768]	; 0xfffffd00
    1fa0:	00000224 	andeq	r0, r0, r4, lsr #4
    1fa4:	90070203 	andls	r0, r7, r3, lsl #4
    1fa8:	03000001 	movweq	r0, #1
    1fac:	023e0504 	eorseq	r0, lr, #4, 10	; 0x1000000
    1fb0:	00020000 	andeq	r0, r2, r0
    1fb4:	02000002 	andeq	r0, r0, #2
    1fb8:	00007932 	andeq	r7, r0, r2, lsr r9
    1fbc:	07040300 	streq	r0, [r4, -r0, lsl #6]
    1fc0:	000003d3 	ldrdeq	r0, [r0], -r3
    1fc4:	0000d702 	andeq	sp, r0, r2, lsl #14
    1fc8:	8bb10300 	blhi	fec42bd0 <FlashDriver+0xfec40e0c>
    1fcc:	05000000 	streq	r0, [r0, #-0]
    1fd0:	00009104 	andeq	r9, r0, r4, lsl #2
    1fd4:	07010600 	streq	r0, [r1, -r0, lsl #12]
    1fd8:	0000015e 	andeq	r0, r0, lr, asr r1
    1fdc:	2cb70328 	ldccs	3, cr0, [r7], #160	; 0xa0
    1fe0:	08000001 	stmdaeq	r0, {r0}
    1fe4:	00000247 	andeq	r0, r0, r7, asr #4
    1fe8:	006eb903 	rsbeq	fp, lr, r3, lsl #18
    1fec:	23020000 	movwcs	r0, #8192	; 0x2000
    1ff0:	01330800 	teqeq	r3, r0, lsl #16
    1ff4:	ba030000 	blt	c1ffc <FlashDriver+0xc0238>
    1ff8:	0000006e 	andeq	r0, r0, lr, rrx
    1ffc:	08042302 	stmdaeq	r4, {r1, r8, r9, sp}
    2000:	0000016a 	andeq	r0, r0, sl, ror #2
    2004:	006ebb03 	rsbeq	fp, lr, r3, lsl #22
    2008:	23020000 	movwcs	r0, #8192	; 0x2000
    200c:	00ec0808 	rsceq	r0, ip, r8, lsl #16
    2010:	bc030000 	stclt	0, cr0, [r3], {-0}
    2014:	0000006e 	andeq	r0, r0, lr, rrx
    2018:	080c2302 	stmdaeq	ip, {r1, r8, r9, sp}
    201c:	00000101 	andeq	r0, r0, r1, lsl #2
    2020:	006ebd03 	rsbeq	fp, lr, r3, lsl #26
    2024:	23020000 	movwcs	r0, #8192	; 0x2000
    2028:	01f10810 	mvnseq	r0, r0, lsl r8
    202c:	be030000 	cdplt	0, 0, cr0, cr3, cr0, {0}
    2030:	0000006e 	andeq	r0, r0, lr, rrx
    2034:	08142302 	ldmdaeq	r4, {r1, r8, r9, sp}
    2038:	00000215 	andeq	r0, r0, r5, lsl r2
    203c:	006ebf03 	rsbeq	fp, lr, r3, lsl #30
    2040:	23020000 	movwcs	r0, #8192	; 0x2000
    2044:	01b80818 			; <UNDEFINED> instruction: 0x01b80818
    2048:	c0030000 	andgt	r0, r3, r0
    204c:	0000006e 	andeq	r0, r0, lr, rrx
    2050:	081c2302 	ldmdaeq	ip, {r1, r8, r9, sp}
    2054:	00000111 	andeq	r0, r0, r1, lsl r1
    2058:	0025c103 	eoreq	ip, r5, r3, lsl #2
    205c:	23020000 	movwcs	r0, #8192	; 0x2000
    2060:	01e80820 	mvneq	r0, r0, lsr #16
    2064:	c2030000 	andgt	r0, r3, #0
    2068:	00000080 	andeq	r0, r0, r0, lsl #1
    206c:	00242302 	eoreq	r2, r4, r2, lsl #6
    2070:	0001d602 	andeq	sp, r1, r2, lsl #12
    2074:	37c30300 	strbcc	r0, [r3, r0, lsl #6]
    2078:	05000001 	streq	r0, [r0, #-1]
    207c:	00009304 	andeq	r9, r0, r4, lsl #6
    2080:	d7010900 	strle	r0, [r1, -r0, lsl #18]
    2084:	01000006 	tsteq	r0, r6
    2088:	006e012c 	rsbeq	r0, lr, ip, lsr #2
    208c:	0b9c0000 	bleq	fe702094 <FlashDriver+0xfe7002d0>
    2090:	0e3c0000 	cdpeq	0, 3, cr0, cr12, cr0, {0}
    2094:	04d00000 	ldrbeq	r0, [r0], #0
    2098:	0a010000 	beq	420a0 <FlashDriver+0x402dc>
    209c:	000000e1 	andeq	r0, r0, r1, ror #1
    20a0:	012c2c01 	teqeq	ip, r1, lsl #24
    20a4:	91020000 	mrsls	r0, (UNDEF: 2)
    20a8:	06b90b6c 	ldrteq	r0, [r9], ip, ror #22
    20ac:	2f010000 	svccs	0x00010000
    20b0:	0000003e 	andeq	r0, r0, lr, lsr r0
    20b4:	0b739102 	bleq	1ce64c4 <FlashDriver+0x1ce4700>
    20b8:	0000022e 	andeq	r0, r0, lr, lsr #4
    20bc:	003e3001 	eorseq	r3, lr, r1
    20c0:	91020000 	mrsls	r0, (UNDEF: 2)
    20c4:	01530b72 	cmpeq	r3, r2, ror fp
    20c8:	32010000 	andcc	r0, r1, #0
    20cc:	0000006e 	andeq	r0, r0, lr, rrx
    20d0:	00749102 	rsbseq	r9, r4, r2, lsl #2
    20d4:	00023f00 	andeq	r3, r2, r0, lsl #30
    20d8:	35000200 	strcc	r0, [r0, #-512]	; 0xfffffe00
    20dc:	0400000d 	streq	r0, [r0], #-13
    20e0:	00001701 	andeq	r1, r0, r1, lsl #14
    20e4:	06f60100 	ldrbteq	r0, [r6], r0, lsl #2
    20e8:	00890000 	addeq	r0, r9, r0
    20ec:	0e3c0000 	cdpeq	0, 3, cr0, cr12, cr0, {0}
    20f0:	0fae0000 	svceq	0x00ae0000
    20f4:	09cc0000 	stmibeq	ip, {}^	; <UNPREDICTABLE>
    20f8:	fc020000 	stc2	0, cr0, [r2], {-0}
    20fc:	02000000 	andeq	r0, r0, #0
    2100:	00003025 	andeq	r3, r0, r5, lsr #32
    2104:	08010300 	stmdaeq	r1, {r8, r9}
    2108:	00000070 	andeq	r0, r0, r0, ror r0
    210c:	72060103 	andvc	r0, r6, #-1073741824	; 0xc0000000
    2110:	02000000 	andeq	r0, r0, #0
    2114:	00000281 	andeq	r0, r0, r1, lsl #5
    2118:	00302802 	eorseq	r2, r0, r2, lsl #16
    211c:	80020000 	andhi	r0, r2, r0
    2120:	02000002 	andeq	r0, r0, #2
    2124:	0000542a 	andeq	r5, r0, sl, lsr #8
    2128:	00300400 	eorseq	r0, r0, r0, lsl #8
    212c:	02030000 	andeq	r0, r3, #0
    2130:	00022405 	andeq	r2, r2, r5, lsl #8
    2134:	07020300 	streq	r0, [r2, -r0, lsl #6]
    2138:	00000190 	muleq	r0, r0, r1
    213c:	3e050403 	cdpcc	4, 0, cr0, cr5, cr3, {0}
    2140:	02000002 	andeq	r0, r0, #2
    2144:	00000200 	andeq	r0, r0, r0, lsl #4
    2148:	00793202 	rsbseq	r3, r9, r2, lsl #4
    214c:	04030000 	streq	r0, [r3], #-0
    2150:	0003d307 	andeq	sp, r3, r7, lsl #6
    2154:	00d70200 	sbcseq	r0, r7, r0, lsl #4
    2158:	b1030000 	mrslt	r0, (UNDEF: 3)
    215c:	0000008b 	andeq	r0, r0, fp, lsl #1
    2160:	00910405 	addseq	r0, r1, r5, lsl #8
    2164:	01060000 	mrseq	r0, (UNDEF: 6)
    2168:	00015e07 	andeq	r5, r1, r7, lsl #28
    216c:	b7032800 	strlt	r2, [r3, -r0, lsl #16]
    2170:	0000012c 	andeq	r0, r0, ip, lsr #2
    2174:	00024708 	andeq	r4, r2, r8, lsl #14
    2178:	6eb90300 	cdpvs	3, 11, cr0, cr9, cr0, {0}
    217c:	02000000 	andeq	r0, r0, #0
    2180:	33080023 	movwcc	r0, #32803	; 0x8023
    2184:	03000001 	movweq	r0, #1
    2188:	00006eba 			; <UNDEFINED> instruction: 0x00006eba
    218c:	04230200 	strteq	r0, [r3], #-512	; 0xfffffe00
    2190:	00016a08 	andeq	r6, r1, r8, lsl #20
    2194:	6ebb0300 	cdpvs	3, 11, cr0, cr11, cr0, {0}
    2198:	02000000 	andeq	r0, r0, #0
    219c:	ec080823 	stc	8, cr0, [r8], {35}	; 0x23
    21a0:	03000000 	movweq	r0, #0
    21a4:	00006ebc 			; <UNDEFINED> instruction: 0x00006ebc
    21a8:	0c230200 	sfmeq	f0, 4, [r3], #-0
    21ac:	00010108 	andeq	r0, r1, r8, lsl #2
    21b0:	6ebd0300 	cdpvs	3, 11, cr0, cr13, cr0, {0}
    21b4:	02000000 	andeq	r0, r0, #0
    21b8:	f1081023 			; <UNDEFINED> instruction: 0xf1081023
    21bc:	03000001 	movweq	r0, #1
    21c0:	00006ebe 			; <UNDEFINED> instruction: 0x00006ebe
    21c4:	14230200 	strtne	r0, [r3], #-512	; 0xfffffe00
    21c8:	00021508 	andeq	r1, r2, r8, lsl #10
    21cc:	6ebf0300 	cdpvs	3, 11, cr0, cr15, cr0, {0}
    21d0:	02000000 	andeq	r0, r0, #0
    21d4:	b8081823 	stmdalt	r8, {r0, r1, r5, fp, ip}
    21d8:	03000001 	movweq	r0, #1
    21dc:	00006ec0 	andeq	r6, r0, r0, asr #29
    21e0:	1c230200 	sfmne	f0, 4, [r3], #-0
    21e4:	00011108 	andeq	r1, r1, r8, lsl #2
    21e8:	25c10300 	strbcs	r0, [r1, #768]	; 0x300
    21ec:	02000000 	andeq	r0, r0, #0
    21f0:	e8082023 	stmda	r8, {r0, r1, r5, sp}
    21f4:	03000001 	movweq	r0, #1
    21f8:	000080c2 	andeq	r8, r0, r2, asr #1
    21fc:	24230200 	strtcs	r0, [r3], #-512	; 0xfffffe00
    2200:	01d60200 	bicseq	r0, r6, r0, lsl #4
    2204:	c3030000 	movwgt	r0, #12288	; 0x3000
    2208:	00000137 	andeq	r0, r0, r7, lsr r1
    220c:	00930405 	addseq	r0, r3, r5, lsl #8
    2210:	7a090000 	bvc	242218 <FlashDriver+0x240454>
    2214:	03000001 	movweq	r0, #1
    2218:	01490330 	cmpeq	r9, r0, lsr r3
    221c:	04050000 	streq	r0, [r5], #-0
    2220:	0000014f 	andeq	r0, r0, pc, asr #2
    2224:	006e010a 	rsbeq	r0, lr, sl, lsl #2
    2228:	01690000 	cmneq	r9, r0
    222c:	2c0b0000 	stccs	0, cr0, [fp], {-0}
    2230:	0b000001 	bleq	223c <FlashDriver+0x478>
    2234:	0000003e 	andeq	r0, r0, lr, lsr r0
    2238:	0001690b 	andeq	r6, r1, fp, lsl #18
    223c:	04050000 	streq	r0, [r5], #-0
    2240:	0000003e 	andeq	r0, r0, lr, lsr r0
    2244:	006e0405 	rsbeq	r0, lr, r5, lsl #8
    2248:	010c0000 	mrseq	r0, (UNDEF: 12)
    224c:	0000071b 	andeq	r0, r0, fp, lsl r7
    2250:	6e013201 	cdpvs	2, 0, cr3, cr1, cr1, {0}
    2254:	3c000000 	stccc	0, cr0, [r0], {-0}
    2258:	ae00000e 	cdpge	0, 0, cr0, cr0, cr14, {0}
    225c:	0800000f 	stmdaeq	r0, {r0, r1, r2, r3}
    2260:	01000005 	tsteq	r0, r5
    2264:	0000022b 	andeq	r0, r0, fp, lsr #4
    2268:	0000e10d 	andeq	lr, r0, sp, lsl #2
    226c:	2c320100 	ldfcss	f0, [r2], #-0
    2270:	02000001 	andeq	r0, r0, #1
    2274:	da0d6491 	ble	35b4c0 <FlashDriver+0x3596fc>
    2278:	01000002 	tsteq	r0, r2
    227c:	00006e33 	andeq	r6, r0, r3, lsr lr
    2280:	60910200 	addsvs	r0, r1, r0, lsl #4
    2284:	0002fd0d 	andeq	pc, r2, sp, lsl #26
    2288:	6e340100 	rsfvss	f0, f4, f0
    228c:	02000000 	andeq	r0, r0, #0
    2290:	0d0d5c91 	stceq	12, cr5, [sp, #-580]	; 0xfffffdbc
    2294:	01000007 	tsteq	r0, r7
    2298:	00016935 	andeq	r6, r1, r5, lsr r9
    229c:	58910200 	ldmpl	r1, {r9}
    22a0:	0006e20d 	andeq	lr, r6, sp, lsl #4
    22a4:	6f360100 	svcvs	0x00360100
    22a8:	02000001 	andeq	r0, r0, #1
    22ac:	ec0d0091 	stc	0, cr0, [sp], {145}	; 0x91
    22b0:	01000006 	tsteq	r0, r6
    22b4:	00016937 	andeq	r6, r1, r7, lsr r9
    22b8:	04910200 	ldreq	r0, [r1], #512	; 0x200
    22bc:	00072d0d 	andeq	r2, r7, sp, lsl #26
    22c0:	3e380100 	rsfcce	f0, f0, f0
    22c4:	02000000 	andeq	r0, r0, #0
    22c8:	a30d0891 	movwge	r0, #55441	; 0xd891
    22cc:	01000001 	tsteq	r0, r1
    22d0:	00013d39 	andeq	r3, r1, r9, lsr sp
    22d4:	0c910200 	lfmeq	f0, 4, [r1], {0}
    22d8:	0002070e 	andeq	r0, r2, lr, lsl #14
    22dc:	2b3b0100 	blcs	ec26e4 <FlashDriver+0xec0920>
    22e0:	02000002 	andeq	r0, r0, #2
    22e4:	530e6891 	movwpl	r6, #59537	; 0xe891
    22e8:	01000001 	tsteq	r0, r1
    22ec:	00006e3c 	andeq	r6, r0, ip, lsr lr
    22f0:	74910200 	ldrvc	r0, [r1], #512	; 0x200
    22f4:	0002950f 	andeq	r9, r2, pc, lsl #10
    22f8:	a29f0100 	addsge	r0, pc, #0, 2
    22fc:	0000000f 	andeq	r0, r0, pc
    2300:	00003e10 	andeq	r3, r0, r0, lsl lr
    2304:	00023b00 	andeq	r3, r2, r0, lsl #22
    2308:	023b1100 	eorseq	r1, fp, #0, 2
    230c:	000b0000 	andeq	r0, fp, r0
    2310:	ce070403 	cdpgt	4, 0, cr0, cr7, cr3, {0}
    2314:	00000000 	andeq	r0, r0, r0
    2318:	00000204 	andeq	r0, r0, r4, lsl #4
    231c:	0e0e0002 	cdpeq	0, 0, cr0, cr14, cr2, {0}
    2320:	01040000 	mrseq	r0, (UNDEF: 4)
    2324:	00000017 	andeq	r0, r0, r7, lsl r0
    2328:	00073901 	andeq	r3, r7, r1, lsl #18
    232c:	00008900 	andeq	r8, r0, r0, lsl #18
    2330:	000fb000 	andeq	fp, pc, r0
    2334:	00107200 	andseq	r7, r0, r0, lsl #4
    2338:	000a8a00 	andeq	r8, sl, r0, lsl #20
    233c:	00fc0200 	rscseq	r0, ip, r0, lsl #4
    2340:	25020000 	strcs	r0, [r2, #-0]
    2344:	00000030 	andeq	r0, r0, r0, lsr r0
    2348:	70080103 	andvc	r0, r8, r3, lsl #2
    234c:	03000000 	movweq	r0, #0
    2350:	00720601 	rsbseq	r0, r2, r1, lsl #12
    2354:	81020000 	mrshi	r0, (UNDEF: 2)
    2358:	02000002 	andeq	r0, r0, #2
    235c:	00003028 	andeq	r3, r0, r8, lsr #32
    2360:	02800200 	addeq	r0, r0, #0, 4
    2364:	2a020000 	bcs	8236c <FlashDriver+0x805a8>
    2368:	00000054 	andeq	r0, r0, r4, asr r0
    236c:	00003004 	andeq	r3, r0, r4
    2370:	05020300 	streq	r0, [r2, #-768]	; 0xfffffd00
    2374:	00000224 	andeq	r0, r0, r4, lsr #4
    2378:	90070203 	andls	r0, r7, r3, lsl #4
    237c:	03000001 	movweq	r0, #1
    2380:	023e0504 	eorseq	r0, lr, #4, 10	; 0x1000000
    2384:	00020000 	andeq	r0, r2, r0
    2388:	02000002 	andeq	r0, r0, #2
    238c:	00007932 	andeq	r7, r0, r2, lsr r9
    2390:	07040300 	streq	r0, [r4, -r0, lsl #6]
    2394:	000003d3 	ldrdeq	r0, [r0], -r3
    2398:	0000d702 	andeq	sp, r0, r2, lsl #14
    239c:	8bb10300 	blhi	fec42fa4 <FlashDriver+0xfec411e0>
    23a0:	05000000 	streq	r0, [r0, #-0]
    23a4:	00009104 	andeq	r9, r0, r4, lsl #2
    23a8:	07010600 	streq	r0, [r1, -r0, lsl #12]
    23ac:	0000015e 	andeq	r0, r0, lr, asr r1
    23b0:	2cb70328 	ldccs	3, cr0, [r7], #160	; 0xa0
    23b4:	08000001 	stmdaeq	r0, {r0}
    23b8:	00000247 	andeq	r0, r0, r7, asr #4
    23bc:	006eb903 	rsbeq	fp, lr, r3, lsl #18
    23c0:	23020000 	movwcs	r0, #8192	; 0x2000
    23c4:	01330800 	teqeq	r3, r0, lsl #16
    23c8:	ba030000 	blt	c23d0 <FlashDriver+0xc060c>
    23cc:	0000006e 	andeq	r0, r0, lr, rrx
    23d0:	08042302 	stmdaeq	r4, {r1, r8, r9, sp}
    23d4:	0000016a 	andeq	r0, r0, sl, ror #2
    23d8:	006ebb03 	rsbeq	fp, lr, r3, lsl #22
    23dc:	23020000 	movwcs	r0, #8192	; 0x2000
    23e0:	00ec0808 	rsceq	r0, ip, r8, lsl #16
    23e4:	bc030000 	stclt	0, cr0, [r3], {-0}
    23e8:	0000006e 	andeq	r0, r0, lr, rrx
    23ec:	080c2302 	stmdaeq	ip, {r1, r8, r9, sp}
    23f0:	00000101 	andeq	r0, r0, r1, lsl #2
    23f4:	006ebd03 	rsbeq	fp, lr, r3, lsl #26
    23f8:	23020000 	movwcs	r0, #8192	; 0x2000
    23fc:	01f10810 	mvnseq	r0, r0, lsl r8
    2400:	be030000 	cdplt	0, 0, cr0, cr3, cr0, {0}
    2404:	0000006e 	andeq	r0, r0, lr, rrx
    2408:	08142302 	ldmdaeq	r4, {r1, r8, r9, sp}
    240c:	00000215 	andeq	r0, r0, r5, lsl r2
    2410:	006ebf03 	rsbeq	fp, lr, r3, lsl #30
    2414:	23020000 	movwcs	r0, #8192	; 0x2000
    2418:	01b80818 			; <UNDEFINED> instruction: 0x01b80818
    241c:	c0030000 	andgt	r0, r3, r0
    2420:	0000006e 	andeq	r0, r0, lr, rrx
    2424:	081c2302 	ldmdaeq	ip, {r1, r8, r9, sp}
    2428:	00000111 	andeq	r0, r0, r1, lsl r1
    242c:	0025c103 	eoreq	ip, r5, r3, lsl #2
    2430:	23020000 	movwcs	r0, #8192	; 0x2000
    2434:	01e80820 	mvneq	r0, r0, lsr #16
    2438:	c2030000 	andgt	r0, r3, #0
    243c:	00000080 	andeq	r0, r0, r0, lsl #1
    2440:	00242302 	eoreq	r2, r4, r2, lsl #6
    2444:	0001d602 	andeq	sp, r1, r2, lsl #12
    2448:	37c30300 	strbcc	r0, [r3, r0, lsl #6]
    244c:	05000001 	streq	r0, [r0, #-1]
    2450:	00009304 	andeq	r9, r0, r4, lsl #6
    2454:	017a0900 	cmneq	sl, r0, lsl #18
    2458:	30030000 	andcc	r0, r3, r0
    245c:	00014903 	andeq	r4, r1, r3, lsl #18
    2460:	4f040500 	svcmi	0x00040500
    2464:	0a000001 	beq	2470 <FlashDriver+0x6ac>
    2468:	00006e01 	andeq	r6, r0, r1, lsl #28
    246c:	00016900 	andeq	r6, r1, r0, lsl #18
    2470:	012c0b00 	teqeq	ip, r0, lsl #22
    2474:	3e0b0000 	cdpcc	0, 0, cr0, cr11, cr0, {0}
    2478:	0b000000 	bleq	2480 <FlashDriver+0x6bc>
    247c:	00000169 	andeq	r0, r0, r9, ror #2
    2480:	3e040500 	cfsh32cc	mvfx0, mvfx4, #0
    2484:	0c000000 	stceq	0, cr0, [r0], {-0}
    2488:	00075801 	andeq	r5, r7, r1, lsl #16
    248c:	01190100 	tsteq	r9, r0, lsl #2
    2490:	0000006e 	andeq	r0, r0, lr, rrx
    2494:	00000fb0 			; <UNDEFINED> instruction: 0x00000fb0
    2498:	00001072 	andeq	r1, r0, r2, ror r0
    249c:	00000540 	andeq	r0, r0, r0, asr #10
    24a0:	0001f001 	andeq	pc, r1, r1
    24a4:	00e10d00 	rsceq	r0, r1, r0, lsl #26
    24a8:	19010000 	stmdbne	r1, {}	; <UNPREDICTABLE>
    24ac:	0000012c 	andeq	r0, r0, ip, lsr #2
    24b0:	0d649102 	stfeqp	f1, [r4, #-8]!
    24b4:	000002da 	ldrdeq	r0, [r0], -sl
    24b8:	006e1a01 	rsbeq	r1, lr, r1, lsl #20
    24bc:	91020000 	mrsls	r0, (UNDEF: 2)
    24c0:	02fd0d60 	rscseq	r0, sp, #96, 26	; 0x1800
    24c4:	1b010000 	blne	424cc <FlashDriver+0x40708>
    24c8:	0000006e 	andeq	r0, r0, lr, rrx
    24cc:	0d5c9102 	ldfeqp	f1, [ip, #-8]
    24d0:	0000082a 	andeq	r0, r0, sl, lsr #16
    24d4:	006e1c01 	rsbeq	r1, lr, r1, lsl #24
    24d8:	91020000 	mrsls	r0, (UNDEF: 2)
    24dc:	01a30d58 			; <UNDEFINED> instruction: 0x01a30d58
    24e0:	1d010000 	stcne	0, cr0, [r1, #-0]
    24e4:	0000013d 	andeq	r0, r0, sp, lsr r1
    24e8:	0e009102 	mvfeqs	f1, f2
    24ec:	00000207 	andeq	r0, r0, r7, lsl #4
    24f0:	01f01f01 	mvnseq	r1, r1, lsl #30
    24f4:	91020000 	mrsls	r0, (UNDEF: 2)
    24f8:	01530e6c 	cmpeq	r3, ip, ror #28
    24fc:	20010000 	andcs	r0, r1, r0
    2500:	0000006e 	andeq	r0, r0, lr, rrx
    2504:	00749102 	rsbseq	r9, r4, r2, lsl #2
    2508:	00003e0f 	andeq	r3, r0, pc, lsl #28
    250c:	00020000 	andeq	r0, r2, r0
    2510:	02001000 	andeq	r1, r0, #0
    2514:	00070000 	andeq	r0, r7, r0
    2518:	ce070403 	cdpgt	4, 0, cr0, cr7, cr3, {0}
    251c:	00000000 	andeq	r0, r0, r0
    2520:	000001f2 	strdeq	r0, [r0], -r2
    2524:	0eda0002 	cdpeq	0, 13, cr0, cr10, cr2, {0}
    2528:	01040000 	mrseq	r0, (UNDEF: 4)
    252c:	00000017 	andeq	r0, r0, r7, lsl r0
    2530:	00078901 	andeq	r8, r7, r1, lsl #18
    2534:	00008900 	andeq	r8, r0, r0, lsl #18
    2538:	00107400 	andseq	r7, r0, r0, lsl #8
    253c:	00114000 	andseq	r4, r1, r0
    2540:	000b1900 	andeq	r1, fp, r0, lsl #18
    2544:	00fc0200 	rscseq	r0, ip, r0, lsl #4
    2548:	25020000 	strcs	r0, [r2, #-0]
    254c:	00000030 	andeq	r0, r0, r0, lsr r0
    2550:	70080103 	andvc	r0, r8, r3, lsl #2
    2554:	03000000 	movweq	r0, #0
    2558:	00720601 	rsbseq	r0, r2, r1, lsl #12
    255c:	81020000 	mrshi	r0, (UNDEF: 2)
    2560:	02000002 	andeq	r0, r0, #2
    2564:	00003028 	andeq	r3, r0, r8, lsr #32
    2568:	05020300 	streq	r0, [r2, #-768]	; 0xfffffd00
    256c:	00000224 	andeq	r0, r0, r4, lsr #4
    2570:	90070203 	andls	r0, r7, r3, lsl #4
    2574:	03000001 	movweq	r0, #1
    2578:	023e0504 	eorseq	r0, lr, #4, 10	; 0x1000000
    257c:	00020000 	andeq	r0, r2, r0
    2580:	02000002 	andeq	r0, r0, #2
    2584:	00006932 	andeq	r6, r0, r2, lsr r9
    2588:	07040300 	streq	r0, [r4, -r0, lsl #6]
    258c:	000003d3 	ldrdeq	r0, [r0], -r3
    2590:	0000d702 	andeq	sp, r0, r2, lsl #14
    2594:	7bb10300 	blvc	fec4319c <FlashDriver+0xfec413d8>
    2598:	04000000 	streq	r0, [r0], #-0
    259c:	00008104 	andeq	r8, r0, r4, lsl #2
    25a0:	06010500 	streq	r0, [r1], -r0, lsl #10
    25a4:	0000015e 	andeq	r0, r0, lr, asr r1
    25a8:	1cb70328 	ldcne	3, cr0, [r7], #160	; 0xa0
    25ac:	07000001 	streq	r0, [r0, -r1]
    25b0:	00000247 	andeq	r0, r0, r7, asr #4
    25b4:	005eb903 	subseq	fp, lr, r3, lsl #18
    25b8:	23020000 	movwcs	r0, #8192	; 0x2000
    25bc:	01330700 	teqeq	r3, r0, lsl #14
    25c0:	ba030000 	blt	c25c8 <FlashDriver+0xc0804>
    25c4:	0000005e 	andeq	r0, r0, lr, asr r0
    25c8:	07042302 	streq	r2, [r4, -r2, lsl #6]
    25cc:	0000016a 	andeq	r0, r0, sl, ror #2
    25d0:	005ebb03 	subseq	fp, lr, r3, lsl #22
    25d4:	23020000 	movwcs	r0, #8192	; 0x2000
    25d8:	00ec0708 	rsceq	r0, ip, r8, lsl #14
    25dc:	bc030000 	stclt	0, cr0, [r3], {-0}
    25e0:	0000005e 	andeq	r0, r0, lr, asr r0
    25e4:	070c2302 	streq	r2, [ip, -r2, lsl #6]
    25e8:	00000101 	andeq	r0, r0, r1, lsl #2
    25ec:	005ebd03 	subseq	fp, lr, r3, lsl #26
    25f0:	23020000 	movwcs	r0, #8192	; 0x2000
    25f4:	01f10710 	mvnseq	r0, r0, lsl r7
    25f8:	be030000 	cdplt	0, 0, cr0, cr3, cr0, {0}
    25fc:	0000005e 	andeq	r0, r0, lr, asr r0
    2600:	07142302 	ldreq	r2, [r4, -r2, lsl #6]
    2604:	00000215 	andeq	r0, r0, r5, lsl r2
    2608:	005ebf03 	subseq	fp, lr, r3, lsl #30
    260c:	23020000 	movwcs	r0, #8192	; 0x2000
    2610:	01b80718 			; <UNDEFINED> instruction: 0x01b80718
    2614:	c0030000 	andgt	r0, r3, r0
    2618:	0000005e 	andeq	r0, r0, lr, asr r0
    261c:	071c2302 	ldreq	r2, [ip, -r2, lsl #6]
    2620:	00000111 	andeq	r0, r0, r1, lsl r1
    2624:	0025c103 	eoreq	ip, r5, r3, lsl #2
    2628:	23020000 	movwcs	r0, #8192	; 0x2000
    262c:	01e80720 	mvneq	r0, r0, lsr #14
    2630:	c2030000 	andgt	r0, r3, #0
    2634:	00000070 	andeq	r0, r0, r0, ror r0
    2638:	00242302 	eoreq	r2, r4, r2, lsl #6
    263c:	0001d602 	andeq	sp, r1, r2, lsl #12
    2640:	27c30300 	strbcs	r0, [r3, r0, lsl #6]
    2644:	04000001 	streq	r0, [r0], #-1
    2648:	00008304 	andeq	r8, r0, r4, lsl #6
    264c:	017a0800 	cmneq	sl, r0, lsl #16
    2650:	30030000 	andcc	r0, r3, r0
    2654:	00013903 	andeq	r3, r1, r3, lsl #18
    2658:	3f040400 	svccc	0x00040400
    265c:	09000001 	stmdbeq	r0, {r0}
    2660:	00005e01 	andeq	r5, r0, r1, lsl #28
    2664:	00015900 	andeq	r5, r1, r0, lsl #18
    2668:	011c0a00 	tsteq	ip, r0, lsl #20
    266c:	3e0a0000 	cdpcc	0, 0, cr0, cr10, cr0, {0}
    2670:	0a000000 	beq	2678 <FlashDriver+0x8b4>
    2674:	00000159 	andeq	r0, r0, r9, asr r1
    2678:	3e040400 	cfcpyscc	mvf0, mvf4
    267c:	0b000000 	bleq	2684 <FlashDriver+0x8c0>
    2680:	00076d01 	andeq	r6, r7, r1, lsl #26
    2684:	012f0100 	teqeq	pc, r0, lsl #2
    2688:	0000005e 	andeq	r0, r0, lr, asr r0
    268c:	00001074 	andeq	r1, r0, r4, ror r0
    2690:	00001140 	andeq	r1, r0, r0, asr #2
    2694:	00000578 	andeq	r0, r0, r8, ror r5
    2698:	0001de01 	andeq	sp, r1, r1, lsl #28
    269c:	00e10c00 	rsceq	r0, r1, r0, lsl #24
    26a0:	2f010000 	svccs	0x00010000
    26a4:	0000011c 	andeq	r0, r0, ip, lsl r1
    26a8:	0c5c9102 	ldfeqp	f1, [ip], {2}
    26ac:	0000077e 	andeq	r0, r0, lr, ror r7
    26b0:	01593001 	cmpeq	r9, r1
    26b4:	91020000 	mrsls	r0, (UNDEF: 2)
    26b8:	01a30c58 			; <UNDEFINED> instruction: 0x01a30c58
    26bc:	31010000 	mrscc	r0, (UNDEF: 1)
    26c0:	0000012d 	andeq	r0, r0, sp, lsr #2
    26c4:	0d549102 	ldfeqp	f1, [r4, #-8]
    26c8:	00000503 	andeq	r0, r0, r3, lsl #10
    26cc:	003e3301 	eorseq	r3, lr, r1, lsl #6
    26d0:	91020000 	mrsls	r0, (UNDEF: 2)
    26d4:	02070d77 	andeq	r0, r7, #7616	; 0x1dc0
    26d8:	37010000 	strcc	r0, [r1, -r0]
    26dc:	000001de 	ldrdeq	r0, [r0], -lr
    26e0:	0d649102 	stfeqp	f1, [r4, #-8]!
    26e4:	00000153 	andeq	r0, r0, r3, asr r1
    26e8:	005e3901 	subseq	r3, lr, r1, lsl #18
    26ec:	91020000 	mrsls	r0, (UNDEF: 2)
    26f0:	00690e70 	rsbeq	r0, r9, r0, ror lr
    26f4:	003e3a01 	eorseq	r3, lr, r1, lsl #20
    26f8:	91020000 	mrsls	r0, (UNDEF: 2)
    26fc:	3e0f006f 	cdpcc	0, 0, cr0, cr15, cr15, {3}
    2700:	ee000000 	cdp	0, 0, cr0, cr0, cr0, {0}
    2704:	10000001 	andne	r0, r0, r1
    2708:	000001ee 	andeq	r0, r0, lr, ror #3
    270c:	04030007 	streq	r0, [r3], #-7
    2710:	0000ce07 	andeq	ip, r0, r7, lsl #28
    2714:	02280000 	eoreq	r0, r8, #0
    2718:	00020000 	andeq	r0, r2, r0
    271c:	00000fae 	andeq	r0, r0, lr, lsr #31
    2720:	00170104 	andseq	r0, r7, r4, lsl #2
    2724:	ce010000 	cdpgt	0, 0, cr0, cr1, cr0, {0}
    2728:	89000007 	stmdbhi	r0, {r0, r1, r2}
    272c:	40000000 	andmi	r0, r0, r0
    2730:	a8000011 	stmdage	r0, {r0, r4}
    2734:	a2000012 	andge	r0, r0, #18
    2738:	0200000b 	andeq	r0, r0, #11
    273c:	000000fc 	strdeq	r0, [r0], -ip
    2740:	00302502 	eorseq	r2, r0, r2, lsl #10
    2744:	01030000 	mrseq	r0, (UNDEF: 3)
    2748:	00007008 	andeq	r7, r0, r8
    274c:	06010300 	streq	r0, [r1], -r0, lsl #6
    2750:	00000072 	andeq	r0, r0, r2, ror r0
    2754:	00028102 	andeq	r8, r2, r2, lsl #2
    2758:	30280200 	eorcc	r0, r8, r0, lsl #4
    275c:	02000000 	andeq	r0, r0, #0
    2760:	00000280 	andeq	r0, r0, r0, lsl #5
    2764:	00542a02 	subseq	r2, r4, r2, lsl #20
    2768:	30040000 	andcc	r0, r4, r0
    276c:	03000000 	movweq	r0, #0
    2770:	02240502 	eoreq	r0, r4, #8388608	; 0x800000
    2774:	b3020000 	movwlt	r0, #8192	; 0x2000
    2778:	02000007 	andeq	r0, r0, #7
    277c:	00006b2d 	andeq	r6, r0, sp, lsr #22
    2780:	07020300 	streq	r0, [r2, -r0, lsl #6]
    2784:	00000190 	muleq	r0, r0, r1
    2788:	3e050403 	cdpcc	4, 0, cr0, cr5, cr3, {0}
    278c:	02000002 	andeq	r0, r0, #2
    2790:	00000200 	andeq	r0, r0, r0, lsl #4
    2794:	00843202 	addeq	r3, r4, r2, lsl #4
    2798:	04030000 	streq	r0, [r3], #-0
    279c:	0003d307 	andeq	sp, r3, r7, lsl #6
    27a0:	00d70200 	sbcseq	r0, r7, r0, lsl #4
    27a4:	b1030000 	mrslt	r0, (UNDEF: 3)
    27a8:	00000096 	muleq	r0, r6, r0
    27ac:	009c0405 	addseq	r0, ip, r5, lsl #8
    27b0:	01060000 	mrseq	r0, (UNDEF: 6)
    27b4:	00015e07 	andeq	r5, r1, r7, lsl #28
    27b8:	b7032800 	strlt	r2, [r3, -r0, lsl #16]
    27bc:	00000137 	andeq	r0, r0, r7, lsr r1
    27c0:	00024708 	andeq	r4, r2, r8, lsl #14
    27c4:	79b90300 	ldmibvc	r9!, {r8, r9}
    27c8:	02000000 	andeq	r0, r0, #0
    27cc:	33080023 	movwcc	r0, #32803	; 0x8023
    27d0:	03000001 	movweq	r0, #1
    27d4:	000079ba 			; <UNDEFINED> instruction: 0x000079ba
    27d8:	04230200 	strteq	r0, [r3], #-512	; 0xfffffe00
    27dc:	00016a08 	andeq	r6, r1, r8, lsl #20
    27e0:	79bb0300 	ldmibvc	fp!, {r8, r9}
    27e4:	02000000 	andeq	r0, r0, #0
    27e8:	ec080823 	stc	8, cr0, [r8], {35}	; 0x23
    27ec:	03000000 	movweq	r0, #0
    27f0:	000079bc 			; <UNDEFINED> instruction: 0x000079bc
    27f4:	0c230200 	sfmeq	f0, 4, [r3], #-0
    27f8:	00010108 	andeq	r0, r1, r8, lsl #2
    27fc:	79bd0300 	ldmibvc	sp!, {r8, r9}
    2800:	02000000 	andeq	r0, r0, #0
    2804:	f1081023 			; <UNDEFINED> instruction: 0xf1081023
    2808:	03000001 	movweq	r0, #1
    280c:	000079be 			; <UNDEFINED> instruction: 0x000079be
    2810:	14230200 	strtne	r0, [r3], #-512	; 0xfffffe00
    2814:	00021508 	andeq	r1, r2, r8, lsl #10
    2818:	79bf0300 	ldmibvc	pc!, {r8, r9}	; <UNPREDICTABLE>
    281c:	02000000 	andeq	r0, r0, #0
    2820:	b8081823 	stmdalt	r8, {r0, r1, r5, fp, ip}
    2824:	03000001 	movweq	r0, #1
    2828:	000079c0 	andeq	r7, r0, r0, asr #19
    282c:	1c230200 	sfmne	f0, 4, [r3], #-0
    2830:	00011108 	andeq	r1, r1, r8, lsl #2
    2834:	25c10300 	strbcs	r0, [r1, #768]	; 0x300
    2838:	02000000 	andeq	r0, r0, #0
    283c:	e8082023 	stmda	r8, {r0, r1, r5, sp}
    2840:	03000001 	movweq	r0, #1
    2844:	00008bc2 	andeq	r8, r0, r2, asr #23
    2848:	24230200 	strtcs	r0, [r3], #-512	; 0xfffffe00
    284c:	01d60200 	bicseq	r0, r6, r0, lsl #4
    2850:	c3030000 	movwgt	r0, #12288	; 0x3000
    2854:	00000142 	andeq	r0, r0, r2, asr #2
    2858:	009e0405 	addseq	r0, lr, r5, lsl #8
    285c:	7a090000 	bvc	242864 <FlashDriver+0x240aa0>
    2860:	03000001 	movweq	r0, #1
    2864:	01540330 	cmpeq	r4, r0, lsr r3
    2868:	04050000 	streq	r0, [r5], #-0
    286c:	0000015a 	andeq	r0, r0, sl, asr r1
    2870:	0079010a 	rsbseq	r0, r9, sl, lsl #2
    2874:	01740000 	cmneq	r4, r0
    2878:	370b0000 	strcc	r0, [fp, -r0]
    287c:	0b000001 	bleq	2888 <FlashDriver+0xac4>
    2880:	0000003e 	andeq	r0, r0, lr, lsr r0
    2884:	0001740b 	andeq	r7, r1, fp, lsl #8
    2888:	04050000 	streq	r0, [r5], #-0
    288c:	0000003e 	andeq	r0, r0, lr, lsr r0
    2890:	07ba010c 	ldreq	r0, [sl, ip, lsl #2]!
    2894:	2b010000 	blcs	4289c <FlashDriver+0x40ad8>
    2898:	00007901 	andeq	r7, r0, r1, lsl #18
    289c:	00114000 	andseq	r4, r1, r0
    28a0:	0012a800 	andseq	sl, r2, r0, lsl #16
    28a4:	0005b000 	andeq	fp, r5, r0
    28a8:	02140100 	andseq	r0, r4, #0, 2
    28ac:	e10d0000 	mrs	r0, (UNDEF: 13)
    28b0:	01000000 	mrseq	r0, (UNDEF: 0)
    28b4:	0001372b 	andeq	r3, r1, fp, lsr #14
    28b8:	5c910200 	lfmpl	f0, 4, [r1], {0}
    28bc:	0002da0d 	andeq	sp, r2, sp, lsl #20
    28c0:	792c0100 	stmdbvc	ip!, {r8}
    28c4:	02000000 	andeq	r0, r0, #0
    28c8:	ac0d5891 	stcge	8, cr5, [sp], {145}	; 0x91
    28cc:	01000007 	tsteq	r0, r7
    28d0:	0000602d 	andeq	r6, r0, sp, lsr #32
    28d4:	56910200 	ldrpl	r0, [r1], r0, lsl #4
    28d8:	0001a30d 	andeq	sl, r1, sp, lsl #6
    28dc:	482e0100 	stmdami	lr!, {r8}
    28e0:	02000001 	andeq	r0, r0, #1
    28e4:	070e5091 			; <UNDEFINED> instruction: 0x070e5091
    28e8:	01000002 	tsteq	r0, r2
    28ec:	00021430 	andeq	r1, r2, r0, lsr r4
    28f0:	64910200 	ldrvs	r0, [r1], #512	; 0x200
    28f4:	0001530e 	andeq	r5, r1, lr, lsl #6
    28f8:	79310100 	ldmdbvc	r1!, {r8}
    28fc:	02000000 	andeq	r0, r0, #0
    2900:	f00e7491 			; <UNDEFINED> instruction: 0xf00e7491
    2904:	01000003 	tsteq	r0, r3
    2908:	00007932 	andeq	r7, r0, r2, lsr r9
    290c:	70910200 	addsvc	r0, r1, r0, lsl #4
    2910:	00079f0e 	andeq	r9, r7, lr, lsl #30
    2914:	79330100 	ldmdbvc	r3!, {r8}
    2918:	02000000 	andeq	r0, r0, #0
    291c:	950f6c91 	strls	r6, [pc, #-3217]	; 1c93 <_PFlashSwapCtl+0x23>
    2920:	01000002 	tsteq	r0, r2
    2924:	00129c8b 	andseq	r9, r2, fp, lsl #25
    2928:	3e100000 	cdpcc	0, 1, cr0, cr0, cr0, {0}
    292c:	24000000 	strcs	r0, [r0], #-0
    2930:	11000002 	tstne	r0, r2
    2934:	00000224 	andeq	r0, r0, r4, lsr #4
    2938:	04030005 	streq	r0, [r3], #-5
    293c:	0000ce07 	andeq	ip, r0, r7, lsl #28
    2940:	02020000 	andeq	r0, r2, #0
    2944:	00020000 	andeq	r0, r2, r0
    2948:	00001087 	andeq	r1, r0, r7, lsl #1
    294c:	00170104 	andseq	r0, r7, r4, lsl #2
    2950:	f5010000 			; <UNDEFINED> instruction: 0xf5010000
    2954:	89000007 	stmdbhi	r0, {r0, r1, r2}
    2958:	a8000000 	stmdage	r0, {}	; <UNPREDICTABLE>
    295c:	7a000012 	bvc	29ac <FlashDriver+0xbe8>
    2960:	55000013 	strpl	r0, [r0, #-19]	; 0xffffffed
    2964:	0200000c 	andeq	r0, r0, #12
    2968:	000000fc 	strdeq	r0, [r0], -ip
    296c:	00302502 	eorseq	r2, r0, r2, lsl #10
    2970:	01030000 	mrseq	r0, (UNDEF: 3)
    2974:	00007008 	andeq	r7, r0, r8
    2978:	06010300 	streq	r0, [r1], -r0, lsl #6
    297c:	00000072 	andeq	r0, r0, r2, ror r0
    2980:	00028102 	andeq	r8, r2, r2, lsl #2
    2984:	30280200 	eorcc	r0, r8, r0, lsl #4
    2988:	02000000 	andeq	r0, r0, #0
    298c:	00000280 	andeq	r0, r0, r0, lsl #5
    2990:	00542a02 	subseq	r2, r4, r2, lsl #20
    2994:	30040000 	andcc	r0, r4, r0
    2998:	03000000 	movweq	r0, #0
    299c:	02240502 	eoreq	r0, r4, #8388608	; 0x800000
    29a0:	02030000 	andeq	r0, r3, #0
    29a4:	00019007 	andeq	r9, r1, r7
    29a8:	05040300 	streq	r0, [r4, #-768]	; 0xfffffd00
    29ac:	0000023e 	andeq	r0, r0, lr, lsr r2
    29b0:	00020002 	andeq	r0, r2, r2
    29b4:	79320200 	ldmdbvc	r2!, {r9}
    29b8:	03000000 	movweq	r0, #0
    29bc:	03d30704 	bicseq	r0, r3, #4, 14	; 0x100000
    29c0:	d7020000 	strle	r0, [r2, -r0]
    29c4:	03000000 	movweq	r0, #0
    29c8:	00008bb1 			; <UNDEFINED> instruction: 0x00008bb1
    29cc:	91040500 	tstls	r4, r0, lsl #10
    29d0:	06000000 	streq	r0, [r0], -r0
    29d4:	015e0701 	cmpeq	lr, r1, lsl #14
    29d8:	03280000 	teqeq	r8, #0
    29dc:	00012cb7 			; <UNDEFINED> instruction: 0x00012cb7
    29e0:	02470800 	subeq	r0, r7, #0, 16
    29e4:	b9030000 	stmdblt	r3, {}	; <UNPREDICTABLE>
    29e8:	0000006e 	andeq	r0, r0, lr, rrx
    29ec:	08002302 	stmdaeq	r0, {r1, r8, r9, sp}
    29f0:	00000133 	andeq	r0, r0, r3, lsr r1
    29f4:	006eba03 	rsbeq	fp, lr, r3, lsl #20
    29f8:	23020000 	movwcs	r0, #8192	; 0x2000
    29fc:	016a0804 	cmneq	sl, r4, lsl #16
    2a00:	bb030000 	bllt	c2a08 <FlashDriver+0xc0c44>
    2a04:	0000006e 	andeq	r0, r0, lr, rrx
    2a08:	08082302 	stmdaeq	r8, {r1, r8, r9, sp}
    2a0c:	000000ec 	andeq	r0, r0, ip, ror #1
    2a10:	006ebc03 	rsbeq	fp, lr, r3, lsl #24
    2a14:	23020000 	movwcs	r0, #8192	; 0x2000
    2a18:	0101080c 	tsteq	r1, ip, lsl #16
    2a1c:	bd030000 	stclt	0, cr0, [r3, #-0]
    2a20:	0000006e 	andeq	r0, r0, lr, rrx
    2a24:	08102302 	ldmdaeq	r0, {r1, r8, r9, sp}
    2a28:	000001f1 	strdeq	r0, [r0], -r1
    2a2c:	006ebe03 	rsbeq	fp, lr, r3, lsl #28
    2a30:	23020000 	movwcs	r0, #8192	; 0x2000
    2a34:	02150814 	andseq	r0, r5, #20, 16	; 0x140000
    2a38:	bf030000 	svclt	0x00030000
    2a3c:	0000006e 	andeq	r0, r0, lr, rrx
    2a40:	08182302 	ldmdaeq	r8, {r1, r8, r9, sp}
    2a44:	000001b8 			; <UNDEFINED> instruction: 0x000001b8
    2a48:	006ec003 	rsbeq	ip, lr, r3
    2a4c:	23020000 	movwcs	r0, #8192	; 0x2000
    2a50:	0111081c 	tsteq	r1, ip, lsl r8
    2a54:	c1030000 	mrsgt	r0, (UNDEF: 3)
    2a58:	00000025 	andeq	r0, r0, r5, lsr #32
    2a5c:	08202302 	stmdaeq	r0!, {r1, r8, r9, sp}
    2a60:	000001e8 	andeq	r0, r0, r8, ror #3
    2a64:	0080c203 	addeq	ip, r0, r3, lsl #4
    2a68:	23020000 	movwcs	r0, #8192	; 0x2000
    2a6c:	d6020024 	strle	r0, [r2], -r4, lsr #32
    2a70:	03000001 	movweq	r0, #1
    2a74:	000137c3 	andeq	r3, r1, r3, asr #15
    2a78:	93040500 	movwls	r0, #17664	; 0x4500
    2a7c:	09000000 	stmdbeq	r0, {}	; <UNPREDICTABLE>
    2a80:	0000017a 	andeq	r0, r0, sl, ror r1
    2a84:	49033003 	stmdbmi	r3, {r0, r1, ip, sp}
    2a88:	05000001 	streq	r0, [r0, #-1]
    2a8c:	00014f04 	andeq	r4, r1, r4, lsl #30
    2a90:	6e010a00 	vmlavs.f32	s0, s2, s0
    2a94:	69000000 	stmdbvs	r0, {}	; <UNPREDICTABLE>
    2a98:	0b000001 	bleq	2aa4 <FlashDriver+0xce0>
    2a9c:	0000012c 	andeq	r0, r0, ip, lsr #2
    2aa0:	00003e0b 	andeq	r3, r0, fp, lsl #28
    2aa4:	01690b00 	cmneq	r9, r0, lsl #22
    2aa8:	05000000 	streq	r0, [r0, #-0]
    2aac:	00003e04 	andeq	r3, r0, r4, lsl #28
    2ab0:	e7010c00 	str	r0, [r1, -r0, lsl #24]
    2ab4:	01000007 	tsteq	r0, r7
    2ab8:	006e012e 	rsbeq	r0, lr, lr, lsr #2
    2abc:	12a80000 	adcne	r0, r8, #0
    2ac0:	137a0000 	cmnne	sl, #0
    2ac4:	05e80000 	strbeq	r0, [r8, #0]!
    2ac8:	ee010000 	cdp	0, 0, cr0, cr1, cr0, {0}
    2acc:	0d000001 	stceq	0, cr0, [r0, #-4]
    2ad0:	000000e1 	andeq	r0, r0, r1, ror #1
    2ad4:	012c2e01 	teqeq	ip, r1, lsl #28
    2ad8:	91020000 	mrsls	r0, (UNDEF: 2)
    2adc:	077e0d64 	ldrbeq	r0, [lr, -r4, ror #26]!
    2ae0:	2f010000 	svccs	0x00010000
    2ae4:	00000169 	andeq	r0, r0, r9, ror #2
    2ae8:	0d609102 	stfeqp	f1, [r0, #-8]!
    2aec:	000001a3 	andeq	r0, r0, r3, lsr #3
    2af0:	013d3001 	teqeq	sp, r1
    2af4:	91020000 	mrsls	r0, (UNDEF: 2)
    2af8:	05030e5c 	streq	r0, [r3, #-3676]	; 0xfffff1a4
    2afc:	32010000 	andcc	r0, r1, #0
    2b00:	0000003e 	andeq	r0, r0, lr, lsr r0
    2b04:	0e779102 	expeqs	f1, f2
    2b08:	00000207 	andeq	r0, r0, r7, lsl #4
    2b0c:	01ee3301 	mvneq	r3, r1, lsl #6
    2b10:	91020000 	mrsls	r0, (UNDEF: 2)
    2b14:	01530e6c 	cmpeq	r3, ip, ror #28
    2b18:	34010000 	strcc	r0, [r1], #-0
    2b1c:	0000006e 	andeq	r0, r0, lr, rrx
    2b20:	0f709102 	svceq	0x00709102
    2b24:	35010069 	strcc	r0, [r1, #-105]	; 0xffffff97
    2b28:	0000003e 	andeq	r0, r0, lr, lsr r0
    2b2c:	006f9102 	rsbeq	r9, pc, r2, lsl #2
    2b30:	00003e10 	andeq	r3, r0, r0, lsl lr
    2b34:	0001fe00 	andeq	pc, r1, r0, lsl #28
    2b38:	01fe1100 	mvnseq	r1, r0, lsl #2
    2b3c:	00010000 	andeq	r0, r1, r0
    2b40:	ce070403 	cdpgt	4, 0, cr0, cr7, cr3, {0}
    2b44:	00000000 	andeq	r0, r0, r0
    2b48:	00000201 	andeq	r0, r0, r1, lsl #4
    2b4c:	11620002 	cmnne	r2, r2
    2b50:	01040000 	mrseq	r0, (UNDEF: 4)
    2b54:	00000017 	andeq	r0, r0, r7, lsl r0
    2b58:	00080801 	andeq	r0, r8, r1, lsl #16
    2b5c:	00008900 	andeq	r8, r0, r0, lsl #18
    2b60:	00137c00 	andseq	r7, r3, r0, lsl #24
    2b64:	00148c00 	andseq	r8, r4, r0, lsl #24
    2b68:	000cd500 	andeq	sp, ip, r0, lsl #10
    2b6c:	00fc0200 	rscseq	r0, ip, r0, lsl #4
    2b70:	25020000 	strcs	r0, [r2, #-0]
    2b74:	00000030 	andeq	r0, r0, r0, lsr r0
    2b78:	70080103 	andvc	r0, r8, r3, lsl #2
    2b7c:	03000000 	movweq	r0, #0
    2b80:	00720601 	rsbseq	r0, r2, r1, lsl #12
    2b84:	81020000 	mrshi	r0, (UNDEF: 2)
    2b88:	02000002 	andeq	r0, r0, #2
    2b8c:	00003028 	andeq	r3, r0, r8, lsr #32
    2b90:	02800200 	addeq	r0, r0, #0, 4
    2b94:	2a020000 	bcs	82b9c <FlashDriver+0x80dd8>
    2b98:	00000054 	andeq	r0, r0, r4, asr r0
    2b9c:	00003004 	andeq	r3, r0, r4
    2ba0:	05020300 	streq	r0, [r2, #-768]	; 0xfffffd00
    2ba4:	00000224 	andeq	r0, r0, r4, lsr #4
    2ba8:	90070203 	andls	r0, r7, r3, lsl #4
    2bac:	03000001 	movweq	r0, #1
    2bb0:	023e0504 	eorseq	r0, lr, #4, 10	; 0x1000000
    2bb4:	00020000 	andeq	r0, r2, r0
    2bb8:	02000002 	andeq	r0, r0, #2
    2bbc:	00007932 	andeq	r7, r0, r2, lsr r9
    2bc0:	07040300 	streq	r0, [r4, -r0, lsl #6]
    2bc4:	000003d3 	ldrdeq	r0, [r0], -r3
    2bc8:	0000d702 	andeq	sp, r0, r2, lsl #14
    2bcc:	8bb10300 	blhi	fec437d4 <FlashDriver+0xfec41a10>
    2bd0:	05000000 	streq	r0, [r0, #-0]
    2bd4:	00009104 	andeq	r9, r0, r4, lsl #2
    2bd8:	07010600 	streq	r0, [r1, -r0, lsl #12]
    2bdc:	0000015e 	andeq	r0, r0, lr, asr r1
    2be0:	2cb70328 	ldccs	3, cr0, [r7], #160	; 0xa0
    2be4:	08000001 	stmdaeq	r0, {r0}
    2be8:	00000247 	andeq	r0, r0, r7, asr #4
    2bec:	006eb903 	rsbeq	fp, lr, r3, lsl #18
    2bf0:	23020000 	movwcs	r0, #8192	; 0x2000
    2bf4:	01330800 	teqeq	r3, r0, lsl #16
    2bf8:	ba030000 	blt	c2c00 <FlashDriver+0xc0e3c>
    2bfc:	0000006e 	andeq	r0, r0, lr, rrx
    2c00:	08042302 	stmdaeq	r4, {r1, r8, r9, sp}
    2c04:	0000016a 	andeq	r0, r0, sl, ror #2
    2c08:	006ebb03 	rsbeq	fp, lr, r3, lsl #22
    2c0c:	23020000 	movwcs	r0, #8192	; 0x2000
    2c10:	00ec0808 	rsceq	r0, ip, r8, lsl #16
    2c14:	bc030000 	stclt	0, cr0, [r3], {-0}
    2c18:	0000006e 	andeq	r0, r0, lr, rrx
    2c1c:	080c2302 	stmdaeq	ip, {r1, r8, r9, sp}
    2c20:	00000101 	andeq	r0, r0, r1, lsl #2
    2c24:	006ebd03 	rsbeq	fp, lr, r3, lsl #26
    2c28:	23020000 	movwcs	r0, #8192	; 0x2000
    2c2c:	01f10810 	mvnseq	r0, r0, lsl r8
    2c30:	be030000 	cdplt	0, 0, cr0, cr3, cr0, {0}
    2c34:	0000006e 	andeq	r0, r0, lr, rrx
    2c38:	08142302 	ldmdaeq	r4, {r1, r8, r9, sp}
    2c3c:	00000215 	andeq	r0, r0, r5, lsl r2
    2c40:	006ebf03 	rsbeq	fp, lr, r3, lsl #30
    2c44:	23020000 	movwcs	r0, #8192	; 0x2000
    2c48:	01b80818 			; <UNDEFINED> instruction: 0x01b80818
    2c4c:	c0030000 	andgt	r0, r3, r0
    2c50:	0000006e 	andeq	r0, r0, lr, rrx
    2c54:	081c2302 	ldmdaeq	ip, {r1, r8, r9, sp}
    2c58:	00000111 	andeq	r0, r0, r1, lsl r1
    2c5c:	0025c103 	eoreq	ip, r5, r3, lsl #2
    2c60:	23020000 	movwcs	r0, #8192	; 0x2000
    2c64:	01e80820 	mvneq	r0, r0, lsr #16
    2c68:	c2030000 	andgt	r0, r3, #0
    2c6c:	00000080 	andeq	r0, r0, r0, lsl #1
    2c70:	00242302 	eoreq	r2, r4, r2, lsl #6
    2c74:	0001d602 	andeq	sp, r1, r2, lsl #12
    2c78:	37c30300 	strbcc	r0, [r3, r0, lsl #6]
    2c7c:	05000001 	streq	r0, [r0, #-1]
    2c80:	00009304 	andeq	r9, r0, r4, lsl #6
    2c84:	017a0900 	cmneq	sl, r0, lsl #18
    2c88:	30030000 	andcc	r0, r3, r0
    2c8c:	00014903 	andeq	r4, r1, r3, lsl #18
    2c90:	4f040500 	svcmi	0x00040500
    2c94:	0a000001 	beq	2ca0 <FlashDriver+0xedc>
    2c98:	00006e01 	andeq	r6, r0, r1, lsl #28
    2c9c:	00016900 	andeq	r6, r1, r0, lsl #18
    2ca0:	012c0b00 	teqeq	ip, r0, lsl #22
    2ca4:	3e0b0000 	cdpcc	0, 0, cr0, cr11, cr0, {0}
    2ca8:	0b000000 	bleq	2cb0 <FlashDriver+0xeec>
    2cac:	00000169 	andeq	r0, r0, r9, ror #2
    2cb0:	3e040500 	cfsh32cc	mvfx0, mvfx4, #0
    2cb4:	0c000000 	stceq	0, cr0, [r0], {-0}
    2cb8:	00081f01 	andeq	r1, r8, r1, lsl #30
    2cbc:	012f0100 	teqeq	pc, r0, lsl #2
    2cc0:	0000006e 	andeq	r0, r0, lr, rrx
    2cc4:	0000137c 	andeq	r1, r0, ip, ror r3
    2cc8:	0000148c 	andeq	r1, r0, ip, lsl #9
    2ccc:	00000620 	andeq	r0, r0, r0, lsr #12
    2cd0:	0001ed01 	andeq	lr, r1, r1, lsl #26
    2cd4:	00e10d00 	rsceq	r0, r1, r0, lsl #26
    2cd8:	2f010000 	svccs	0x00010000
    2cdc:	0000012c 	andeq	r0, r0, ip, lsr #2
    2ce0:	0d649102 	stfeqp	f1, [r4, #-8]!
    2ce4:	000002da 	ldrdeq	r0, [r0], -sl
    2ce8:	006e3001 	rsbeq	r3, lr, r1
    2cec:	91020000 	mrsls	r0, (UNDEF: 2)
    2cf0:	077e0d60 	ldrbeq	r0, [lr, -r0, ror #26]!
    2cf4:	31010000 	mrscc	r0, (UNDEF: 1)
    2cf8:	00000169 	andeq	r0, r0, r9, ror #2
    2cfc:	0d5c9102 	ldfeqp	f1, [ip, #-8]
    2d00:	000001a3 	andeq	r0, r0, r3, lsr #3
    2d04:	013d3201 	teqeq	sp, r1, lsl #4
    2d08:	91020000 	mrsls	r0, (UNDEF: 2)
    2d0c:	02070e58 	andeq	r0, r7, #88, 28	; 0x580
    2d10:	34010000 	strcc	r0, [r1], #-0
    2d14:	000001ed 	andeq	r0, r0, sp, ror #3
    2d18:	0e689102 	lgneqe	f1, f2
    2d1c:	00000153 	andeq	r0, r0, r3, asr r1
    2d20:	006e3501 	rsbeq	r3, lr, r1, lsl #10
    2d24:	91020000 	mrsls	r0, (UNDEF: 2)
    2d28:	02950f74 	addseq	r0, r5, #116, 30	; 0x1d0
    2d2c:	7f010000 	svcvc	0x00010000
    2d30:	00001480 	andeq	r1, r0, r0, lsl #9
    2d34:	003e1000 	eorseq	r1, lr, r0
    2d38:	01fd0000 	mvnseq	r0, r0
    2d3c:	fd110000 	ldc2	0, cr0, [r1, #-0]
    2d40:	08000001 	stmdaeq	r0, {r0}
    2d44:	07040300 	streq	r0, [r4, -r0, lsl #6]
    2d48:	000000ce 	andeq	r0, r0, lr, asr #1
    2d4c:	0001f600 	andeq	pc, r1, r0, lsl #12
    2d50:	3b000200 	blcc	3558 <FlashDriver+0x1794>
    2d54:	04000012 	streq	r0, [r0], #-18	; 0xffffffee
    2d58:	00001701 	andeq	r1, r0, r1, lsl #14
    2d5c:	084f0100 	stmdaeq	pc, {r8}^	; <UNPREDICTABLE>
    2d60:	00890000 	addeq	r0, r9, r0
    2d64:	148c0000 	strne	r0, [ip], #0
    2d68:	150a0000 	strne	r0, [sl, #-0]
    2d6c:	0d7b0000 	ldcleq	0, cr0, [fp, #-0]
    2d70:	fc020000 	stc2	0, cr0, [r2], {-0}
    2d74:	02000000 	andeq	r0, r0, #0
    2d78:	00003025 	andeq	r3, r0, r5, lsr #32
    2d7c:	08010300 	stmdaeq	r1, {r8, r9}
    2d80:	00000070 	andeq	r0, r0, r0, ror r0
    2d84:	72060103 	andvc	r0, r6, #-1073741824	; 0xc0000000
    2d88:	02000000 	andeq	r0, r0, #0
    2d8c:	00000281 	andeq	r0, r0, r1, lsl #5
    2d90:	00302802 	eorseq	r2, r0, r2, lsl #16
    2d94:	80020000 	andhi	r0, r2, r0
    2d98:	02000002 	andeq	r0, r0, #2
    2d9c:	0000542a 	andeq	r5, r0, sl, lsr #8
    2da0:	00300400 	eorseq	r0, r0, r0, lsl #8
    2da4:	02030000 	andeq	r0, r3, #0
    2da8:	00022405 	andeq	r2, r2, r5, lsl #8
    2dac:	07020300 	streq	r0, [r2, -r0, lsl #6]
    2db0:	00000190 	muleq	r0, r0, r1
    2db4:	3e050403 	cdpcc	4, 0, cr0, cr5, cr3, {0}
    2db8:	02000002 	andeq	r0, r0, #2
    2dbc:	00000200 	andeq	r0, r0, r0, lsl #4
    2dc0:	00793202 	rsbseq	r3, r9, r2, lsl #4
    2dc4:	04030000 	streq	r0, [r3], #-0
    2dc8:	0003d307 	andeq	sp, r3, r7, lsl #6
    2dcc:	00d70200 	sbcseq	r0, r7, r0, lsl #4
    2dd0:	b1030000 	mrslt	r0, (UNDEF: 3)
    2dd4:	0000008b 	andeq	r0, r0, fp, lsl #1
    2dd8:	00910405 	addseq	r0, r1, r5, lsl #8
    2ddc:	01060000 	mrseq	r0, (UNDEF: 6)
    2de0:	00015e07 	andeq	r5, r1, r7, lsl #28
    2de4:	b7032800 	strlt	r2, [r3, -r0, lsl #16]
    2de8:	0000012c 	andeq	r0, r0, ip, lsr #2
    2dec:	00024708 	andeq	r4, r2, r8, lsl #14
    2df0:	6eb90300 	cdpvs	3, 11, cr0, cr9, cr0, {0}
    2df4:	02000000 	andeq	r0, r0, #0
    2df8:	33080023 	movwcc	r0, #32803	; 0x8023
    2dfc:	03000001 	movweq	r0, #1
    2e00:	00006eba 			; <UNDEFINED> instruction: 0x00006eba
    2e04:	04230200 	strteq	r0, [r3], #-512	; 0xfffffe00
    2e08:	00016a08 	andeq	r6, r1, r8, lsl #20
    2e0c:	6ebb0300 	cdpvs	3, 11, cr0, cr11, cr0, {0}
    2e10:	02000000 	andeq	r0, r0, #0
    2e14:	ec080823 	stc	8, cr0, [r8], {35}	; 0x23
    2e18:	03000000 	movweq	r0, #0
    2e1c:	00006ebc 			; <UNDEFINED> instruction: 0x00006ebc
    2e20:	0c230200 	sfmeq	f0, 4, [r3], #-0
    2e24:	00010108 	andeq	r0, r1, r8, lsl #2
    2e28:	6ebd0300 	cdpvs	3, 11, cr0, cr13, cr0, {0}
    2e2c:	02000000 	andeq	r0, r0, #0
    2e30:	f1081023 			; <UNDEFINED> instruction: 0xf1081023
    2e34:	03000001 	movweq	r0, #1
    2e38:	00006ebe 			; <UNDEFINED> instruction: 0x00006ebe
    2e3c:	14230200 	strtne	r0, [r3], #-512	; 0xfffffe00
    2e40:	00021508 	andeq	r1, r2, r8, lsl #10
    2e44:	6ebf0300 	cdpvs	3, 11, cr0, cr15, cr0, {0}
    2e48:	02000000 	andeq	r0, r0, #0
    2e4c:	b8081823 	stmdalt	r8, {r0, r1, r5, fp, ip}
    2e50:	03000001 	movweq	r0, #1
    2e54:	00006ec0 	andeq	r6, r0, r0, asr #29
    2e58:	1c230200 	sfmne	f0, 4, [r3], #-0
    2e5c:	00011108 	andeq	r1, r1, r8, lsl #2
    2e60:	25c10300 	strbcs	r0, [r1, #768]	; 0x300
    2e64:	02000000 	andeq	r0, r0, #0
    2e68:	e8082023 	stmda	r8, {r0, r1, r5, sp}
    2e6c:	03000001 	movweq	r0, #1
    2e70:	000080c2 	andeq	r8, r0, r2, asr #1
    2e74:	24230200 	strtcs	r0, [r3], #-512	; 0xfffffe00
    2e78:	01d60200 	bicseq	r0, r6, r0, lsl #4
    2e7c:	c3030000 	movwgt	r0, #12288	; 0x3000
    2e80:	00000137 	andeq	r0, r0, r7, lsr r1
    2e84:	00930405 	addseq	r0, r3, r5, lsl #8
    2e88:	7a090000 	bvc	242e90 <FlashDriver+0x2410cc>
    2e8c:	03000001 	movweq	r0, #1
    2e90:	01490330 	cmpeq	r9, r0, lsr r3
    2e94:	04050000 	streq	r0, [r5], #-0
    2e98:	0000014f 	andeq	r0, r0, pc, asr #2
    2e9c:	006e010a 	rsbeq	r0, lr, sl, lsl #2
    2ea0:	01690000 	cmneq	r9, r0
    2ea4:	2c0b0000 	stccs	0, cr0, [fp], {-0}
    2ea8:	0b000001 	bleq	2eb4 <FlashDriver+0x10f0>
    2eac:	0000003e 	andeq	r0, r0, lr, lsr r0
    2eb0:	0001690b 	andeq	r6, r1, fp, lsl #18
    2eb4:	04050000 	streq	r0, [r5], #-0
    2eb8:	0000003e 	andeq	r0, r0, lr, lsr r0
    2ebc:	0831010c 	ldmdaeq	r1!, {r2, r3, r8}
    2ec0:	29010000 	stmdbcs	r1, {}	; <UNPREDICTABLE>
    2ec4:	00006e01 	andeq	r6, r0, r1, lsl #28
    2ec8:	00148c00 	andseq	r8, r4, r0, lsl #24
    2ecc:	00150a00 	andseq	r0, r5, r0, lsl #20
    2ed0:	00065800 	andeq	r5, r6, r0, lsl #16
    2ed4:	01e20100 	mvneq	r0, r0, lsl #2
    2ed8:	e10d0000 	mrs	r0, (UNDEF: 13)
    2edc:	01000000 	mrseq	r0, (UNDEF: 0)
    2ee0:	00012c29 	andeq	r2, r1, r9, lsr #24
    2ee4:	5c910200 	lfmpl	f0, 4, [r1], {0}
    2ee8:	0008450d 	andeq	r4, r8, sp, lsl #10
    2eec:	692a0100 	stmdbvs	sl!, {r8}
    2ef0:	02000001 	andeq	r0, r0, #1
    2ef4:	a30d5891 	movwge	r5, #55441	; 0xd891
    2ef8:	01000001 	tsteq	r0, r1
    2efc:	00013d2b 	andeq	r3, r1, fp, lsr #26
    2f00:	54910200 	ldrpl	r0, [r1], #512	; 0x200
    2f04:	0002070e 	andeq	r0, r2, lr, lsl #14
    2f08:	e22d0100 	eor	r0, sp, #0, 2
    2f0c:	02000001 	andeq	r0, r0, #1
    2f10:	b80e6491 	stmdalt	lr, {r0, r4, r7, sl, sp, lr}
    2f14:	01000002 	tsteq	r0, r2
    2f18:	00003e2e 	andeq	r3, r0, lr, lsr #28
    2f1c:	73910200 	orrsvc	r0, r1, #0, 4
    2f20:	0001530e 	andeq	r5, r1, lr, lsl #6
    2f24:	6e2f0100 	sufvse	f0, f7, f0
    2f28:	02000000 	andeq	r0, r0, #0
    2f2c:	0f007491 	svceq	0x00007491
    2f30:	0000003e 	andeq	r0, r0, lr, lsr r0
    2f34:	000001f2 	strdeq	r0, [r0], -r2
    2f38:	0001f210 	andeq	pc, r1, r0, lsl r2	; <UNPREDICTABLE>
    2f3c:	03000b00 	movweq	r0, #2816	; 0xb00
    2f40:	00ce0704 	sbceq	r0, lr, r4, lsl #14
    2f44:	7f000000 	svcvc	0x00000000
    2f48:	02000001 	andeq	r0, r0, #1
    2f4c:	00130700 	andseq	r0, r3, r0, lsl #14
    2f50:	17010400 	strne	r0, [r1, -r0, lsl #8]
    2f54:	01000000 	mrseq	r0, (UNDEF: 0)
    2f58:	00000880 	andeq	r0, r0, r0, lsl #17
    2f5c:	00000089 	andeq	r0, r0, r9, lsl #1
    2f60:	0000150c 	andeq	r1, r0, ip, lsl #10
    2f64:	00001558 	andeq	r1, r0, r8, asr r5
    2f68:	00000df5 	strdeq	r0, [r0], -r5
    2f6c:	0000fc02 	andeq	pc, r0, r2, lsl #24
    2f70:	30250200 	eorcc	r0, r5, r0, lsl #4
    2f74:	03000000 	movweq	r0, #0
    2f78:	00700801 	rsbseq	r0, r0, r1, lsl #16
    2f7c:	01030000 	mrseq	r0, (UNDEF: 3)
    2f80:	00007206 	andeq	r7, r0, r6, lsl #4
    2f84:	02810200 	addeq	r0, r1, #0, 4
    2f88:	28020000 	stmdacs	r2, {}	; <UNPREDICTABLE>
    2f8c:	00000030 	andeq	r0, r0, r0, lsr r0
    2f90:	00028002 	andeq	r8, r2, r2
    2f94:	542a0200 	strtpl	r0, [sl], #-512	; 0xfffffe00
    2f98:	04000000 	streq	r0, [r0], #-0
    2f9c:	00000030 	andeq	r0, r0, r0, lsr r0
    2fa0:	24050203 	strcs	r0, [r5], #-515	; 0xfffffdfd
    2fa4:	03000002 	movweq	r0, #2
    2fa8:	01900702 	orrseq	r0, r0, r2, lsl #14
    2fac:	04030000 	streq	r0, [r3], #-0
    2fb0:	00023e05 	andeq	r3, r2, r5, lsl #28
    2fb4:	02000200 	andeq	r0, r0, #0, 4
    2fb8:	32020000 	andcc	r0, r2, #0
    2fbc:	00000079 	andeq	r0, r0, r9, ror r0
    2fc0:	d3070403 	movwle	r0, #29699	; 0x7403
    2fc4:	02000003 	andeq	r0, r0, #3
    2fc8:	000000d7 	ldrdeq	r0, [r0], -r7
    2fcc:	008bb103 	addeq	fp, fp, r3, lsl #2
    2fd0:	04050000 	streq	r0, [r5], #-0
    2fd4:	00000091 	muleq	r0, r1, r0
    2fd8:	5e070106 	adfpls	f0, f7, f6
    2fdc:	28000001 	stmdacs	r0, {r0}
    2fe0:	012cb703 	teqeq	ip, r3, lsl #14
    2fe4:	47080000 	strmi	r0, [r8, -r0]
    2fe8:	03000002 	movweq	r0, #2
    2fec:	00006eb9 			; <UNDEFINED> instruction: 0x00006eb9
    2ff0:	00230200 	eoreq	r0, r3, r0, lsl #4
    2ff4:	00013308 	andeq	r3, r1, r8, lsl #6
    2ff8:	6eba0300 	cdpvs	3, 11, cr0, cr10, cr0, {0}
    2ffc:	02000000 	andeq	r0, r0, #0
    3000:	6a080423 	bvs	204094 <FlashDriver+0x2022d0>
    3004:	03000001 	movweq	r0, #1
    3008:	00006ebb 			; <UNDEFINED> instruction: 0x00006ebb
    300c:	08230200 	stmdaeq	r3!, {r9}
    3010:	0000ec08 	andeq	lr, r0, r8, lsl #24
    3014:	6ebc0300 	cdpvs	3, 11, cr0, cr12, cr0, {0}
    3018:	02000000 	andeq	r0, r0, #0
    301c:	01080c23 	tsteq	r8, r3, lsr #24
    3020:	03000001 	movweq	r0, #1
    3024:	00006ebd 			; <UNDEFINED> instruction: 0x00006ebd
    3028:	10230200 	eorne	r0, r3, r0, lsl #4
    302c:	0001f108 	andeq	pc, r1, r8, lsl #2
    3030:	6ebe0300 	cdpvs	3, 11, cr0, cr14, cr0, {0}
    3034:	02000000 	andeq	r0, r0, #0
    3038:	15081423 	strne	r1, [r8, #-1059]	; 0xfffffbdd
    303c:	03000002 	movweq	r0, #2
    3040:	00006ebf 			; <UNDEFINED> instruction: 0x00006ebf
    3044:	18230200 	stmdane	r3!, {r9}
    3048:	0001b808 	andeq	fp, r1, r8, lsl #16
    304c:	6ec00300 	cdpvs	3, 12, cr0, cr0, cr0, {0}
    3050:	02000000 	andeq	r0, r0, #0
    3054:	11081c23 	tstne	r8, r3, lsr #24
    3058:	03000001 	movweq	r0, #1
    305c:	000025c1 	andeq	r2, r0, r1, asr #11
    3060:	20230200 	eorcs	r0, r3, r0, lsl #4
    3064:	0001e808 	andeq	lr, r1, r8, lsl #16
    3068:	80c20300 	sbchi	r0, r2, r0, lsl #6
    306c:	02000000 	andeq	r0, r0, #0
    3070:	02002423 	andeq	r2, r0, #587202560	; 0x23000000
    3074:	000001d6 	ldrdeq	r0, [r0], -r6
    3078:	0137c303 	teqeq	r7, r3, lsl #6
    307c:	04050000 	streq	r0, [r5], #-0
    3080:	00000093 	muleq	r0, r3, r0
    3084:	08680109 	stmdaeq	r8!, {r0, r3, r8}^
    3088:	29010000 	stmdbcs	r1, {}	; <UNPREDICTABLE>
    308c:	00006e01 	andeq	r6, r0, r1, lsl #28
    3090:	00150c00 	andseq	r0, r5, r0, lsl #24
    3094:	00155800 	andseq	r5, r5, r0, lsl #16
    3098:	00069000 	andeq	r9, r6, r0
    309c:	e10a0100 	mrs	r0, (UNDEF: 26)
    30a0:	01000000 	mrseq	r0, (UNDEF: 0)
    30a4:	00012c29 	andeq	r2, r1, r9, lsr #24
    30a8:	6c910200 	lfmvs	f0, 4, [r1], {0}
    30ac:	0006360a 	andeq	r3, r6, sl, lsl #12
    30b0:	3e290100 	sufcce	f0, f1, f0
    30b4:	02000000 	andeq	r0, r0, #0
    30b8:	b80b6b91 	stmdalt	fp, {r0, r4, r7, r8, r9, fp, sp, lr}
    30bc:	01000002 	tsteq	r0, r2
    30c0:	00003e2c 	andeq	r3, r0, ip, lsr #28
    30c4:	77910200 	ldrvc	r0, [r1, r0, lsl #4]
    30c8:	01d80000 	bicseq	r0, r8, r0
    30cc:	00020000 	andeq	r0, r2, r0
    30d0:	000013a0 	andeq	r1, r0, r0, lsr #7
    30d4:	00170104 	andseq	r0, r7, r4, lsl #2
    30d8:	b1010000 	mrslt	r0, (UNDEF: 1)
    30dc:	89000008 	stmdbhi	r0, {r3}
    30e0:	58000000 	stmdapl	r0, {}	; <UNPREDICTABLE>
    30e4:	92000015 	andls	r0, r0, #21
    30e8:	6b000015 	blvs	3144 <FlashDriver+0x1380>
    30ec:	0200000e 	andeq	r0, r0, #14
    30f0:	000000fc 	strdeq	r0, [r0], -ip
    30f4:	00302502 	eorseq	r2, r0, r2, lsl #10
    30f8:	01030000 	mrseq	r0, (UNDEF: 3)
    30fc:	00007008 	andeq	r7, r0, r8
    3100:	06010300 	streq	r0, [r1], -r0, lsl #6
    3104:	00000072 	andeq	r0, r0, r2, ror r0
    3108:	00028102 	andeq	r8, r2, r2, lsl #2
    310c:	30280200 	eorcc	r0, r8, r0, lsl #4
    3110:	03000000 	movweq	r0, #0
    3114:	02240502 	eoreq	r0, r4, #8388608	; 0x800000
    3118:	02030000 	andeq	r0, r3, #0
    311c:	00019007 	andeq	r9, r1, r7
    3120:	05040300 	streq	r0, [r4, #-768]	; 0xfffffd00
    3124:	0000023e 	andeq	r0, r0, lr, lsr r2
    3128:	00020002 	andeq	r0, r2, r2
    312c:	69320200 	ldmdbvs	r2!, {r9}
    3130:	03000000 	movweq	r0, #0
    3134:	03d30704 	bicseq	r0, r3, #4, 14	; 0x100000
    3138:	d7020000 	strle	r0, [r2, -r0]
    313c:	03000000 	movweq	r0, #0
    3140:	00007bb1 			; <UNDEFINED> instruction: 0x00007bb1
    3144:	81040400 	tsthi	r4, r0, lsl #8
    3148:	05000000 	streq	r0, [r0, #-0]
    314c:	015e0601 	cmpeq	lr, r1, lsl #12
    3150:	03280000 	teqeq	r8, #0
    3154:	00011cb7 			; <UNDEFINED> instruction: 0x00011cb7
    3158:	02470700 	subeq	r0, r7, #0, 14
    315c:	b9030000 	stmdblt	r3, {}	; <UNPREDICTABLE>
    3160:	0000005e 	andeq	r0, r0, lr, asr r0
    3164:	07002302 	streq	r2, [r0, -r2, lsl #6]
    3168:	00000133 	andeq	r0, r0, r3, lsr r1
    316c:	005eba03 	subseq	fp, lr, r3, lsl #20
    3170:	23020000 	movwcs	r0, #8192	; 0x2000
    3174:	016a0704 	cmneq	sl, r4, lsl #14
    3178:	bb030000 	bllt	c3180 <FlashDriver+0xc13bc>
    317c:	0000005e 	andeq	r0, r0, lr, asr r0
    3180:	07082302 	streq	r2, [r8, -r2, lsl #6]
    3184:	000000ec 	andeq	r0, r0, ip, ror #1
    3188:	005ebc03 	subseq	fp, lr, r3, lsl #24
    318c:	23020000 	movwcs	r0, #8192	; 0x2000
    3190:	0101070c 	tsteq	r1, ip, lsl #14
    3194:	bd030000 	stclt	0, cr0, [r3, #-0]
    3198:	0000005e 	andeq	r0, r0, lr, asr r0
    319c:	07102302 	ldreq	r2, [r0, -r2, lsl #6]
    31a0:	000001f1 	strdeq	r0, [r0], -r1
    31a4:	005ebe03 	subseq	fp, lr, r3, lsl #28
    31a8:	23020000 	movwcs	r0, #8192	; 0x2000
    31ac:	02150714 	andseq	r0, r5, #20, 14	; 0x500000
    31b0:	bf030000 	svclt	0x00030000
    31b4:	0000005e 	andeq	r0, r0, lr, asr r0
    31b8:	07182302 	ldreq	r2, [r8, -r2, lsl #6]
    31bc:	000001b8 			; <UNDEFINED> instruction: 0x000001b8
    31c0:	005ec003 	subseq	ip, lr, r3
    31c4:	23020000 	movwcs	r0, #8192	; 0x2000
    31c8:	0111071c 	tsteq	r1, ip, lsl r7
    31cc:	c1030000 	mrsgt	r0, (UNDEF: 3)
    31d0:	00000025 	andeq	r0, r0, r5, lsr #32
    31d4:	07202302 	streq	r2, [r0, -r2, lsl #6]!
    31d8:	000001e8 	andeq	r0, r0, r8, ror #3
    31dc:	0070c203 	rsbseq	ip, r0, r3, lsl #4
    31e0:	23020000 	movwcs	r0, #8192	; 0x2000
    31e4:	d6020024 	strle	r0, [r2], -r4, lsr #32
    31e8:	03000001 	movweq	r0, #1
    31ec:	000127c3 	andeq	r2, r1, r3, asr #15
    31f0:	83040400 	movwhi	r0, #17408	; 0x4400
    31f4:	08000000 	stmdaeq	r0, {}	; <UNPREDICTABLE>
    31f8:	0000017a 	andeq	r0, r0, sl, ror r1
    31fc:	39033003 	stmdbcc	r3, {r0, r1, ip, sp}
    3200:	04000001 	streq	r0, [r0], #-1
    3204:	00013f04 	andeq	r3, r1, r4, lsl #30
    3208:	5e010900 	cdppl	9, 0, cr0, cr1, cr0, {0}
    320c:	59000000 	stmdbpl	r0, {}	; <UNPREDICTABLE>
    3210:	0a000001 	beq	321c <FlashDriver+0x1458>
    3214:	0000011c 	andeq	r0, r0, ip, lsl r1
    3218:	00003e0a 	andeq	r3, r0, sl, lsl #28
    321c:	01590a00 	cmpeq	r9, r0, lsl #20
    3220:	04000000 	streq	r0, [r0], #-0
    3224:	00003e04 	andeq	r3, r0, r4, lsl #28
    3228:	9d010b00 	vstrls	d0, [r1, #-0]
    322c:	01000008 	tsteq	r0, r8
    3230:	005e012b 	subseq	r0, lr, fp, lsr #2
    3234:	15580000 	ldrbne	r0, [r8, #-0]
    3238:	15920000 	ldrne	r0, [r2]
    323c:	06c80000 	strbeq	r0, [r8], r0
    3240:	c4010000 	strgt	r0, [r1], #-0
    3244:	0c000001 	stceq	0, cr0, [r0], {1}
    3248:	000000e1 	andeq	r0, r0, r1, ror #1
    324c:	011c2b01 	tsteq	ip, r1, lsl #22
    3250:	91020000 	mrsls	r0, (UNDEF: 2)
    3254:	072d0c6c 	streq	r0, [sp, -ip, ror #24]!
    3258:	2c010000 	stccs	0, cr0, [r1], {-0}
    325c:	0000003e 	andeq	r0, r0, lr, lsr r0
    3260:	0c6b9102 	stfeqp	f1, [fp], #-8
    3264:	000001a3 	andeq	r0, r0, r3, lsr #3
    3268:	012d2d01 	teqeq	sp, r1, lsl #26
    326c:	91020000 	mrsls	r0, (UNDEF: 2)
    3270:	02070d64 	andeq	r0, r7, #100, 26	; 0x1900
    3274:	2f010000 	svccs	0x00010000
    3278:	000001c4 	andeq	r0, r0, r4, asr #3
    327c:	0d709102 	ldfeqp	f1, [r0, #-8]!
    3280:	00000153 	andeq	r0, r0, r3, asr r1
    3284:	005e3001 	subseq	r3, lr, r1
    3288:	91020000 	mrsls	r0, (UNDEF: 2)
    328c:	3e0e0074 	mcrcc	0, 0, r0, cr14, cr4, {3}
    3290:	d4000000 	strle	r0, [r0], #-0
    3294:	0f000001 	svceq	0x00000001
    3298:	000001d4 	ldrdeq	r0, [r0], -r4
    329c:	04030001 	streq	r0, [r3], #-1
    32a0:	0000ce07 	andeq	ip, r0, r7, lsl #28
    32a4:	01f10000 	mvnseq	r0, r0
    32a8:	00020000 	andeq	r0, r2, r0
    32ac:	00001465 	andeq	r1, r0, r5, ror #8
    32b0:	00170104 	andseq	r0, r7, r4, lsl #2
    32b4:	db010000 	blle	432bc <FlashDriver+0x414f8>
    32b8:	89000008 	stmdbhi	r0, {r3}
    32bc:	94000000 	strls	r0, [r0], #-0
    32c0:	52000015 	andpl	r0, r0, #21
    32c4:	dc000016 	stcle	0, cr0, [r0], {22}
    32c8:	0200000e 	andeq	r0, r0, #14
    32cc:	000000fc 	strdeq	r0, [r0], -ip
    32d0:	00302502 	eorseq	r2, r0, r2, lsl #10
    32d4:	01030000 	mrseq	r0, (UNDEF: 3)
    32d8:	00007008 	andeq	r7, r0, r8
    32dc:	06010300 	streq	r0, [r1], -r0, lsl #6
    32e0:	00000072 	andeq	r0, r0, r2, ror r0
    32e4:	00028102 	andeq	r8, r2, r2, lsl #2
    32e8:	30280200 	eorcc	r0, r8, r0, lsl #4
    32ec:	03000000 	movweq	r0, #0
    32f0:	02240502 	eoreq	r0, r4, #8388608	; 0x800000
    32f4:	02030000 	andeq	r0, r3, #0
    32f8:	00019007 	andeq	r9, r1, r7
    32fc:	05040300 	streq	r0, [r4, #-768]	; 0xfffffd00
    3300:	0000023e 	andeq	r0, r0, lr, lsr r2
    3304:	00020002 	andeq	r0, r2, r2
    3308:	69320200 	ldmdbvs	r2!, {r9}
    330c:	03000000 	movweq	r0, #0
    3310:	03d30704 	bicseq	r0, r3, #4, 14	; 0x100000
    3314:	d7020000 	strle	r0, [r2, -r0]
    3318:	03000000 	movweq	r0, #0
    331c:	00007bb1 			; <UNDEFINED> instruction: 0x00007bb1
    3320:	81040400 	tsthi	r4, r0, lsl #8
    3324:	05000000 	streq	r0, [r0, #-0]
    3328:	015e0601 	cmpeq	lr, r1, lsl #12
    332c:	03280000 	teqeq	r8, #0
    3330:	00011cb7 			; <UNDEFINED> instruction: 0x00011cb7
    3334:	02470700 	subeq	r0, r7, #0, 14
    3338:	b9030000 	stmdblt	r3, {}	; <UNPREDICTABLE>
    333c:	0000005e 	andeq	r0, r0, lr, asr r0
    3340:	07002302 	streq	r2, [r0, -r2, lsl #6]
    3344:	00000133 	andeq	r0, r0, r3, lsr r1
    3348:	005eba03 	subseq	fp, lr, r3, lsl #20
    334c:	23020000 	movwcs	r0, #8192	; 0x2000
    3350:	016a0704 	cmneq	sl, r4, lsl #14
    3354:	bb030000 	bllt	c335c <FlashDriver+0xc1598>
    3358:	0000005e 	andeq	r0, r0, lr, asr r0
    335c:	07082302 	streq	r2, [r8, -r2, lsl #6]
    3360:	000000ec 	andeq	r0, r0, ip, ror #1
    3364:	005ebc03 	subseq	fp, lr, r3, lsl #24
    3368:	23020000 	movwcs	r0, #8192	; 0x2000
    336c:	0101070c 	tsteq	r1, ip, lsl #14
    3370:	bd030000 	stclt	0, cr0, [r3, #-0]
    3374:	0000005e 	andeq	r0, r0, lr, asr r0
    3378:	07102302 	ldreq	r2, [r0, -r2, lsl #6]
    337c:	000001f1 	strdeq	r0, [r0], -r1
    3380:	005ebe03 	subseq	fp, lr, r3, lsl #28
    3384:	23020000 	movwcs	r0, #8192	; 0x2000
    3388:	02150714 	andseq	r0, r5, #20, 14	; 0x500000
    338c:	bf030000 	svclt	0x00030000
    3390:	0000005e 	andeq	r0, r0, lr, asr r0
    3394:	07182302 	ldreq	r2, [r8, -r2, lsl #6]
    3398:	000001b8 			; <UNDEFINED> instruction: 0x000001b8
    339c:	005ec003 	subseq	ip, lr, r3
    33a0:	23020000 	movwcs	r0, #8192	; 0x2000
    33a4:	0111071c 	tsteq	r1, ip, lsl r7
    33a8:	c1030000 	mrsgt	r0, (UNDEF: 3)
    33ac:	00000025 	andeq	r0, r0, r5, lsr #32
    33b0:	07202302 	streq	r2, [r0, -r2, lsl #6]!
    33b4:	000001e8 	andeq	r0, r0, r8, ror #3
    33b8:	0070c203 	rsbseq	ip, r0, r3, lsl #4
    33bc:	23020000 	movwcs	r0, #8192	; 0x2000
    33c0:	d6020024 	strle	r0, [r2], -r4, lsr #32
    33c4:	03000001 	movweq	r0, #1
    33c8:	000127c3 	andeq	r2, r1, r3, asr #15
    33cc:	83040400 	movwhi	r0, #17408	; 0x4400
    33d0:	08000000 	stmdaeq	r0, {}	; <UNPREDICTABLE>
    33d4:	0000017a 	andeq	r0, r0, sl, ror r1
    33d8:	39033003 	stmdbcc	r3, {r0, r1, ip, sp}
    33dc:	04000001 	streq	r0, [r0], #-1
    33e0:	00013f04 	andeq	r3, r1, r4, lsl #30
    33e4:	5e010900 	cdppl	9, 0, cr0, cr1, cr0, {0}
    33e8:	59000000 	stmdbpl	r0, {}	; <UNPREDICTABLE>
    33ec:	0a000001 	beq	33f8 <FlashDriver+0x1634>
    33f0:	0000011c 	andeq	r0, r0, ip, lsl r1
    33f4:	00003e0a 	andeq	r3, r0, sl, lsl #28
    33f8:	01590a00 	cmpeq	r9, r0, lsl #20
    33fc:	04000000 	streq	r0, [r0], #-0
    3400:	00003e04 	andeq	r3, r0, r4, lsl #28
    3404:	ca010b00 	bgt	4600c <FlashDriver+0x44248>
    3408:	01000008 	tsteq	r0, r8
    340c:	005e012b 	subseq	r0, lr, fp, lsr #2
    3410:	15940000 	ldrne	r0, [r4]
    3414:	16520000 	ldrbne	r0, [r2], -r0
    3418:	07000000 	streq	r0, [r0, -r0]
    341c:	dd010000 	stcle	0, cr0, [r1, #-0]
    3420:	0c000001 	stceq	0, cr0, [r0], {1}
    3424:	000000e1 	andeq	r0, r0, r1, ror #1
    3428:	011c2b01 	tsteq	ip, r1, lsl #22
    342c:	91020000 	mrsls	r0, (UNDEF: 2)
    3430:	02da0c64 	sbcseq	r0, sl, #100, 24	; 0x6400
    3434:	2c010000 	stccs	0, cr0, [r1], {-0}
    3438:	0000005e 	andeq	r0, r0, lr, asr r0
    343c:	0c609102 	stfeqp	f1, [r0], #-8
    3440:	0000072d 	andeq	r0, r0, sp, lsr #14
    3444:	003e2d01 	eorseq	r2, lr, r1, lsl #26
    3448:	91020000 	mrsls	r0, (UNDEF: 2)
    344c:	01a30c5f 			; <UNDEFINED> instruction: 0x01a30c5f
    3450:	2e010000 	cdpcs	0, 0, cr0, cr1, cr0, {0}
    3454:	0000012d 	andeq	r0, r0, sp, lsr #2
    3458:	0d589102 	ldfeqp	f1, [r8, #-8]
    345c:	00000207 	andeq	r0, r0, r7, lsl #4
    3460:	01dd3001 	bicseq	r3, sp, r1
    3464:	91020000 	mrsls	r0, (UNDEF: 2)
    3468:	01530d6c 	cmpeq	r3, ip, ror #26
    346c:	31010000 	mrscc	r0, (UNDEF: 1)
    3470:	0000005e 	andeq	r0, r0, lr, asr r0
    3474:	0e749102 	expeqs	f1, f2
    3478:	00000295 	muleq	r0, r5, r2
    347c:	16465f01 	strbne	r5, [r6], -r1, lsl #30
    3480:	0f000000 	svceq	0x00000000
    3484:	0000003e 	andeq	r0, r0, lr, lsr r0
    3488:	000001ed 	andeq	r0, r0, sp, ror #3
    348c:	0001ed10 	andeq	lr, r1, r0, lsl sp
    3490:	03000400 	movweq	r0, #1024	; 0x400
    3494:	00ce0704 	sbceq	r0, lr, r4, lsl #14
    3498:	26000000 	strcs	r0, [r0], -r0
    349c:	02000002 	andeq	r0, r0, #2
    34a0:	00153700 	andseq	r3, r5, r0, lsl #14
    34a4:	17010400 	strne	r0, [r1, -r0, lsl #8]
    34a8:	01000000 	mrseq	r0, (UNDEF: 0)
    34ac:	00000904 	andeq	r0, r0, r4, lsl #18
    34b0:	00000089 	andeq	r0, r0, r9, lsl #1
    34b4:	00001654 	andeq	r1, r0, r4, asr r6
    34b8:	00001796 	muleq	r0, r6, r7
    34bc:	00000f77 	andeq	r0, r0, r7, ror pc
    34c0:	0000fc02 	andeq	pc, r0, r2, lsl #24
    34c4:	30250200 	eorcc	r0, r5, r0, lsl #4
    34c8:	03000000 	movweq	r0, #0
    34cc:	00700801 	rsbseq	r0, r0, r1, lsl #16
    34d0:	01030000 	mrseq	r0, (UNDEF: 3)
    34d4:	00007206 	andeq	r7, r0, r6, lsl #4
    34d8:	02810200 	addeq	r0, r1, #0, 4
    34dc:	28020000 	stmdacs	r2, {}	; <UNPREDICTABLE>
    34e0:	00000030 	andeq	r0, r0, r0, lsr r0
    34e4:	24050203 	strcs	r0, [r5], #-515	; 0xfffffdfd
    34e8:	02000002 	andeq	r0, r0, #2
    34ec:	000007b3 			; <UNDEFINED> instruction: 0x000007b3
    34f0:	005b2d02 	subseq	r2, fp, r2, lsl #26
    34f4:	02030000 	andeq	r0, r3, #0
    34f8:	00019007 	andeq	r9, r1, r7
    34fc:	05040300 	streq	r0, [r4, #-768]	; 0xfffffd00
    3500:	0000023e 	andeq	r0, r0, lr, lsr r2
    3504:	00020002 	andeq	r0, r2, r2
    3508:	74320200 	ldrtvc	r0, [r2], #-512	; 0xfffffe00
    350c:	03000000 	movweq	r0, #0
    3510:	03d30704 	bicseq	r0, r3, #4, 14	; 0x100000
    3514:	d7020000 	strle	r0, [r2, -r0]
    3518:	03000000 	movweq	r0, #0
    351c:	000086b1 			; <UNDEFINED> instruction: 0x000086b1
    3520:	8c040400 	cfstrshi	mvf0, [r4], {-0}
    3524:	05000000 	streq	r0, [r0, #-0]
    3528:	015e0601 	cmpeq	lr, r1, lsl #12
    352c:	03280000 	teqeq	r8, #0
    3530:	000127b7 			; <UNDEFINED> instruction: 0x000127b7
    3534:	02470700 	subeq	r0, r7, #0, 14
    3538:	b9030000 	stmdblt	r3, {}	; <UNPREDICTABLE>
    353c:	00000069 	andeq	r0, r0, r9, rrx
    3540:	07002302 	streq	r2, [r0, -r2, lsl #6]
    3544:	00000133 	andeq	r0, r0, r3, lsr r1
    3548:	0069ba03 	rsbeq	fp, r9, r3, lsl #20
    354c:	23020000 	movwcs	r0, #8192	; 0x2000
    3550:	016a0704 	cmneq	sl, r4, lsl #14
    3554:	bb030000 	bllt	c355c <FlashDriver+0xc1798>
    3558:	00000069 	andeq	r0, r0, r9, rrx
    355c:	07082302 	streq	r2, [r8, -r2, lsl #6]
    3560:	000000ec 	andeq	r0, r0, ip, ror #1
    3564:	0069bc03 	rsbeq	fp, r9, r3, lsl #24
    3568:	23020000 	movwcs	r0, #8192	; 0x2000
    356c:	0101070c 	tsteq	r1, ip, lsl #14
    3570:	bd030000 	stclt	0, cr0, [r3, #-0]
    3574:	00000069 	andeq	r0, r0, r9, rrx
    3578:	07102302 	ldreq	r2, [r0, -r2, lsl #6]
    357c:	000001f1 	strdeq	r0, [r0], -r1
    3580:	0069be03 	rsbeq	fp, r9, r3, lsl #28
    3584:	23020000 	movwcs	r0, #8192	; 0x2000
    3588:	02150714 	andseq	r0, r5, #20, 14	; 0x500000
    358c:	bf030000 	svclt	0x00030000
    3590:	00000069 	andeq	r0, r0, r9, rrx
    3594:	07182302 	ldreq	r2, [r8, -r2, lsl #6]
    3598:	000001b8 			; <UNDEFINED> instruction: 0x000001b8
    359c:	0069c003 	rsbeq	ip, r9, r3
    35a0:	23020000 	movwcs	r0, #8192	; 0x2000
    35a4:	0111071c 	tsteq	r1, ip, lsl r7
    35a8:	c1030000 	mrsgt	r0, (UNDEF: 3)
    35ac:	00000025 	andeq	r0, r0, r5, lsr #32
    35b0:	07202302 	streq	r2, [r0, -r2, lsl #6]!
    35b4:	000001e8 	andeq	r0, r0, r8, ror #3
    35b8:	007bc203 	rsbseq	ip, fp, r3, lsl #4
    35bc:	23020000 	movwcs	r0, #8192	; 0x2000
    35c0:	d6020024 	strle	r0, [r2], -r4, lsr #32
    35c4:	03000001 	movweq	r0, #1
    35c8:	000132c3 	andeq	r3, r1, r3, asr #5
    35cc:	8e040400 	cfcpyshi	mvf0, mvf4
    35d0:	08000000 	stmdaeq	r0, {}	; <UNPREDICTABLE>
    35d4:	0000017a 	andeq	r0, r0, sl, ror r1
    35d8:	44033003 	strmi	r3, [r3], #-3
    35dc:	04000001 	streq	r0, [r0], #-1
    35e0:	00014a04 	andeq	r4, r1, r4, lsl #20
    35e4:	69010900 	stmdbvs	r1, {r8, fp}
    35e8:	64000000 	strvs	r0, [r0], #-0
    35ec:	0a000001 	beq	35f8 <FlashDriver+0x1834>
    35f0:	00000127 	andeq	r0, r0, r7, lsr #2
    35f4:	00003e0a 	andeq	r3, r0, sl, lsl #28
    35f8:	01640a00 	cmneq	r4, r0, lsl #20
    35fc:	04000000 	streq	r0, [r0], #-0
    3600:	00003e04 	andeq	r3, r0, r4, lsl #28
    3604:	f1010b00 			; <UNDEFINED> instruction: 0xf1010b00
    3608:	01000008 	tsteq	r0, r8
    360c:	0069012c 	rsbeq	r0, r9, ip, lsr #2
    3610:	16540000 	ldrbne	r0, [r4], -r0
    3614:	17960000 	ldrne	r0, [r6, r0]
    3618:	07380000 	ldreq	r0, [r8, -r0]!
    361c:	12010000 	andne	r0, r1, #0
    3620:	0c000002 	stceq	0, cr0, [r0], {2}
    3624:	000000e1 	andeq	r0, r0, r1, ror #1
    3628:	01272c01 	teqeq	r7, r1, lsl #24
    362c:	91020000 	mrsls	r0, (UNDEF: 2)
    3630:	02da0c5c 	sbcseq	r0, sl, #92, 24	; 0x5c00
    3634:	2d010000 	stccs	0, cr0, [r1, #-0]
    3638:	00000069 	andeq	r0, r0, r9, rrx
    363c:	0c589102 	ldfeqp	f1, [r8], {2}
    3640:	000007ac 	andeq	r0, r0, ip, lsr #15
    3644:	00502e01 	subseq	r2, r0, r1, lsl #28
    3648:	91020000 	mrsls	r0, (UNDEF: 2)
    364c:	072d0c56 			; <UNDEFINED> instruction: 0x072d0c56
    3650:	2f010000 	svccs	0x00010000
    3654:	0000003e 	andeq	r0, r0, lr, lsr r0
    3658:	0c559102 	ldfeqp	f1, [r5], {2}
    365c:	000001a3 	andeq	r0, r0, r3, lsr #3
    3660:	01383001 	teqeq	r8, r1
    3664:	91020000 	mrsls	r0, (UNDEF: 2)
    3668:	02070d00 	andeq	r0, r7, #0, 26
    366c:	32010000 	andcc	r0, r1, #0
    3670:	00000212 	andeq	r0, r0, r2, lsl r2
    3674:	0d649102 	stfeqp	f1, [r4, #-8]!
    3678:	00000153 	andeq	r0, r0, r3, asr r1
    367c:	00693301 	rsbeq	r3, r9, r1, lsl #6
    3680:	91020000 	mrsls	r0, (UNDEF: 2)
    3684:	03f00d74 	mvnseq	r0, #116, 26	; 0x1d00
    3688:	34010000 	strcc	r0, [r1], #-0
    368c:	00000069 	andeq	r0, r0, r9, rrx
    3690:	0d709102 	ldfeqp	f1, [r0, #-8]!
    3694:	0000079f 	muleq	r0, pc, r7	; <UNPREDICTABLE>
    3698:	00693501 	rsbeq	r3, r9, r1, lsl #10
    369c:	91020000 	mrsls	r0, (UNDEF: 2)
    36a0:	02950e6c 	addseq	r0, r5, #108, 28	; 0x6c0
    36a4:	78010000 	stmdavc	r1, {}	; <UNPREDICTABLE>
    36a8:	0000178a 	andeq	r1, r0, sl, lsl #15
    36ac:	003e0f00 	eorseq	r0, lr, r0, lsl #30
    36b0:	02220000 	eoreq	r0, r2, #0
    36b4:	22100000 	andscs	r0, r0, #0
    36b8:	06000002 	streq	r0, [r0], -r2
    36bc:	07040300 	streq	r0, [r4, -r0, lsl #6]
    36c0:	000000ce 	andeq	r0, r0, lr, asr #1
    36c4:	0001af00 	andeq	sl, r1, r0, lsl #30
    36c8:	09000200 	stmdbeq	r0, {r9}
    36cc:	04000016 	streq	r0, [r0], #-22	; 0xffffffea
    36d0:	00001701 	andeq	r1, r0, r1, lsl #14
    36d4:	09300100 	ldmdbeq	r0!, {r8}
    36d8:	00890000 	addeq	r0, r9, r0
    36dc:	17980000 	ldrne	r0, [r8, r0]
    36e0:	18080000 	stmdane	r8, {}	; <UNPREDICTABLE>
    36e4:	10250000 	eorne	r0, r5, r0
    36e8:	fc020000 	stc2	0, cr0, [r2], {-0}
    36ec:	02000000 	andeq	r0, r0, #0
    36f0:	00003025 	andeq	r3, r0, r5, lsr #32
    36f4:	08010300 	stmdaeq	r1, {r8, r9}
    36f8:	00000070 	andeq	r0, r0, r0, ror r0
    36fc:	72060103 	andvc	r0, r6, #-1073741824	; 0xc0000000
    3700:	02000000 	andeq	r0, r0, #0
    3704:	00000281 	andeq	r0, r0, r1, lsl #5
    3708:	00302802 	eorseq	r2, r0, r2, lsl #16
    370c:	80020000 	andhi	r0, r2, r0
    3710:	02000002 	andeq	r0, r0, #2
    3714:	0000542a 	andeq	r5, r0, sl, lsr #8
    3718:	00300400 	eorseq	r0, r0, r0, lsl #8
    371c:	02030000 	andeq	r0, r3, #0
    3720:	00022405 	andeq	r2, r2, r5, lsl #8
    3724:	07020300 	streq	r0, [r2, -r0, lsl #6]
    3728:	00000190 	muleq	r0, r0, r1
    372c:	3e050403 	cdpcc	4, 0, cr0, cr5, cr3, {0}
    3730:	02000002 	andeq	r0, r0, #2
    3734:	00000200 	andeq	r0, r0, r0, lsl #4
    3738:	00793202 	rsbseq	r3, r9, r2, lsl #4
    373c:	04030000 	streq	r0, [r3], #-0
    3740:	0003d307 	andeq	sp, r3, r7, lsl #6
    3744:	00d70200 	sbcseq	r0, r7, r0, lsl #4
    3748:	b1030000 	mrslt	r0, (UNDEF: 3)
    374c:	0000008b 	andeq	r0, r0, fp, lsl #1
    3750:	00910405 	addseq	r0, r1, r5, lsl #8
    3754:	01060000 	mrseq	r0, (UNDEF: 6)
    3758:	00015e07 	andeq	r5, r1, r7, lsl #28
    375c:	b7032800 	strlt	r2, [r3, -r0, lsl #16]
    3760:	0000012c 	andeq	r0, r0, ip, lsr #2
    3764:	00024708 	andeq	r4, r2, r8, lsl #14
    3768:	6eb90300 	cdpvs	3, 11, cr0, cr9, cr0, {0}
    376c:	02000000 	andeq	r0, r0, #0
    3770:	33080023 	movwcc	r0, #32803	; 0x8023
    3774:	03000001 	movweq	r0, #1
    3778:	00006eba 			; <UNDEFINED> instruction: 0x00006eba
    377c:	04230200 	strteq	r0, [r3], #-512	; 0xfffffe00
    3780:	00016a08 	andeq	r6, r1, r8, lsl #20
    3784:	6ebb0300 	cdpvs	3, 11, cr0, cr11, cr0, {0}
    3788:	02000000 	andeq	r0, r0, #0
    378c:	ec080823 	stc	8, cr0, [r8], {35}	; 0x23
    3790:	03000000 	movweq	r0, #0
    3794:	00006ebc 			; <UNDEFINED> instruction: 0x00006ebc
    3798:	0c230200 	sfmeq	f0, 4, [r3], #-0
    379c:	00010108 	andeq	r0, r1, r8, lsl #2
    37a0:	6ebd0300 	cdpvs	3, 11, cr0, cr13, cr0, {0}
    37a4:	02000000 	andeq	r0, r0, #0
    37a8:	f1081023 			; <UNDEFINED> instruction: 0xf1081023
    37ac:	03000001 	movweq	r0, #1
    37b0:	00006ebe 			; <UNDEFINED> instruction: 0x00006ebe
    37b4:	14230200 	strtne	r0, [r3], #-512	; 0xfffffe00
    37b8:	00021508 	andeq	r1, r2, r8, lsl #10
    37bc:	6ebf0300 	cdpvs	3, 11, cr0, cr15, cr0, {0}
    37c0:	02000000 	andeq	r0, r0, #0
    37c4:	b8081823 	stmdalt	r8, {r0, r1, r5, fp, ip}
    37c8:	03000001 	movweq	r0, #1
    37cc:	00006ec0 	andeq	r6, r0, r0, asr #29
    37d0:	1c230200 	sfmne	f0, 4, [r3], #-0
    37d4:	00011108 	andeq	r1, r1, r8, lsl #2
    37d8:	25c10300 	strbcs	r0, [r1, #768]	; 0x300
    37dc:	02000000 	andeq	r0, r0, #0
    37e0:	e8082023 	stmda	r8, {r0, r1, r5, sp}
    37e4:	03000001 	movweq	r0, #1
    37e8:	000080c2 	andeq	r8, r0, r2, asr #1
    37ec:	24230200 	strtcs	r0, [r3], #-512	; 0xfffffe00
    37f0:	01d60200 	bicseq	r0, r6, r0, lsl #4
    37f4:	c3030000 	movwgt	r0, #12288	; 0x3000
    37f8:	00000137 	andeq	r0, r0, r7, lsr r1
    37fc:	00930405 	addseq	r0, r3, r5, lsl #8
    3800:	04050000 	streq	r0, [r5], #-0
    3804:	0000006e 	andeq	r0, r0, lr, rrx
    3808:	091c0109 	ldmdbeq	ip, {r0, r3, r8}
    380c:	27010000 	strcs	r0, [r1, -r0]
    3810:	00006e01 	andeq	r6, r0, r1, lsl #28
    3814:	00179800 	andseq	r9, r7, r0, lsl #16
    3818:	00180800 	andseq	r0, r8, r0, lsl #16
    381c:	00077000 	andeq	r7, r7, r0
    3820:	e10a0100 	mrs	r0, (UNDEF: 26)
    3824:	01000000 	mrseq	r0, (UNDEF: 0)
    3828:	00012c27 	andeq	r2, r1, r7, lsr #24
    382c:	64910200 	ldrvs	r0, [r1], #512	; 0x200
    3830:	0002870a 	andeq	r8, r2, sl, lsl #14
    3834:	3d270100 	stfccs	f0, [r7, #-0]
    3838:	02000001 	andeq	r0, r0, #1
    383c:	490b6091 	stmdbmi	fp, {r0, r4, r7, sp, lr}
    3840:	01000009 	tsteq	r0, r9
    3844:	00006e29 	andeq	r6, r0, r9, lsr #28
    3848:	74910200 	ldrvc	r0, [r1], #512	; 0x200
    384c:	0009580b 	andeq	r5, r9, fp, lsl #16
    3850:	6e2a0100 	sufvse	f0, f2, f0
    3854:	02000000 	andeq	r0, r0, #0
    3858:	670b7091 			; <UNDEFINED> instruction: 0x670b7091
    385c:	01000009 	tsteq	r0, r9
    3860:	00006e2b 	andeq	r6, r0, fp, lsr #28
    3864:	6c910200 	lfmvs	f0, 4, [r1], {0}
    3868:	0009760b 	andeq	r7, r9, fp, lsl #12
    386c:	6e2c0100 	sufvse	f0, f4, f0
    3870:	02000000 	andeq	r0, r0, #0
    3874:	00006891 	muleq	r0, r1, r8
    3878:	0000021d 	andeq	r0, r0, sp, lsl r2
    387c:	16a20002 	strtne	r0, [r2], r2
    3880:	01040000 	mrseq	r0, (UNDEF: 4)
    3884:	00000017 	andeq	r0, r0, r7, lsl r0
    3888:	0009bf01 	andeq	fp, r9, r1, lsl #30
    388c:	00008900 	andeq	r8, r0, r0, lsl #18
    3890:	00180800 	andseq	r0, r8, r0, lsl #16
    3894:	00191200 	andseq	r1, r9, r0, lsl #4
    3898:	00109d00 	andseq	r9, r0, r0, lsl #26
    389c:	00fc0200 	rscseq	r0, ip, r0, lsl #4
    38a0:	25020000 	strcs	r0, [r2, #-0]
    38a4:	00000030 	andeq	r0, r0, r0, lsr r0
    38a8:	70080103 	andvc	r0, r8, r3, lsl #2
    38ac:	03000000 	movweq	r0, #0
    38b0:	00720601 	rsbseq	r0, r2, r1, lsl #12
    38b4:	81020000 	mrshi	r0, (UNDEF: 2)
    38b8:	02000002 	andeq	r0, r0, #2
    38bc:	00003028 	andeq	r3, r0, r8, lsr #32
    38c0:	02800200 	addeq	r0, r0, #0, 4
    38c4:	2a020000 	bcs	838cc <FlashDriver+0x81b08>
    38c8:	00000054 	andeq	r0, r0, r4, asr r0
    38cc:	00003004 	andeq	r3, r0, r4
    38d0:	05020300 	streq	r0, [r2, #-768]	; 0xfffffd00
    38d4:	00000224 	andeq	r0, r0, r4, lsr #4
    38d8:	90070203 	andls	r0, r7, r3, lsl #4
    38dc:	03000001 	movweq	r0, #1
    38e0:	023e0504 	eorseq	r0, lr, #4, 10	; 0x1000000
    38e4:	00020000 	andeq	r0, r2, r0
    38e8:	02000002 	andeq	r0, r0, #2
    38ec:	00007932 	andeq	r7, r0, r2, lsr r9
    38f0:	07040300 	streq	r0, [r4, -r0, lsl #6]
    38f4:	000003d3 	ldrdeq	r0, [r0], -r3
    38f8:	0000d702 	andeq	sp, r0, r2, lsl #14
    38fc:	8bb10300 	blhi	fec44504 <FlashDriver+0xfec42740>
    3900:	05000000 	streq	r0, [r0, #-0]
    3904:	00009104 	andeq	r9, r0, r4, lsl #2
    3908:	07010600 	streq	r0, [r1, -r0, lsl #12]
    390c:	0000015e 	andeq	r0, r0, lr, asr r1
    3910:	2cb70328 	ldccs	3, cr0, [r7], #160	; 0xa0
    3914:	08000001 	stmdaeq	r0, {r0}
    3918:	00000247 	andeq	r0, r0, r7, asr #4
    391c:	006eb903 	rsbeq	fp, lr, r3, lsl #18
    3920:	23020000 	movwcs	r0, #8192	; 0x2000
    3924:	01330800 	teqeq	r3, r0, lsl #16
    3928:	ba030000 	blt	c3930 <FlashDriver+0xc1b6c>
    392c:	0000006e 	andeq	r0, r0, lr, rrx
    3930:	08042302 	stmdaeq	r4, {r1, r8, r9, sp}
    3934:	0000016a 	andeq	r0, r0, sl, ror #2
    3938:	006ebb03 	rsbeq	fp, lr, r3, lsl #22
    393c:	23020000 	movwcs	r0, #8192	; 0x2000
    3940:	00ec0808 	rsceq	r0, ip, r8, lsl #16
    3944:	bc030000 	stclt	0, cr0, [r3], {-0}
    3948:	0000006e 	andeq	r0, r0, lr, rrx
    394c:	080c2302 	stmdaeq	ip, {r1, r8, r9, sp}
    3950:	00000101 	andeq	r0, r0, r1, lsl #2
    3954:	006ebd03 	rsbeq	fp, lr, r3, lsl #26
    3958:	23020000 	movwcs	r0, #8192	; 0x2000
    395c:	01f10810 	mvnseq	r0, r0, lsl r8
    3960:	be030000 	cdplt	0, 0, cr0, cr3, cr0, {0}
    3964:	0000006e 	andeq	r0, r0, lr, rrx
    3968:	08142302 	ldmdaeq	r4, {r1, r8, r9, sp}
    396c:	00000215 	andeq	r0, r0, r5, lsl r2
    3970:	006ebf03 	rsbeq	fp, lr, r3, lsl #30
    3974:	23020000 	movwcs	r0, #8192	; 0x2000
    3978:	01b80818 			; <UNDEFINED> instruction: 0x01b80818
    397c:	c0030000 	andgt	r0, r3, r0
    3980:	0000006e 	andeq	r0, r0, lr, rrx
    3984:	081c2302 	ldmdaeq	ip, {r1, r8, r9, sp}
    3988:	00000111 	andeq	r0, r0, r1, lsl r1
    398c:	0025c103 	eoreq	ip, r5, r3, lsl #2
    3990:	23020000 	movwcs	r0, #8192	; 0x2000
    3994:	01e80820 	mvneq	r0, r0, lsr #16
    3998:	c2030000 	andgt	r0, r3, #0
    399c:	00000080 	andeq	r0, r0, r0, lsl #1
    39a0:	00242302 	eoreq	r2, r4, r2, lsl #6
    39a4:	0001d602 	andeq	sp, r1, r2, lsl #12
    39a8:	37c30300 	strbcc	r0, [r3, r0, lsl #6]
    39ac:	05000001 	streq	r0, [r0, #-1]
    39b0:	00009304 	andeq	r9, r0, r4, lsl #6
    39b4:	017a0900 	cmneq	sl, r0, lsl #18
    39b8:	30030000 	andcc	r0, r3, r0
    39bc:	00014903 	andeq	r4, r1, r3, lsl #18
    39c0:	4f040500 	svcmi	0x00040500
    39c4:	0a000001 	beq	39d0 <FlashDriver+0x1c0c>
    39c8:	00006e01 	andeq	r6, r0, r1, lsl #28
    39cc:	00016900 	andeq	r6, r1, r0, lsl #18
    39d0:	012c0b00 	teqeq	ip, r0, lsl #22
    39d4:	3e0b0000 	cdpcc	0, 0, cr0, cr11, cr0, {0}
    39d8:	0b000000 	bleq	39e0 <FlashDriver+0x1c1c>
    39dc:	00000169 	andeq	r0, r0, r9, ror #2
    39e0:	3e040500 	cfsh32cc	mvfx0, mvfx4, #0
    39e4:	0c000000 	stceq	0, cr0, [r0], {-0}
    39e8:	0009d801 	andeq	sp, r9, r1, lsl #16
    39ec:	012d0100 	teqeq	sp, r0, lsl #2
    39f0:	0000006e 	andeq	r0, r0, lr, rrx
    39f4:	00001808 	andeq	r1, r0, r8, lsl #16
    39f8:	00001912 	andeq	r1, r0, r2, lsl r9
    39fc:	000007a8 	andeq	r0, r0, r8, lsr #15
    3a00:	00020901 	andeq	r0, r2, r1, lsl #18
    3a04:	00e10d00 	rsceq	r0, r1, r0, lsl #26
    3a08:	2d010000 	stccs	0, cr0, [r1, #-0]
    3a0c:	0000012c 	andeq	r0, r0, ip, lsr #2
    3a10:	0d649102 	stfeqp	f1, [r4, #-8]!
    3a14:	0000099d 	muleq	r0, sp, r9
    3a18:	006e2e01 	rsbeq	r2, lr, r1, lsl #28
    3a1c:	91020000 	mrsls	r0, (UNDEF: 2)
    3a20:	09ec0d60 	stmibeq	ip!, {r5, r6, r8, sl, fp}^
    3a24:	2f010000 	svccs	0x00010000
    3a28:	00000169 	andeq	r0, r0, r9, ror #2
    3a2c:	0d5c9102 	ldfeqp	f1, [ip, #-8]
    3a30:	00000985 	andeq	r0, r0, r5, lsl #19
    3a34:	01693001 	cmneq	r9, r1
    3a38:	91020000 	mrsls	r0, (UNDEF: 2)
    3a3c:	09aa0d58 	stmibeq	sl!, {r3, r4, r6, r8, sl, fp}
    3a40:	31010000 	mrscc	r0, (UNDEF: 1)
    3a44:	00000169 	andeq	r0, r0, r9, ror #2
    3a48:	0d009102 	stfeqd	f1, [r0, #-8]
    3a4c:	000001a3 	andeq	r0, r0, r3, lsr #3
    3a50:	013d3201 	teqeq	sp, r1, lsl #4
    3a54:	91020000 	mrsls	r0, (UNDEF: 2)
    3a58:	02070e04 	andeq	r0, r7, #4, 28	; 0x40
    3a5c:	34010000 	strcc	r0, [r1], #-0
    3a60:	00000209 	andeq	r0, r0, r9, lsl #4
    3a64:	0e6c9102 	lgneqe	f1, f2
    3a68:	00000153 	andeq	r0, r0, r3, asr r1
    3a6c:	006e3501 	rsbeq	r3, lr, r1, lsl #10
    3a70:	91020000 	mrsls	r0, (UNDEF: 2)
    3a74:	02950f74 	addseq	r0, r5, #116, 30	; 0x1d0
    3a78:	6b010000 	blvs	43a80 <FlashDriver+0x41cbc>
    3a7c:	00001906 	andeq	r1, r0, r6, lsl #18
    3a80:	003e1000 	eorseq	r1, lr, r0
    3a84:	02190000 	andseq	r0, r9, #0
    3a88:	19110000 	ldmdbne	r1, {}	; <UNPREDICTABLE>
    3a8c:	07000002 	streq	r0, [r0, -r2]
    3a90:	07040300 	streq	r0, [r4, -r0, lsl #6]
    3a94:	000000ce 	andeq	r0, r0, lr, asr #1
    3a98:	0001de00 	andeq	sp, r1, r0, lsl #28
    3a9c:	7b000200 	blvc	42a4 <FlashDriver+0x24e0>
    3aa0:	04000017 	streq	r0, [r0], #-23	; 0xffffffe9
    3aa4:	00001701 	andeq	r1, r0, r1, lsl #14
    3aa8:	0a110100 	beq	443eb0 <FlashDriver+0x4420ec>
    3aac:	00890000 	addeq	r0, r9, r0
    3ab0:	19140000 	ldmdbne	r4, {}	; <UNPREDICTABLE>
    3ab4:	1af00000 	bne	ffc03abc <FlashDriver+0xffc01cf8>
    3ab8:	11340000 	teqne	r4, r0
    3abc:	fc020000 	stc2	0, cr0, [r2], {-0}
    3ac0:	02000000 	andeq	r0, r0, #0
    3ac4:	00003025 	andeq	r3, r0, r5, lsr #32
    3ac8:	08010300 	stmdaeq	r1, {r8, r9}
    3acc:	00000070 	andeq	r0, r0, r0, ror r0
    3ad0:	72060103 	andvc	r0, r6, #-1073741824	; 0xc0000000
    3ad4:	02000000 	andeq	r0, r0, #0
    3ad8:	00000281 	andeq	r0, r0, r1, lsl #5
    3adc:	00302802 	eorseq	r2, r0, r2, lsl #16
    3ae0:	80020000 	andhi	r0, r2, r0
    3ae4:	02000002 	andeq	r0, r0, #2
    3ae8:	0000542a 	andeq	r5, r0, sl, lsr #8
    3aec:	00300400 	eorseq	r0, r0, r0, lsl #8
    3af0:	02030000 	andeq	r0, r3, #0
    3af4:	00022405 	andeq	r2, r2, r5, lsl #8
    3af8:	07020300 	streq	r0, [r2, -r0, lsl #6]
    3afc:	00000190 	muleq	r0, r0, r1
    3b00:	3e050403 	cdpcc	4, 0, cr0, cr5, cr3, {0}
    3b04:	02000002 	andeq	r0, r0, #2
    3b08:	00000200 	andeq	r0, r0, r0, lsl #4
    3b0c:	00793202 	rsbseq	r3, r9, r2, lsl #4
    3b10:	04030000 	streq	r0, [r3], #-0
    3b14:	0003d307 	andeq	sp, r3, r7, lsl #6
    3b18:	00d70200 	sbcseq	r0, r7, r0, lsl #4
    3b1c:	b1030000 	mrslt	r0, (UNDEF: 3)
    3b20:	0000008b 	andeq	r0, r0, fp, lsl #1
    3b24:	00910405 	addseq	r0, r1, r5, lsl #8
    3b28:	01060000 	mrseq	r0, (UNDEF: 6)
    3b2c:	00015e07 	andeq	r5, r1, r7, lsl #28
    3b30:	b7032800 	strlt	r2, [r3, -r0, lsl #16]
    3b34:	0000012c 	andeq	r0, r0, ip, lsr #2
    3b38:	00024708 	andeq	r4, r2, r8, lsl #14
    3b3c:	6eb90300 	cdpvs	3, 11, cr0, cr9, cr0, {0}
    3b40:	02000000 	andeq	r0, r0, #0
    3b44:	33080023 	movwcc	r0, #32803	; 0x8023
    3b48:	03000001 	movweq	r0, #1
    3b4c:	00006eba 			; <UNDEFINED> instruction: 0x00006eba
    3b50:	04230200 	strteq	r0, [r3], #-512	; 0xfffffe00
    3b54:	00016a08 	andeq	r6, r1, r8, lsl #20
    3b58:	6ebb0300 	cdpvs	3, 11, cr0, cr11, cr0, {0}
    3b5c:	02000000 	andeq	r0, r0, #0
    3b60:	ec080823 	stc	8, cr0, [r8], {35}	; 0x23
    3b64:	03000000 	movweq	r0, #0
    3b68:	00006ebc 			; <UNDEFINED> instruction: 0x00006ebc
    3b6c:	0c230200 	sfmeq	f0, 4, [r3], #-0
    3b70:	00010108 	andeq	r0, r1, r8, lsl #2
    3b74:	6ebd0300 	cdpvs	3, 11, cr0, cr13, cr0, {0}
    3b78:	02000000 	andeq	r0, r0, #0
    3b7c:	f1081023 			; <UNDEFINED> instruction: 0xf1081023
    3b80:	03000001 	movweq	r0, #1
    3b84:	00006ebe 			; <UNDEFINED> instruction: 0x00006ebe
    3b88:	14230200 	strtne	r0, [r3], #-512	; 0xfffffe00
    3b8c:	00021508 	andeq	r1, r2, r8, lsl #10
    3b90:	6ebf0300 	cdpvs	3, 11, cr0, cr15, cr0, {0}
    3b94:	02000000 	andeq	r0, r0, #0
    3b98:	b8081823 	stmdalt	r8, {r0, r1, r5, fp, ip}
    3b9c:	03000001 	movweq	r0, #1
    3ba0:	00006ec0 	andeq	r6, r0, r0, asr #29
    3ba4:	1c230200 	sfmne	f0, 4, [r3], #-0
    3ba8:	00011108 	andeq	r1, r1, r8, lsl #2
    3bac:	25c10300 	strbcs	r0, [r1, #768]	; 0x300
    3bb0:	02000000 	andeq	r0, r0, #0
    3bb4:	e8082023 	stmda	r8, {r0, r1, r5, sp}
    3bb8:	03000001 	movweq	r0, #1
    3bbc:	000080c2 	andeq	r8, r0, r2, asr #1
    3bc0:	24230200 	strtcs	r0, [r3], #-512	; 0xfffffe00
    3bc4:	01d60200 	bicseq	r0, r6, r0, lsl #4
    3bc8:	c3030000 	movwgt	r0, #12288	; 0x3000
    3bcc:	00000137 	andeq	r0, r0, r7, lsr r1
    3bd0:	00930405 	addseq	r0, r3, r5, lsl #8
    3bd4:	01090000 	mrseq	r0, (UNDEF: 9)
    3bd8:	000009fd 	strdeq	r0, [r0], -sp
    3bdc:	6e012901 	cdpvs	9, 0, cr2, cr1, cr1, {0}
    3be0:	14000000 	strne	r0, [r0], #-0
    3be4:	f0000019 			; <UNDEFINED> instruction: 0xf0000019
    3be8:	e000001a 	and	r0, r0, sl, lsl r0
    3bec:	01000007 	tsteq	r0, r7
    3bf0:	0000e10a 	andeq	lr, r0, sl, lsl #2
    3bf4:	2c290100 	stfcss	f0, [r9], #-0
    3bf8:	02000001 	andeq	r0, r0, #1
    3bfc:	870a5491 			; <UNDEFINED> instruction: 0x870a5491
    3c00:	01000002 	tsteq	r0, r2
    3c04:	00006e2a 	andeq	r6, r0, sl, lsr #28
    3c08:	50910200 	addspl	r0, r1, r0, lsl #4
    3c0c:	0002b80b 	andeq	fp, r2, fp, lsl #16
    3c10:	6e2c0100 	sufvse	f0, f4, f0
    3c14:	02000000 	andeq	r0, r0, #0
    3c18:	530b6091 	movwpl	r6, #45201	; 0xb091
    3c1c:	01000001 	tsteq	r0, r1
    3c20:	00006e2d 	andeq	r6, r0, sp, lsr #28
    3c24:	74910200 	ldrvc	r0, [r1], #512	; 0x200
    3c28:	00029a0b 	andeq	r9, r2, fp, lsl #20
    3c2c:	6e2e0100 	sufvse	f0, f6, f0
    3c30:	02000000 	andeq	r0, r0, #0
    3c34:	490b5c91 	stmdbmi	fp, {r0, r4, r7, sl, fp, ip, lr}
    3c38:	01000009 	tsteq	r0, r9
    3c3c:	00006e2f 	andeq	r6, r0, pc, lsr #28
    3c40:	70910200 	addsvc	r0, r1, r0, lsl #4
    3c44:	0009580b 	andeq	r5, r9, fp, lsl #16
    3c48:	6e300100 	rsfvss	f0, f0, f0
    3c4c:	02000000 	andeq	r0, r0, #0
    3c50:	670b6c91 			; <UNDEFINED> instruction: 0x670b6c91
    3c54:	01000009 	tsteq	r0, r9
    3c58:	00006e31 	andeq	r6, r0, r1, lsr lr
    3c5c:	68910200 	ldmvs	r1, {r9}
    3c60:	0009760b 	andeq	r7, r9, fp, lsl #12
    3c64:	6e320100 	rsfvss	f0, f2, f0
    3c68:	02000000 	andeq	r0, r0, #0
    3c6c:	950c6491 	strls	r6, [ip, #-1169]	; 0xfffffb6f
    3c70:	01000002 	tsteq	r0, r2
    3c74:	001ae26b 	andseq	lr, sl, fp, ror #4
    3c78:	d5000000 	strle	r0, [r0, #-0]
    3c7c:	02000002 	andeq	r0, r0, #2
    3c80:	00182100 	andseq	r2, r8, r0, lsl #2
    3c84:	17010400 	strne	r0, [r1, -r0, lsl #8]
    3c88:	01000000 	mrseq	r0, (UNDEF: 0)
    3c8c:	00000a4d 	andeq	r0, r0, sp, asr #20
    3c90:	00000089 	andeq	r0, r0, r9, lsl #1
    3c94:	00001af0 	strdeq	r1, [r0], -r0
    3c98:	00001d2e 	andeq	r1, r0, lr, lsr #26
    3c9c:	000011cb 	andeq	r1, r0, fp, asr #3
    3ca0:	0000fc02 	andeq	pc, r0, r2, lsl #24
    3ca4:	30250200 	eorcc	r0, r5, r0, lsl #4
    3ca8:	03000000 	movweq	r0, #0
    3cac:	00700801 	rsbseq	r0, r0, r1, lsl #16
    3cb0:	01030000 	mrseq	r0, (UNDEF: 3)
    3cb4:	00007206 	andeq	r7, r0, r6, lsl #4
    3cb8:	02810200 	addeq	r0, r1, #0, 4
    3cbc:	28020000 	stmdacs	r2, {}	; <UNPREDICTABLE>
    3cc0:	00000030 	andeq	r0, r0, r0, lsr r0
    3cc4:	00028002 	andeq	r8, r2, r2
    3cc8:	542a0200 	strtpl	r0, [sl], #-512	; 0xfffffe00
    3ccc:	04000000 	streq	r0, [r0], #-0
    3cd0:	00000030 	andeq	r0, r0, r0, lsr r0
    3cd4:	24050203 	strcs	r0, [r5], #-515	; 0xfffffdfd
    3cd8:	03000002 	movweq	r0, #2
    3cdc:	01900702 	orrseq	r0, r0, r2, lsl #14
    3ce0:	04030000 	streq	r0, [r3], #-0
    3ce4:	00023e05 	andeq	r3, r2, r5, lsl #28
    3ce8:	02000200 	andeq	r0, r0, #0, 4
    3cec:	32020000 	andcc	r0, r2, #0
    3cf0:	00000079 	andeq	r0, r0, r9, ror r0
    3cf4:	d3070403 	movwle	r0, #29699	; 0x7403
    3cf8:	02000003 	andeq	r0, r0, #3
    3cfc:	000000d7 	ldrdeq	r0, [r0], -r7
    3d00:	008bb103 	addeq	fp, fp, r3, lsl #2
    3d04:	04050000 	streq	r0, [r5], #-0
    3d08:	00000091 	muleq	r0, r1, r0
    3d0c:	5e070106 	adfpls	f0, f7, f6
    3d10:	28000001 	stmdacs	r0, {r0}
    3d14:	012cb703 	teqeq	ip, r3, lsl #14
    3d18:	47080000 	strmi	r0, [r8, -r0]
    3d1c:	03000002 	movweq	r0, #2
    3d20:	00006eb9 			; <UNDEFINED> instruction: 0x00006eb9
    3d24:	00230200 	eoreq	r0, r3, r0, lsl #4
    3d28:	00013308 	andeq	r3, r1, r8, lsl #6
    3d2c:	6eba0300 	cdpvs	3, 11, cr0, cr10, cr0, {0}
    3d30:	02000000 	andeq	r0, r0, #0
    3d34:	6a080423 	bvs	204dc8 <FlashDriver+0x203004>
    3d38:	03000001 	movweq	r0, #1
    3d3c:	00006ebb 			; <UNDEFINED> instruction: 0x00006ebb
    3d40:	08230200 	stmdaeq	r3!, {r9}
    3d44:	0000ec08 	andeq	lr, r0, r8, lsl #24
    3d48:	6ebc0300 	cdpvs	3, 11, cr0, cr12, cr0, {0}
    3d4c:	02000000 	andeq	r0, r0, #0
    3d50:	01080c23 	tsteq	r8, r3, lsr #24
    3d54:	03000001 	movweq	r0, #1
    3d58:	00006ebd 			; <UNDEFINED> instruction: 0x00006ebd
    3d5c:	10230200 	eorne	r0, r3, r0, lsl #4
    3d60:	0001f108 	andeq	pc, r1, r8, lsl #2
    3d64:	6ebe0300 	cdpvs	3, 11, cr0, cr14, cr0, {0}
    3d68:	02000000 	andeq	r0, r0, #0
    3d6c:	15081423 	strne	r1, [r8, #-1059]	; 0xfffffbdd
    3d70:	03000002 	movweq	r0, #2
    3d74:	00006ebf 			; <UNDEFINED> instruction: 0x00006ebf
    3d78:	18230200 	stmdane	r3!, {r9}
    3d7c:	0001b808 	andeq	fp, r1, r8, lsl #16
    3d80:	6ec00300 	cdpvs	3, 12, cr0, cr0, cr0, {0}
    3d84:	02000000 	andeq	r0, r0, #0
    3d88:	11081c23 	tstne	r8, r3, lsr #24
    3d8c:	03000001 	movweq	r0, #1
    3d90:	000025c1 	andeq	r2, r0, r1, asr #11
    3d94:	20230200 	eorcs	r0, r3, r0, lsl #4
    3d98:	0001e808 	andeq	lr, r1, r8, lsl #16
    3d9c:	80c20300 	sbchi	r0, r2, r0, lsl #6
    3da0:	02000000 	andeq	r0, r0, #0
    3da4:	02002423 	andeq	r2, r0, #587202560	; 0x23000000
    3da8:	000001d6 	ldrdeq	r0, [r0], -r6
    3dac:	0137c303 	teqeq	r7, r3, lsl #6
    3db0:	04050000 	streq	r0, [r5], #-0
    3db4:	00000093 	muleq	r0, r3, r0
    3db8:	00017a09 	andeq	r7, r1, r9, lsl #20
    3dbc:	03300300 	teqeq	r0, #0, 6
    3dc0:	00000149 	andeq	r0, r0, r9, asr #2
    3dc4:	014f0405 	cmpeq	pc, r5, lsl #8
    3dc8:	010a0000 	mrseq	r0, (UNDEF: 10)
    3dcc:	0000006e 	andeq	r0, r0, lr, rrx
    3dd0:	00000169 	andeq	r0, r0, r9, ror #2
    3dd4:	00012c0b 	andeq	r2, r1, fp, lsl #24
    3dd8:	003e0b00 	eorseq	r0, lr, r0, lsl #22
    3ddc:	690b0000 	stmdbvs	fp, {}	; <UNPREDICTABLE>
    3de0:	00000001 	andeq	r0, r0, r1
    3de4:	003e0405 	eorseq	r0, lr, r5, lsl #8
    3de8:	010c0000 	mrseq	r0, (UNDEF: 12)
    3dec:	00000a42 	andeq	r0, r0, r2, asr #20
    3df0:	6e014401 	cdpvs	4, 0, cr4, cr1, cr1, {0}
    3df4:	f0000000 			; <UNDEFINED> instruction: 0xf0000000
    3df8:	6e00001a 	mcrvs	0, 0, r0, cr0, cr10, {0}
    3dfc:	1800001c 	stmdane	r0, {r2, r3, r4}
    3e00:	01000008 	tsteq	r0, r8
    3e04:	000001df 	ldrdeq	r0, [r0], -pc	; <UNPREDICTABLE>
    3e08:	0000e10d 	andeq	lr, r0, sp, lsl #2
    3e0c:	2c440100 	stfcse	f0, [r4], {-0}
    3e10:	02000001 	andeq	r0, r0, #1
    3e14:	9d0d6c91 	stcls	12, cr6, [sp, #-580]	; 0xfffffdbc
    3e18:	01000009 	tsteq	r0, r9
    3e1c:	00006e45 	andeq	r6, r0, r5, asr #28
    3e20:	68910200 	ldmvs	r1, {r9}
    3e24:	0001a30d 	andeq	sl, r1, sp, lsl #6
    3e28:	3d460100 	stfcce	f0, [r6, #-0]
    3e2c:	02000001 	andeq	r0, r0, #1
    3e30:	530e6491 	movwpl	r6, #58513	; 0xe491
    3e34:	01000001 	tsteq	r0, r1
    3e38:	00006e48 	andeq	r6, r0, r8, asr #28
    3e3c:	74910200 	ldrvc	r0, [r1], #512	; 0x200
    3e40:	000a320e 	andeq	r3, sl, lr, lsl #4
    3e44:	3e490100 	dvfcce	f0, f1, f0
    3e48:	02000000 	andeq	r0, r0, #0
    3e4c:	950f7391 	strls	r7, [pc, #-913]	; 3ac3 <FlashDriver+0x1cff>
    3e50:	01000002 	tsteq	r0, r2
    3e54:	001c62b0 			; <UNDEFINED> instruction: 0x001c62b0
    3e58:	70100000 	andsvc	r0, r0, r0
    3e5c:	0100000a 	tsteq	r0, sl
    3e60:	006e01c0 	rsbeq	r0, lr, r0, asr #3
    3e64:	1c700000 	ldclne	0, cr0, [r0], #-0
    3e68:	1ce00000 	stclne	0, cr0, [r0]
    3e6c:	08500000 	ldmdaeq	r0, {}^	; <UNPREDICTABLE>
    3e70:	51010000 	mrspl	r0, (UNDEF: 1)
    3e74:	0d000002 	stceq	0, cr0, [r0, #-8]
    3e78:	000000e1 	andeq	r0, r0, r1, ror #1
    3e7c:	012cc001 	teqeq	ip, r1
    3e80:	91020000 	mrsls	r0, (UNDEF: 2)
    3e84:	04670d64 	strbteq	r0, [r7], #-3428	; 0xfffff29c
    3e88:	c1010000 	mrsgt	r0, (UNDEF: 1)
    3e8c:	0000006e 	andeq	r0, r0, lr, rrx
    3e90:	0d609102 	stfeqp	f1, [r0, #-8]!
    3e94:	00000a2a 	andeq	r0, r0, sl, lsr #20
    3e98:	003ec201 	eorseq	ip, lr, r1, lsl #4
    3e9c:	91020000 	mrsls	r0, (UNDEF: 2)
    3ea0:	01a30d5f 			; <UNDEFINED> instruction: 0x01a30d5f
    3ea4:	c3010000 	movwgt	r0, #4096	; 0x1000
    3ea8:	0000013d 	andeq	r0, r0, sp, lsr r1
    3eac:	0e589102 	logeqe	f1, f2
    3eb0:	00000207 	andeq	r0, r0, r7, lsl #4
    3eb4:	0251c501 	subseq	ip, r1, #4194304	; 0x400000
    3eb8:	91020000 	mrsls	r0, (UNDEF: 2)
    3ebc:	01530e6c 	cmpeq	r3, ip, ror #28
    3ec0:	c6010000 	strgt	r0, [r1], -r0
    3ec4:	0000006e 	andeq	r0, r0, lr, rrx
    3ec8:	00749102 	rsbseq	r9, r4, r2, lsl #2
    3ecc:	00003e11 	andeq	r3, r0, r1, lsl lr
    3ed0:	00026100 	andeq	r6, r2, r0, lsl #2
    3ed4:	02611200 	rsbeq	r1, r1, #0, 4
    3ed8:	00070000 	andeq	r0, r7, r0
    3edc:	ce070403 	cdpgt	4, 0, cr0, cr7, cr3, {0}
    3ee0:	10000000 	andne	r0, r0, r0
    3ee4:	00000a5d 	andeq	r0, r0, sp, asr sl
    3ee8:	6e01dc01 	cdpvs	12, 0, cr13, cr1, cr1, {0}
    3eec:	e0000000 	and	r0, r0, r0
    3ef0:	2e00001c 	mcrcs	0, 0, r0, cr0, cr12, {0}
    3ef4:	8800001d 	stmdahi	r0, {r0, r2, r3, r4}
    3ef8:	01000008 	tsteq	r0, r8
    3efc:	000002cc 	andeq	r0, r0, ip, asr #5
    3f00:	0000e10d 	andeq	lr, r0, sp, lsl #2
    3f04:	2cdc0100 	ldfcse	f0, [ip], {0}
    3f08:	02000001 	andeq	r0, r0, #1
    3f0c:	da0d6c91 	ble	35f158 <FlashDriver+0x35d394>
    3f10:	01000002 	tsteq	r0, r2
    3f14:	00006edd 	ldrdeq	r6, [r0], -sp
    3f18:	68910200 	ldmvs	r1, {r9}
    3f1c:	0001a30d 	andeq	sl, r1, sp, lsl #6
    3f20:	3dde0100 	ldfcce	f0, [lr]
    3f24:	02000001 	andeq	r0, r0, #1
    3f28:	070e6491 			; <UNDEFINED> instruction: 0x070e6491
    3f2c:	01000002 	tsteq	r0, r2
    3f30:	0002cce0 	andeq	ip, r2, r0, ror #25
    3f34:	70910200 	addsvc	r0, r1, r0, lsl #4
    3f38:	0001530e 	andeq	r5, r1, lr, lsl #6
    3f3c:	6ee10100 	cdpvs	1, 14, cr0, cr1, cr0, {0}
    3f40:	02000000 	andeq	r0, r0, #0
    3f44:	13007491 	movwne	r7, #1169	; 0x491
    3f48:	0000003e 	andeq	r0, r0, lr, lsr r0
    3f4c:	00026112 	andeq	r6, r2, r2, lsl r1
    3f50:	00000300 	andeq	r0, r0, r0, lsl #6
    3f54:	00000198 	muleq	r0, r8, r1
    3f58:	191b0002 	ldmdbne	fp, {r1}
    3f5c:	01040000 	mrseq	r0, (UNDEF: 4)
    3f60:	00000017 	andeq	r0, r0, r7, lsl r0
    3f64:	000a7f01 	andeq	r7, sl, r1, lsl #30
    3f68:	00008900 	andeq	r8, r0, r0, lsl #18
    3f6c:	001d3000 	andseq	r3, sp, r0
    3f70:	001d6a00 	andseq	r6, sp, r0, lsl #20
    3f74:	0012a100 	andseq	sl, r2, r0, lsl #2
    3f78:	00fc0200 	rscseq	r0, ip, r0, lsl #4
    3f7c:	25020000 	strcs	r0, [r2, #-0]
    3f80:	00000030 	andeq	r0, r0, r0, lsr r0
    3f84:	70080103 	andvc	r0, r8, r3, lsl #2
    3f88:	03000000 	movweq	r0, #0
    3f8c:	00720601 	rsbseq	r0, r2, r1, lsl #12
    3f90:	81020000 	mrshi	r0, (UNDEF: 2)
    3f94:	02000002 	andeq	r0, r0, #2
    3f98:	00003028 	andeq	r3, r0, r8, lsr #32
    3f9c:	05020300 	streq	r0, [r2, #-768]	; 0xfffffd00
    3fa0:	00000224 	andeq	r0, r0, r4, lsr #4
    3fa4:	90070203 	andls	r0, r7, r3, lsl #4
    3fa8:	03000001 	movweq	r0, #1
    3fac:	023e0504 	eorseq	r0, lr, #4, 10	; 0x1000000
    3fb0:	00020000 	andeq	r0, r2, r0
    3fb4:	02000002 	andeq	r0, r0, #2
    3fb8:	00006932 	andeq	r6, r0, r2, lsr r9
    3fbc:	07040300 	streq	r0, [r4, -r0, lsl #6]
    3fc0:	000003d3 	ldrdeq	r0, [r0], -r3
    3fc4:	0000d702 	andeq	sp, r0, r2, lsl #14
    3fc8:	7bb10300 	blvc	fec44bd0 <FlashDriver+0xfec42e0c>
    3fcc:	04000000 	streq	r0, [r0], #-0
    3fd0:	00008104 	andeq	r8, r0, r4, lsl #2
    3fd4:	06010500 	streq	r0, [r1], -r0, lsl #10
    3fd8:	0000015e 	andeq	r0, r0, lr, asr r1
    3fdc:	1cb70328 	ldcne	3, cr0, [r7], #160	; 0xa0
    3fe0:	07000001 	streq	r0, [r0, -r1]
    3fe4:	00000247 	andeq	r0, r0, r7, asr #4
    3fe8:	005eb903 	subseq	fp, lr, r3, lsl #18
    3fec:	23020000 	movwcs	r0, #8192	; 0x2000
    3ff0:	01330700 	teqeq	r3, r0, lsl #14
    3ff4:	ba030000 	blt	c3ffc <FlashDriver+0xc2238>
    3ff8:	0000005e 	andeq	r0, r0, lr, asr r0
    3ffc:	07042302 	streq	r2, [r4, -r2, lsl #6]
    4000:	0000016a 	andeq	r0, r0, sl, ror #2
    4004:	005ebb03 	subseq	fp, lr, r3, lsl #22
    4008:	23020000 	movwcs	r0, #8192	; 0x2000
    400c:	00ec0708 	rsceq	r0, ip, r8, lsl #14
    4010:	bc030000 	stclt	0, cr0, [r3], {-0}
    4014:	0000005e 	andeq	r0, r0, lr, asr r0
    4018:	070c2302 	streq	r2, [ip, -r2, lsl #6]
    401c:	00000101 	andeq	r0, r0, r1, lsl #2
    4020:	005ebd03 	subseq	fp, lr, r3, lsl #26
    4024:	23020000 	movwcs	r0, #8192	; 0x2000
    4028:	01f10710 	mvnseq	r0, r0, lsl r7
    402c:	be030000 	cdplt	0, 0, cr0, cr3, cr0, {0}
    4030:	0000005e 	andeq	r0, r0, lr, asr r0
    4034:	07142302 	ldreq	r2, [r4, -r2, lsl #6]
    4038:	00000215 	andeq	r0, r0, r5, lsl r2
    403c:	005ebf03 	subseq	fp, lr, r3, lsl #30
    4040:	23020000 	movwcs	r0, #8192	; 0x2000
    4044:	01b80718 			; <UNDEFINED> instruction: 0x01b80718
    4048:	c0030000 	andgt	r0, r3, r0
    404c:	0000005e 	andeq	r0, r0, lr, asr r0
    4050:	071c2302 	ldreq	r2, [ip, -r2, lsl #6]
    4054:	00000111 	andeq	r0, r0, r1, lsl r1
    4058:	0025c103 	eoreq	ip, r5, r3, lsl #2
    405c:	23020000 	movwcs	r0, #8192	; 0x2000
    4060:	01e80720 	mvneq	r0, r0, lsr #14
    4064:	c2030000 	andgt	r0, r3, #0
    4068:	00000070 	andeq	r0, r0, r0, ror r0
    406c:	00242302 	eoreq	r2, r4, r2, lsl #6
    4070:	0001d602 	andeq	sp, r1, r2, lsl #12
    4074:	27c30300 	strbcs	r0, [r3, r0, lsl #6]
    4078:	04000001 	streq	r0, [r0], #-1
    407c:	00008304 	andeq	r8, r0, r4, lsl #6
    4080:	91010800 	tstls	r1, r0, lsl #16
    4084:	0100000a 	tsteq	r0, sl
    4088:	005e012a 	subseq	r0, lr, sl, lsr #2
    408c:	1d300000 	ldcne	0, cr0, [r0, #-0]
    4090:	1d6a0000 	stclne	0, cr0, [sl, #-0]
    4094:	08c00000 	stmiaeq	r0, {}^	; <UNPREDICTABLE>
    4098:	84010000 	strhi	r0, [r1], #-0
    409c:	09000001 	stmdbeq	r0, {r0}
    40a0:	000000e1 	andeq	r0, r0, r1, ror #1
    40a4:	011c2a01 	tsteq	ip, r1, lsl #20
    40a8:	91020000 	mrsls	r0, (UNDEF: 2)
    40ac:	0a94096c 	beq	fe506664 <FlashDriver+0xfe5048a0>
    40b0:	2a010000 	bcs	440b8 <FlashDriver+0x422f4>
    40b4:	0000003e 	andeq	r0, r0, lr, lsr r0
    40b8:	0a6b9102 	beq	1ae84c8 <FlashDriver+0x1ae6704>
    40bc:	00000207 	andeq	r0, r0, r7, lsl #4
    40c0:	01842c01 	orreq	r2, r4, r1, lsl #24
    40c4:	91020000 	mrsls	r0, (UNDEF: 2)
    40c8:	01530a70 	cmpeq	r3, r0, ror sl
    40cc:	2d010000 	stccs	0, cr0, [r1, #-0]
    40d0:	0000005e 	andeq	r0, r0, lr, asr r0
    40d4:	00749102 	rsbseq	r9, r4, r2, lsl #2
    40d8:	00003e0b 	andeq	r3, r0, fp, lsl #28
    40dc:	00019400 	andeq	r9, r1, r0, lsl #8
    40e0:	01940c00 	orrseq	r0, r4, r0, lsl #24
    40e4:	00010000 	andeq	r0, r1, r0
    40e8:	ce070403 	cdpgt	4, 0, cr0, cr7, cr3, {0}
    40ec:	00000000 	andeq	r0, r0, r0

Disassembly of section .debug_abbrev:

00000000 <.debug_abbrev>:
       0:	25011101 	strcs	r1, [r1, #-257]	; 0xfffffeff
       4:	030b130e 	movweq	r1, #45838	; 0xb30e
       8:	110e1b0e 	tstne	lr, lr, lsl #22
       c:	10011201 	andne	r1, r1, r1, lsl #4
      10:	02000006 	andeq	r0, r0, #6
      14:	0b0b0024 	bleq	2c00ac <FlashDriver+0x2be2e8>
      18:	0e030b3e 	vmoveq.16	d3[0], r0
      1c:	16030000 	strne	r0, [r3], -r0
      20:	3a0e0300 	bcc	380c28 <FlashDriver+0x37ee64>
      24:	490b3b0b 	stmdbmi	fp, {r0, r1, r3, r8, r9, fp, ip, sp}
      28:	04000013 	streq	r0, [r0], #-19	; 0xffffffed
      2c:	0b0b000f 	bleq	2c0070 <FlashDriver+0x2be2ac>
      30:	00001349 	andeq	r1, r0, r9, asr #6
      34:	27011505 	strcs	r1, [r1, -r5, lsl #10]
      38:	0113490c 	tsteq	r3, ip, lsl #18
      3c:	06000013 			; <UNDEFINED> instruction: 0x06000013
      40:	13490005 	movtne	r0, #36869	; 0x9005
      44:	24070000 	strcs	r0, [r7], #-0
      48:	3e0b0b00 	vmlacc.f64	d0, d11, d0
      4c:	0008030b 	andeq	r0, r8, fp, lsl #6
      50:	012e0800 	teqeq	lr, r0, lsl #16
      54:	0e030c3f 	mcreq	12, 0, r0, cr3, cr15, {1}
      58:	0b3b0b3a 	bleq	ec2d48 <FlashDriver+0xec0f84>
      5c:	01110c27 	tsteq	r1, r7, lsr #24
      60:	0a400112 	beq	10004b0 <FlashDriver+0xffe6ec>
      64:	010c4297 			; <UNDEFINED> instruction: 0x010c4297
      68:	09000013 	stmdbeq	r0, {r0, r1, r4}
      6c:	0e030005 	cdpeq	0, 0, cr0, cr3, cr5, {0}
      70:	0b3b0b3a 	bleq	ec2d60 <FlashDriver+0xec0f9c>
      74:	0a021349 	beq	84da0 <FlashDriver+0x82fdc>
      78:	2e0a0000 	cdpcs	0, 0, cr0, cr10, cr0, {0}
      7c:	030c3f01 	movweq	r3, #52993	; 0xcf01
      80:	3b0b3a0e 	blcc	2ce8c0 <FlashDriver+0x2ccafc>
      84:	490c270b 	stmdbmi	ip, {r0, r1, r3, r8, r9, sl, sp}
      88:	12011113 	andne	r1, r1, #-1073741820	; 0xc0000004
      8c:	96064001 	strls	r4, [r6], -r1
      90:	00000c42 	andeq	r0, r0, r2, asr #24
      94:	0300340b 	movweq	r3, #1035	; 0x40b
      98:	3b0b3a0e 	blcc	2ce8d8 <FlashDriver+0x2ccb14>
      9c:	0213490b 	andseq	r4, r3, #180224	; 0x2c000
      a0:	0000000a 	andeq	r0, r0, sl
      a4:	25011101 	strcs	r1, [r1, #-257]	; 0xfffffeff
      a8:	030b130e 	movweq	r1, #45838	; 0xb30e
      ac:	110e1b0e 	tstne	lr, lr, lsl #22
      b0:	10011201 	andne	r1, r1, r1, lsl #4
      b4:	02000006 	andeq	r0, r0, #6
      b8:	0e030016 	mcreq	0, 0, r0, cr3, cr6, {0}
      bc:	0b3b0b3a 	bleq	ec2dac <FlashDriver+0xec0fe8>
      c0:	00001349 	andeq	r1, r0, r9, asr #6
      c4:	0b002403 	bleq	90d8 <FlashDriver+0x7314>
      c8:	030b3e0b 	movweq	r3, #48651	; 0xbe0b
      cc:	0400000e 	streq	r0, [r0], #-14
      d0:	0b0b000f 	bleq	2c0114 <FlashDriver+0x2be350>
      d4:	00001349 	andeq	r1, r0, r9, asr #6
      d8:	27001505 	strcs	r1, [r0, -r5, lsl #10]
      dc:	0600000c 	streq	r0, [r0], -ip
      e0:	0e030113 	mcreq	1, 0, r0, cr3, cr3, {0}
      e4:	0b3a0b0b 	bleq	e82d18 <FlashDriver+0xe80f54>
      e8:	13010b3b 	movwne	r0, #6971	; 0x1b3b
      ec:	0d070000 	stceq	0, cr0, [r7, #-0]
      f0:	3a0e0300 	bcc	380cf8 <FlashDriver+0x37ef34>
      f4:	490b3b0b 	stmdbmi	fp, {r0, r1, r3, r8, r9, fp, ip, sp}
      f8:	000a3813 	andeq	r3, sl, r3, lsl r8
      fc:	00160800 	andseq	r0, r6, r0, lsl #16
     100:	0b3a0e03 	bleq	e83914 <FlashDriver+0xe81b50>
     104:	1349053b 	movtne	r0, #38203	; 0x953b
     108:	15090000 	strne	r0, [r9, #-0]
     10c:	490c2701 	stmdbmi	ip, {r0, r8, r9, sl, sp}
     110:	00130113 	andseq	r0, r3, r3, lsl r1
     114:	00050a00 	andeq	r0, r5, r0, lsl #20
     118:	00001349 	andeq	r1, r0, r9, asr #6
     11c:	3f012e0b 	svccc	0x00012e0b
     120:	3a0e030c 	bcc	380d58 <FlashDriver+0x37ef94>
     124:	270b3b0b 	strcs	r3, [fp, -fp, lsl #22]
     128:	1113490c 	tstne	r3, ip, lsl #18
     12c:	40011201 	andmi	r1, r1, r1, lsl #4
     130:	0c429606 	mcrreq	6, 0, r9, r2, cr6
     134:	00001301 	andeq	r1, r0, r1, lsl #6
     138:	0300050c 	movweq	r0, #1292	; 0x50c
     13c:	3b0b3a0e 	blcc	2ce97c <FlashDriver+0x2ccbb8>
     140:	0213490b 	andseq	r4, r3, #180224	; 0x2c000
     144:	0d00000a 	stceq	0, cr0, [r0, #-40]	; 0xffffffd8
     148:	0e030034 	mcreq	0, 0, r0, cr3, cr4, {1}
     14c:	0b3b0b3a 	bleq	ec2e3c <FlashDriver+0xec1078>
     150:	0a021349 	beq	84e7c <FlashDriver+0x830b8>
     154:	010e0000 	mrseq	r0, (UNDEF: 14)
     158:	01134901 	tsteq	r3, r1, lsl #18
     15c:	0f000013 	svceq	0x00000013
     160:	13490021 	movtne	r0, #36897	; 0x9021
     164:	00000b2f 	andeq	r0, r0, pc, lsr #22
     168:	01110100 	tsteq	r1, r0, lsl #2
     16c:	0b130e25 	bleq	4c3a08 <FlashDriver+0x4c1c44>
     170:	0e1b0e03 	cdpeq	14, 1, cr0, cr11, cr3, {0}
     174:	01120111 	tsteq	r2, r1, lsl r1
     178:	00000610 	andeq	r0, r0, r0, lsl r6
     17c:	03001602 	movweq	r1, #1538	; 0x602
     180:	3b0b3a0e 	blcc	2ce9c0 <FlashDriver+0x2ccbfc>
     184:	0013490b 	andseq	r4, r3, fp, lsl #18
     188:	00240300 	eoreq	r0, r4, r0, lsl #6
     18c:	0b3e0b0b 	bleq	f82dc0 <FlashDriver+0xf80ffc>
     190:	00000e03 	andeq	r0, r0, r3, lsl #28
     194:	49003504 	stmdbmi	r0, {r2, r8, sl, ip, sp}
     198:	05000013 	streq	r0, [r0, #-19]	; 0xffffffed
     19c:	0b0b000f 	bleq	2c01e0 <FlashDriver+0x2be41c>
     1a0:	00001349 	andeq	r1, r0, r9, asr #6
     1a4:	27001506 	strcs	r1, [r0, -r6, lsl #10]
     1a8:	0700000c 	streq	r0, [r0, -ip]
     1ac:	0e030113 	mcreq	1, 0, r0, cr3, cr3, {0}
     1b0:	0b3a0b0b 	bleq	e82de4 <FlashDriver+0xe81020>
     1b4:	13010b3b 	movwne	r0, #6971	; 0x1b3b
     1b8:	0d080000 	stceq	0, cr0, [r8, #-0]
     1bc:	3a0e0300 	bcc	380dc4 <FlashDriver+0x37f000>
     1c0:	490b3b0b 	stmdbmi	fp, {r0, r1, r3, r8, r9, fp, ip, sp}
     1c4:	000a3813 	andeq	r3, sl, r3, lsl r8
     1c8:	012e0900 	teqeq	lr, r0, lsl #18
     1cc:	0e030c3f 	mcreq	12, 0, r0, cr3, cr15, {1}
     1d0:	0b3b0b3a 	bleq	ec2ec0 <FlashDriver+0xec10fc>
     1d4:	13490c27 	movtne	r0, #39975	; 0x9c27
     1d8:	01120111 	tsteq	r2, r1, lsl r1
     1dc:	42970640 	addsmi	r0, r7, #64, 12	; 0x4000000
     1e0:	0a00000c 	beq	218 <EEEWrite+0xbc>
     1e4:	0e030005 	cdpeq	0, 0, cr0, cr3, cr5, {0}
     1e8:	0b3b0b3a 	bleq	ec2ed8 <FlashDriver+0xec1114>
     1ec:	0a021349 	beq	84f18 <FlashDriver+0x83154>
     1f0:	340b0000 	strcc	r0, [fp], #-0
     1f4:	3a0e0300 	bcc	380dfc <FlashDriver+0x37f038>
     1f8:	490b3b0b 	stmdbmi	fp, {r0, r1, r3, r8, r9, fp, ip, sp}
     1fc:	000a0213 	andeq	r0, sl, r3, lsl r2
     200:	000a0c00 	andeq	r0, sl, r0, lsl #24
     204:	0b3a0e03 	bleq	e83a18 <FlashDriver+0xe81c54>
     208:	01110b3b 	tsteq	r1, fp, lsr fp
     20c:	01000000 	mrseq	r0, (UNDEF: 0)
     210:	0e250111 	mcreq	1, 1, r0, cr5, cr1, {0}
     214:	0e030b13 	vmoveq.32	d3[0], r0
     218:	01110e1b 	tsteq	r1, fp, lsl lr
     21c:	06100112 			; <UNDEFINED> instruction: 0x06100112
     220:	16020000 	strne	r0, [r2], -r0
     224:	3a0e0300 	bcc	380e2c <FlashDriver+0x37f068>
     228:	490b3b0b 	stmdbmi	fp, {r0, r1, r3, r8, r9, fp, ip, sp}
     22c:	03000013 	movweq	r0, #19
     230:	0b0b0024 	bleq	2c02c8 <FlashDriver+0x2be504>
     234:	0e030b3e 	vmoveq.16	d3[0], r0
     238:	35040000 	strcc	r0, [r4, #-0]
     23c:	00134900 	andseq	r4, r3, r0, lsl #18
     240:	000f0500 	andeq	r0, pc, r0, lsl #10
     244:	13490b0b 	movtne	r0, #39691	; 0x9b0b
     248:	15060000 	strne	r0, [r6, #-0]
     24c:	000c2700 	andeq	r2, ip, r0, lsl #14
     250:	01130700 	tsteq	r3, r0, lsl #14
     254:	0b0b0e03 	bleq	2c3a68 <FlashDriver+0x2c1ca4>
     258:	0b3b0b3a 	bleq	ec2f48 <FlashDriver+0xec1184>
     25c:	00001301 	andeq	r1, r0, r1, lsl #6
     260:	03000d08 	movweq	r0, #3336	; 0xd08
     264:	3b0b3a0e 	blcc	2ceaa4 <FlashDriver+0x2ccce0>
     268:	3813490b 	ldmdacc	r3, {r0, r1, r3, r8, fp, lr}
     26c:	0900000a 	stmdbeq	r0, {r1, r3}
     270:	0c3f012e 	ldfeqs	f0, [pc], #-184	; 1c0 <EEEWrite+0x64>
     274:	0b3a0e03 	bleq	e83a88 <FlashDriver+0xe81cc4>
     278:	0c270b3b 	stceq	11, cr0, [r7], #-236	; 0xffffff14
     27c:	01111349 	tsteq	r1, r9, asr #6
     280:	06400112 			; <UNDEFINED> instruction: 0x06400112
     284:	000c4297 	muleq	ip, r7, r2
     288:	00050a00 	andeq	r0, r5, r0, lsl #20
     28c:	0b3a0e03 	bleq	e83aa0 <FlashDriver+0xe81cdc>
     290:	13490b3b 	movtne	r0, #39739	; 0x9b3b
     294:	00000a02 	andeq	r0, r0, r2, lsl #20
     298:	0300340b 	movweq	r3, #1035	; 0x40b
     29c:	3b0b3a0e 	blcc	2ceadc <FlashDriver+0x2ccd18>
     2a0:	0213490b 	andseq	r4, r3, #180224	; 0x2c000
     2a4:	0c00000a 	stceq	0, cr0, [r0], {10}
     2a8:	0e03000a 	cdpeq	0, 0, cr0, cr3, cr10, {0}
     2ac:	0b3b0b3a 	bleq	ec2f9c <FlashDriver+0xec11d8>
     2b0:	00000111 	andeq	r0, r0, r1, lsl r1
     2b4:	01110100 	tsteq	r1, r0, lsl #2
     2b8:	0b130e25 	bleq	4c3b54 <FlashDriver+0x4c1d90>
     2bc:	0e1b0e03 	cdpeq	14, 1, cr0, cr11, cr3, {0}
     2c0:	01120111 	tsteq	r2, r1, lsl r1
     2c4:	00000610 	andeq	r0, r0, r0, lsl r6
     2c8:	03001602 	movweq	r1, #1538	; 0x602
     2cc:	3b0b3a0e 	blcc	2ceb0c <FlashDriver+0x2ccd48>
     2d0:	0013490b 	andseq	r4, r3, fp, lsl #18
     2d4:	00240300 	eoreq	r0, r4, r0, lsl #6
     2d8:	0b3e0b0b 	bleq	f82f0c <FlashDriver+0xf81148>
     2dc:	00000e03 	andeq	r0, r0, r3, lsl #28
     2e0:	49003504 	stmdbmi	r0, {r2, r8, sl, ip, sp}
     2e4:	05000013 	streq	r0, [r0, #-19]	; 0xffffffed
     2e8:	0b0b000f 	bleq	2c032c <FlashDriver+0x2be568>
     2ec:	00001349 	andeq	r1, r0, r9, asr #6
     2f0:	27001506 	strcs	r1, [r0, -r6, lsl #10]
     2f4:	0700000c 	streq	r0, [r0, -ip]
     2f8:	0e030113 	mcreq	1, 0, r0, cr3, cr3, {0}
     2fc:	0b3a0b0b 	bleq	e82f30 <FlashDriver+0xe8116c>
     300:	13010b3b 	movwne	r0, #6971	; 0x1b3b
     304:	0d080000 	stceq	0, cr0, [r8, #-0]
     308:	3a0e0300 	bcc	380f10 <FlashDriver+0x37f14c>
     30c:	490b3b0b 	stmdbmi	fp, {r0, r1, r3, r8, r9, fp, ip, sp}
     310:	000a3813 	andeq	r3, sl, r3, lsl r8
     314:	012e0900 	teqeq	lr, r0, lsl #18
     318:	0e030c3f 	mcreq	12, 0, r0, cr3, cr15, {1}
     31c:	0b3b0b3a 	bleq	ec300c <FlashDriver+0xec1248>
     320:	13490c27 	movtne	r0, #39975	; 0x9c27
     324:	01120111 	tsteq	r2, r1, lsl r1
     328:	42970640 	addsmi	r0, r7, #64, 12	; 0x4000000
     32c:	0a00000c 	beq	364 <FlashProgramPhrase+0x48>
     330:	0e030005 	cdpeq	0, 0, cr0, cr3, cr5, {0}
     334:	0b3b0b3a 	bleq	ec3024 <FlashDriver+0xec1260>
     338:	0a021349 	beq	85064 <FlashDriver+0x832a0>
     33c:	340b0000 	strcc	r0, [fp], #-0
     340:	3a0e0300 	bcc	380f48 <FlashDriver+0x37f184>
     344:	490b3b0b 	stmdbmi	fp, {r0, r1, r3, r8, r9, fp, ip, sp}
     348:	000a0213 	andeq	r0, sl, r3, lsl r2
     34c:	000a0c00 	andeq	r0, sl, r0, lsl #24
     350:	0b3a0e03 	bleq	e83b64 <FlashDriver+0xe81da0>
     354:	01110b3b 	tsteq	r1, fp, lsr fp
     358:	01000000 	mrseq	r0, (UNDEF: 0)
     35c:	0e250111 	mcreq	1, 1, r0, cr5, cr1, {0}
     360:	0e030b13 	vmoveq.32	d3[0], r0
     364:	01110e1b 	tsteq	r1, fp, lsl lr
     368:	06100112 			; <UNDEFINED> instruction: 0x06100112
     36c:	16020000 	strne	r0, [r2], -r0
     370:	3a0e0300 	bcc	380f78 <FlashDriver+0x37f1b4>
     374:	490b3b0b 	stmdbmi	fp, {r0, r1, r3, r8, r9, fp, ip, sp}
     378:	03000013 	movweq	r0, #19
     37c:	0b0b0024 	bleq	2c0414 <FlashDriver+0x2be650>
     380:	0e030b3e 	vmoveq.16	d3[0], r0
     384:	35040000 	strcc	r0, [r4, #-0]
     388:	00134900 	andseq	r4, r3, r0, lsl #18
     38c:	000f0500 	andeq	r0, pc, r0, lsl #10
     390:	13490b0b 	movtne	r0, #39691	; 0x9b0b
     394:	15060000 	strne	r0, [r6, #-0]
     398:	000c2700 	andeq	r2, ip, r0, lsl #14
     39c:	01130700 	tsteq	r3, r0, lsl #14
     3a0:	0b0b0e03 	bleq	2c3bb4 <FlashDriver+0x2c1df0>
     3a4:	0b3b0b3a 	bleq	ec3094 <FlashDriver+0xec12d0>
     3a8:	00001301 	andeq	r1, r0, r1, lsl #6
     3ac:	03000d08 	movweq	r0, #3336	; 0xd08
     3b0:	3b0b3a0e 	blcc	2cebf0 <FlashDriver+0x2cce2c>
     3b4:	3813490b 	ldmdacc	r3, {r0, r1, r3, r8, fp, lr}
     3b8:	0900000a 	stmdbeq	r0, {r1, r3}
     3bc:	0c3f012e 	ldfeqs	f0, [pc], #-184	; 30c <EERAMSetProtection+0xa4>
     3c0:	0b3a0e03 	bleq	e83bd4 <FlashDriver+0xe81e10>
     3c4:	0c270b3b 	stceq	11, cr0, [r7], #-236	; 0xffffff14
     3c8:	01111349 	tsteq	r1, r9, asr #6
     3cc:	06400112 			; <UNDEFINED> instruction: 0x06400112
     3d0:	000c4297 	muleq	ip, r7, r2
     3d4:	00050a00 	andeq	r0, r5, r0, lsl #20
     3d8:	0b3a0e03 	bleq	e83bec <FlashDriver+0xe81e28>
     3dc:	13490b3b 	movtne	r0, #39739	; 0x9b3b
     3e0:	00000a02 	andeq	r0, r0, r2, lsl #20
     3e4:	0300340b 	movweq	r3, #1035	; 0x40b
     3e8:	3b0b3a0e 	blcc	2cec28 <FlashDriver+0x2cce64>
     3ec:	0213490b 	andseq	r4, r3, #180224	; 0x2c000
     3f0:	0c00000a 	stceq	0, cr0, [r0], {10}
     3f4:	0e03000a 	cdpeq	0, 0, cr0, cr3, cr10, {0}
     3f8:	0b3b0b3a 	bleq	ec30e8 <FlashDriver+0xec1324>
     3fc:	00000111 	andeq	r0, r0, r1, lsl r1
     400:	01110100 	tsteq	r1, r0, lsl #2
     404:	0b130e25 	bleq	4c3ca0 <FlashDriver+0x4c1edc>
     408:	0e1b0e03 	cdpeq	14, 1, cr0, cr11, cr3, {0}
     40c:	01120111 	tsteq	r2, r1, lsl r1
     410:	00000610 	andeq	r0, r0, r0, lsl r6
     414:	03001602 	movweq	r1, #1538	; 0x602
     418:	3b0b3a0e 	blcc	2cec58 <FlashDriver+0x2cce94>
     41c:	0013490b 	andseq	r4, r3, fp, lsl #18
     420:	00240300 	eoreq	r0, r4, r0, lsl #6
     424:	0b3e0b0b 	bleq	f83058 <FlashDriver+0xf81294>
     428:	00000e03 	andeq	r0, r0, r3, lsl #28
     42c:	49003504 	stmdbmi	r0, {r2, r8, sl, ip, sp}
     430:	05000013 	streq	r0, [r0, #-19]	; 0xffffffed
     434:	0b0b000f 	bleq	2c0478 <FlashDriver+0x2be6b4>
     438:	00001349 	andeq	r1, r0, r9, asr #6
     43c:	27001506 	strcs	r1, [r0, -r6, lsl #10]
     440:	0700000c 	streq	r0, [r0, -ip]
     444:	0e030113 	mcreq	1, 0, r0, cr3, cr3, {0}
     448:	0b3a0b0b 	bleq	e8307c <FlashDriver+0xe812b8>
     44c:	13010b3b 	movwne	r0, #6971	; 0x1b3b
     450:	0d080000 	stceq	0, cr0, [r8, #-0]
     454:	3a0e0300 	bcc	38105c <FlashDriver+0x37f298>
     458:	490b3b0b 	stmdbmi	fp, {r0, r1, r3, r8, r9, fp, ip, sp}
     45c:	000a3813 	andeq	r3, sl, r3, lsl r8
     460:	012e0900 	teqeq	lr, r0, lsl #18
     464:	0e030c3f 	mcreq	12, 0, r0, cr3, cr15, {1}
     468:	0b3b0b3a 	bleq	ec3158 <FlashDriver+0xec1394>
     46c:	13490c27 	movtne	r0, #39975	; 0x9c27
     470:	01120111 	tsteq	r2, r1, lsl r1
     474:	42970640 	addsmi	r0, r7, #64, 12	; 0x4000000
     478:	0a00000c 	beq	4b0 <FlashInit+0x34>
     47c:	0e030005 	cdpeq	0, 0, cr0, cr3, cr5, {0}
     480:	0b3b0b3a 	bleq	ec3170 <FlashDriver+0xec13ac>
     484:	0a021349 	beq	851b0 <FlashDriver+0x833ec>
     488:	340b0000 	strcc	r0, [fp], #-0
     48c:	3a0e0300 	bcc	381094 <FlashDriver+0x37f2d0>
     490:	490b3b0b 	stmdbmi	fp, {r0, r1, r3, r8, r9, fp, ip, sp}
     494:	000a0213 	andeq	r0, sl, r3, lsl r2
     498:	000a0c00 	andeq	r0, sl, r0, lsl #24
     49c:	0b3a0e03 	bleq	e83cb0 <FlashDriver+0xe81eec>
     4a0:	01110b3b 	tsteq	r1, fp, lsr fp
     4a4:	01000000 	mrseq	r0, (UNDEF: 0)
     4a8:	0e250111 	mcreq	1, 1, r0, cr5, cr1, {0}
     4ac:	0e030b13 	vmoveq.32	d3[0], r0
     4b0:	01110e1b 	tsteq	r1, fp, lsl lr
     4b4:	06100112 			; <UNDEFINED> instruction: 0x06100112
     4b8:	24020000 	strcs	r0, [r2], #-0
     4bc:	3e0b0b00 	vmlacc.f64	d0, d11, d0
     4c0:	000e030b 	andeq	r0, lr, fp, lsl #6
     4c4:	00160300 	andseq	r0, r6, r0, lsl #6
     4c8:	0b3a0e03 	bleq	e83cdc <FlashDriver+0xe81f18>
     4cc:	13490b3b 	movtne	r0, #39739	; 0x9b3b
     4d0:	35040000 	strcc	r0, [r4, #-0]
     4d4:	00134900 	andseq	r4, r3, r0, lsl #18
     4d8:	000f0500 	andeq	r0, pc, r0, lsl #10
     4dc:	13490b0b 	movtne	r0, #39691	; 0x9b0b
     4e0:	15060000 	strne	r0, [r6, #-0]
     4e4:	000c2700 	andeq	r2, ip, r0, lsl #14
     4e8:	01130700 	tsteq	r3, r0, lsl #14
     4ec:	0b0b0e03 	bleq	2c3d00 <FlashDriver+0x2c1f3c>
     4f0:	0b3b0b3a 	bleq	ec31e0 <FlashDriver+0xec141c>
     4f4:	00001301 	andeq	r1, r0, r1, lsl #6
     4f8:	03000d08 	movweq	r0, #3336	; 0xd08
     4fc:	3b0b3a0e 	blcc	2ced3c <FlashDriver+0x2ccf78>
     500:	3813490b 	ldmdacc	r3, {r0, r1, r3, r8, fp, lr}
     504:	0900000a 	stmdbeq	r0, {r1, r3}
     508:	0e030016 	mcreq	0, 0, r0, cr3, cr6, {0}
     50c:	053b0b3a 	ldreq	r0, [fp, #-2874]!	; 0xfffff4c6
     510:	00001349 	andeq	r1, r0, r9, asr #6
     514:	2701150a 	strcs	r1, [r1, -sl, lsl #10]
     518:	0113490c 	tsteq	r3, ip, lsl #18
     51c:	0b000013 	bleq	570 <FlashEraseSector+0xc>
     520:	13490005 	movtne	r0, #36869	; 0x9005
     524:	2e0c0000 	cdpcs	0, 0, cr0, cr12, cr0, {0}
     528:	030c3f01 	movweq	r3, #52993	; 0xcf01
     52c:	3b0b3a0e 	blcc	2ced6c <FlashDriver+0x2ccfa8>
     530:	490c270b 	stmdbmi	ip, {r0, r1, r3, r8, r9, sl, sp}
     534:	12011113 	andne	r1, r1, #-1073741820	; 0xc0000004
     538:	96064001 	strls	r4, [r6], -r1
     53c:	13010c42 	movwne	r0, #7234	; 0x1c42
     540:	050d0000 	streq	r0, [sp, #-0]
     544:	3a0e0300 	bcc	38114c <FlashDriver+0x37f388>
     548:	490b3b0b 	stmdbmi	fp, {r0, r1, r3, r8, r9, fp, ip, sp}
     54c:	000a0213 	andeq	r0, sl, r3, lsl r2
     550:	00340e00 	eorseq	r0, r4, r0, lsl #28
     554:	0b3a0e03 	bleq	e83d68 <FlashDriver+0xe81fa4>
     558:	13490b3b 	movtne	r0, #39739	; 0x9b3b
     55c:	00000a02 	andeq	r0, r0, r2, lsl #20
     560:	03000a0f 	movweq	r0, #2575	; 0xa0f
     564:	3b0b3a0e 	blcc	2ceda4 <FlashDriver+0x2ccfe0>
     568:	0001110b 	andeq	r1, r1, fp, lsl #2
     56c:	01011000 	mrseq	r1, (UNDEF: 1)
     570:	13011349 	movwne	r1, #4937	; 0x1349
     574:	21110000 	tstcs	r1, r0
     578:	2f134900 	svccs	0x00134900
     57c:	1200000b 	andne	r0, r0, #11
     580:	08030005 	stmdaeq	r3, {r0, r2}
     584:	0b3b0b3a 	bleq	ec3274 <FlashDriver+0xec14b0>
     588:	0a021349 	beq	852b4 <FlashDriver+0x834f0>
     58c:	24130000 	ldrcs	r0, [r3], #-0
     590:	3e0b0b00 	vmlacc.f64	d0, d11, d0
     594:	0008030b 	andeq	r0, r8, fp, lsl #6
     598:	012e1400 	teqeq	lr, r0, lsl #8
     59c:	0e030c3f 	mcreq	12, 0, r0, cr3, cr15, {1}
     5a0:	0b3b0b3a 	bleq	ec3290 <FlashDriver+0xec14cc>
     5a4:	13490c27 	movtne	r0, #39975	; 0x9c27
     5a8:	01120111 	tsteq	r2, r1, lsl r1
     5ac:	42970640 	addsmi	r0, r7, #64, 12	; 0x4000000
     5b0:	0013010c 	andseq	r0, r3, ip, lsl #2
     5b4:	012e1500 	teqeq	lr, r0, lsl #10
     5b8:	0e030c3f 	mcreq	12, 0, r0, cr3, cr15, {1}
     5bc:	053b0b3a 	ldreq	r0, [fp, #-2874]!	; 0xfffff4c6
     5c0:	13490c27 	movtne	r0, #39975	; 0x9c27
     5c4:	01120111 	tsteq	r2, r1, lsl r1
     5c8:	42960640 	addsmi	r0, r6, #64, 12	; 0x4000000
     5cc:	0013010c 	andseq	r0, r3, ip, lsl #2
     5d0:	00051600 	andeq	r1, r5, r0, lsl #12
     5d4:	0b3a0e03 	bleq	e83de8 <FlashDriver+0xe82024>
     5d8:	1349053b 	movtne	r0, #38203	; 0x953b
     5dc:	00000a02 	andeq	r0, r0, r2, lsl #20
     5e0:	3f002e17 	svccc	0x00002e17
     5e4:	3a0e030c 	bcc	38121c <FlashDriver+0x37f458>
     5e8:	27053b0b 	strcs	r3, [r5, -fp, lsl #22]
     5ec:	1113490c 	tstne	r3, ip, lsl #18
     5f0:	40011201 	andmi	r1, r1, r1, lsl #4
     5f4:	0c429606 	mcrreq	6, 0, r9, r2, cr6
     5f8:	05180000 	ldreq	r0, [r8, #-0]
     5fc:	3a080300 	bcc	201204 <FlashDriver+0x1ff440>
     600:	49053b0b 	stmdbmi	r5, {r0, r1, r3, r8, r9, fp, ip, sp}
     604:	000a0213 	andeq	r0, sl, r3, lsl r2
     608:	00341900 	eorseq	r1, r4, r0, lsl #18
     60c:	0b3a0e03 	bleq	e83e20 <FlashDriver+0xe8205c>
     610:	13490b3b 	movtne	r0, #39739	; 0x9b3b
     614:	0a020c3f 	beq	83718 <FlashDriver+0x81954>
     618:	261a0000 	ldrcs	r0, [sl], -r0
     61c:	00134900 	andseq	r4, r3, r0, lsl #18
     620:	11010000 	mrsne	r0, (UNDEF: 1)
     624:	130e2501 	movwne	r2, #58625	; 0xe501
     628:	1b0e030b 	blne	38125c <FlashDriver+0x37f498>
     62c:	0006100e 	andeq	r1, r6, lr
     630:	01130200 	tsteq	r3, r0, lsl #4
     634:	0b0b0e03 	bleq	2c3e48 <FlashDriver+0x2c2084>
     638:	0b3b0b3a 	bleq	ec3328 <FlashDriver+0xec1564>
     63c:	00001301 	andeq	r1, r0, r1, lsl #6
     640:	03000d03 	movweq	r0, #3331	; 0xd03
     644:	3b0b3a0e 	blcc	2cee84 <FlashDriver+0x2cd0c0>
     648:	3813490b 	ldmdacc	r3, {r0, r1, r3, r8, fp, lr}
     64c:	0400000a 	streq	r0, [r0], #-10
     650:	0b0b0024 	bleq	2c06e8 <FlashDriver+0x2be924>
     654:	0e030b3e 	vmoveq.16	d3[0], r0
     658:	13050000 	movwne	r0, #20480	; 0x5000
     65c:	0b0e0301 	bleq	381268 <FlashDriver+0x37f4a4>
     660:	3b0b3a05 	blcc	2cee7c <FlashDriver+0x2cd0b8>
     664:	0013010b 	andseq	r0, r3, fp, lsl #2
     668:	01010600 	tsteq	r1, r0, lsl #12
     66c:	13011349 	movwne	r1, #4937	; 0x1349
     670:	21070000 	mrscs	r0, (UNDEF: 7)
     674:	2f134900 	svccs	0x00134900
     678:	08000005 	stmdaeq	r0, {r0, r2}
     67c:	13490021 	movtne	r0, #36897	; 0x9021
     680:	00000b2f 	andeq	r0, r0, pc, lsr #22
     684:	03003409 	movweq	r3, #1033	; 0x409
     688:	3b0b3a0e 	blcc	2ceec8 <FlashDriver+0x2cd104>
     68c:	3f13490b 	svccc	0x0013490b
     690:	000a020c 	andeq	r0, sl, ip, lsl #4
     694:	00260a00 	eoreq	r0, r6, r0, lsl #20
     698:	00001349 	andeq	r1, r0, r9, asr #6
     69c:	01110100 	tsteq	r1, r0, lsl #2
     6a0:	0b130e25 	bleq	4c3f3c <FlashDriver+0x4c2178>
     6a4:	0e1b0e03 	cdpeq	14, 1, cr0, cr11, cr3, {0}
     6a8:	01120111 	tsteq	r2, r1, lsl r1
     6ac:	00000610 	andeq	r0, r0, r0, lsl r6
     6b0:	03001602 	movweq	r1, #1538	; 0x602
     6b4:	3b0b3a0e 	blcc	2ceef4 <FlashDriver+0x2cd130>
     6b8:	0013490b 	andseq	r4, r3, fp, lsl #18
     6bc:	00240300 	eoreq	r0, r4, r0, lsl #6
     6c0:	0b3e0b0b 	bleq	f832f4 <FlashDriver+0xf81530>
     6c4:	00000e03 	andeq	r0, r0, r3, lsl #28
     6c8:	49003504 	stmdbmi	r0, {r2, r8, sl, ip, sp}
     6cc:	05000013 	streq	r0, [r0, #-19]	; 0xffffffed
     6d0:	0b0b000f 	bleq	2c0714 <FlashDriver+0x2be950>
     6d4:	00001349 	andeq	r1, r0, r9, asr #6
     6d8:	27001506 	strcs	r1, [r0, -r6, lsl #10]
     6dc:	0700000c 	streq	r0, [r0, -ip]
     6e0:	0e030113 	mcreq	1, 0, r0, cr3, cr3, {0}
     6e4:	0b3a0b0b 	bleq	e83318 <FlashDriver+0xe81554>
     6e8:	13010b3b 	movwne	r0, #6971	; 0x1b3b
     6ec:	0d080000 	stceq	0, cr0, [r8, #-0]
     6f0:	3a0e0300 	bcc	3812f8 <FlashDriver+0x37f534>
     6f4:	490b3b0b 	stmdbmi	fp, {r0, r1, r3, r8, r9, fp, ip, sp}
     6f8:	000a3813 	andeq	r3, sl, r3, lsl r8
     6fc:	012e0900 	teqeq	lr, r0, lsl #18
     700:	0e030c3f 	mcreq	12, 0, r0, cr3, cr15, {1}
     704:	0b3b0b3a 	bleq	ec33f4 <FlashDriver+0xec1630>
     708:	13490c27 	movtne	r0, #39975	; 0x9c27
     70c:	01120111 	tsteq	r2, r1, lsl r1
     710:	42960640 	addsmi	r0, r6, #64, 12	; 0x4000000
     714:	0a00000c 	beq	74c <FlashCommandSequence+0x1c>
     718:	0e030005 	cdpeq	0, 0, cr0, cr3, cr5, {0}
     71c:	0b3b0b3a 	bleq	ec340c <FlashDriver+0xec1648>
     720:	0a021349 	beq	8544c <FlashDriver+0x83688>
     724:	340b0000 	strcc	r0, [fp], #-0
     728:	3a0e0300 	bcc	381330 <FlashDriver+0x37f56c>
     72c:	490b3b0b 	stmdbmi	fp, {r0, r1, r3, r8, r9, fp, ip, sp}
     730:	000a0213 	andeq	r0, sl, r3, lsl r2
     734:	000a0c00 	andeq	r0, sl, r0, lsl #24
     738:	0b3a0e03 	bleq	e83f4c <FlashDriver+0xe82188>
     73c:	01110b3b 	tsteq	r1, fp, lsr fp
     740:	01000000 	mrseq	r0, (UNDEF: 0)
     744:	0e250111 	mcreq	1, 1, r0, cr5, cr1, {0}
     748:	0e030b13 	vmoveq.32	d3[0], r0
     74c:	01110e1b 	tsteq	r1, fp, lsl lr
     750:	06100112 			; <UNDEFINED> instruction: 0x06100112
     754:	16020000 	strne	r0, [r2], -r0
     758:	3a0e0300 	bcc	381360 <FlashDriver+0x37f59c>
     75c:	490b3b0b 	stmdbmi	fp, {r0, r1, r3, r8, r9, fp, ip, sp}
     760:	03000013 	movweq	r0, #19
     764:	0b0b0024 	bleq	2c07fc <FlashDriver+0x2bea38>
     768:	0e030b3e 	vmoveq.16	d3[0], r0
     76c:	35040000 	strcc	r0, [r4, #-0]
     770:	00134900 	andseq	r4, r3, r0, lsl #18
     774:	000f0500 	andeq	r0, pc, r0, lsl #10
     778:	13490b0b 	movtne	r0, #39691	; 0x9b0b
     77c:	15060000 	strne	r0, [r6, #-0]
     780:	000c2700 	andeq	r2, ip, r0, lsl #14
     784:	01130700 	tsteq	r3, r0, lsl #14
     788:	0b0b0e03 	bleq	2c3f9c <FlashDriver+0x2c21d8>
     78c:	0b3b0b3a 	bleq	ec347c <FlashDriver+0xec16b8>
     790:	00001301 	andeq	r1, r0, r1, lsl #6
     794:	03000d08 	movweq	r0, #3336	; 0xd08
     798:	3b0b3a0e 	blcc	2cefd8 <FlashDriver+0x2cd214>
     79c:	3813490b 	ldmdacc	r3, {r0, r1, r3, r8, fp, lr}
     7a0:	0900000a 	stmdbeq	r0, {r1, r3}
     7a4:	0c3f012e 	ldfeqs	f0, [pc], #-184	; 6f4 <FlashCheckSum+0x90>
     7a8:	0b3a0e03 	bleq	e83fbc <FlashDriver+0xe821f8>
     7ac:	0c270b3b 	stceq	11, cr0, [r7], #-236	; 0xffffff14
     7b0:	01111349 	tsteq	r1, r9, asr #6
     7b4:	06400112 			; <UNDEFINED> instruction: 0x06400112
     7b8:	000c4296 	muleq	ip, r6, r2
     7bc:	00050a00 	andeq	r0, r5, r0, lsl #20
     7c0:	0b3a0e03 	bleq	e83fd4 <FlashDriver+0xe82210>
     7c4:	13490b3b 	movtne	r0, #39739	; 0x9b3b
     7c8:	00000a02 	andeq	r0, r0, r2, lsl #20
     7cc:	0300340b 	movweq	r3, #1035	; 0x40b
     7d0:	3b0b3a0e 	blcc	2cf010 <FlashDriver+0x2cd24c>
     7d4:	0213490b 	andseq	r4, r3, #180224	; 0x2c000
     7d8:	0000000a 	andeq	r0, r0, sl
     7dc:	25011101 	strcs	r1, [r1, #-257]	; 0xfffffeff
     7e0:	030b130e 	movweq	r1, #45838	; 0xb30e
     7e4:	110e1b0e 	tstne	lr, lr, lsl #22
     7e8:	10011201 	andne	r1, r1, r1, lsl #4
     7ec:	02000006 	andeq	r0, r0, #6
     7f0:	0e030016 	mcreq	0, 0, r0, cr3, cr6, {0}
     7f4:	0b3b0b3a 	bleq	ec34e4 <FlashDriver+0xec1720>
     7f8:	00001349 	andeq	r1, r0, r9, asr #6
     7fc:	0b002403 	bleq	9810 <FlashDriver+0x7a4c>
     800:	030b3e0b 	movweq	r3, #48651	; 0xbe0b
     804:	0400000e 	streq	r0, [r0], #-14
     808:	0b0b000f 	bleq	2c084c <FlashDriver+0x2bea88>
     80c:	00001349 	andeq	r1, r0, r9, asr #6
     810:	27001505 	strcs	r1, [r0, -r5, lsl #10]
     814:	0600000c 	streq	r0, [r0], -ip
     818:	0e030113 	mcreq	1, 0, r0, cr3, cr3, {0}
     81c:	0b3a0b0b 	bleq	e83450 <FlashDriver+0xe8168c>
     820:	13010b3b 	movwne	r0, #6971	; 0x1b3b
     824:	0d070000 	stceq	0, cr0, [r7, #-0]
     828:	3a0e0300 	bcc	381430 <FlashDriver+0x37f66c>
     82c:	490b3b0b 	stmdbmi	fp, {r0, r1, r3, r8, r9, fp, ip, sp}
     830:	000a3813 	andeq	r3, sl, r3, lsl r8
     834:	00160800 	andseq	r0, r6, r0, lsl #16
     838:	0b3a0e03 	bleq	e8404c <FlashDriver+0xe82288>
     83c:	1349053b 	movtne	r0, #38203	; 0x953b
     840:	15090000 	strne	r0, [r9, #-0]
     844:	490c2701 	stmdbmi	ip, {r0, r8, r9, sl, sp}
     848:	00130113 	andseq	r0, r3, r3, lsl r1
     84c:	00050a00 	andeq	r0, r5, r0, lsl #20
     850:	00001349 	andeq	r1, r0, r9, asr #6
     854:	3f012e0b 	svccc	0x00012e0b
     858:	3a0e030c 	bcc	381490 <FlashDriver+0x37f6cc>
     85c:	270b3b0b 	strcs	r3, [fp, -fp, lsl #22]
     860:	1113490c 	tstne	r3, ip, lsl #18
     864:	40011201 	andmi	r1, r1, r1, lsl #4
     868:	0c429606 	mcrreq	6, 0, r9, r2, cr6
     86c:	00001301 	andeq	r1, r0, r1, lsl #6
     870:	0300050c 	movweq	r0, #1292	; 0x50c
     874:	3b0b3a0e 	blcc	2cf0b4 <FlashDriver+0x2cd2f0>
     878:	0213490b 	andseq	r4, r3, #180224	; 0x2c000
     87c:	0d00000a 	stceq	0, cr0, [r0, #-40]	; 0xffffffd8
     880:	0e030034 	mcreq	0, 0, r0, cr3, cr4, {1}
     884:	0b3b0b3a 	bleq	ec3574 <FlashDriver+0xec17b0>
     888:	0a021349 	beq	855b4 <FlashDriver+0x837f0>
     88c:	010e0000 	mrseq	r0, (UNDEF: 14)
     890:	01134901 	tsteq	r3, r1, lsl #18
     894:	0f000013 	svceq	0x00000013
     898:	13490021 	movtne	r0, #36897	; 0x9021
     89c:	00000b2f 	andeq	r0, r0, pc, lsr #22
     8a0:	01110100 	tsteq	r1, r0, lsl #2
     8a4:	0b130e25 	bleq	4c4140 <FlashDriver+0x4c237c>
     8a8:	0e1b0e03 	cdpeq	14, 1, cr0, cr11, cr3, {0}
     8ac:	01120111 	tsteq	r2, r1, lsl r1
     8b0:	00000610 	andeq	r0, r0, r0, lsl r6
     8b4:	03001602 	movweq	r1, #1538	; 0x602
     8b8:	3b0b3a0e 	blcc	2cf0f8 <FlashDriver+0x2cd334>
     8bc:	0013490b 	andseq	r4, r3, fp, lsl #18
     8c0:	00240300 	eoreq	r0, r4, r0, lsl #6
     8c4:	0b3e0b0b 	bleq	f834f8 <FlashDriver+0xf81734>
     8c8:	00000e03 	andeq	r0, r0, r3, lsl #28
     8cc:	0b000f04 	bleq	44e4 <FlashDriver+0x2720>
     8d0:	0013490b 	andseq	r4, r3, fp, lsl #18
     8d4:	00150500 	andseq	r0, r5, r0, lsl #10
     8d8:	00000c27 	andeq	r0, r0, r7, lsr #24
     8dc:	03011306 	movweq	r1, #4870	; 0x1306
     8e0:	3a0b0b0e 	bcc	2c3520 <FlashDriver+0x2c175c>
     8e4:	010b3b0b 	tsteq	fp, fp, lsl #22
     8e8:	07000013 	smladeq	r0, r3, r0, r0
     8ec:	0e03000d 	cdpeq	0, 0, cr0, cr3, cr13, {0}
     8f0:	0b3b0b3a 	bleq	ec35e0 <FlashDriver+0xec181c>
     8f4:	0a381349 	beq	e05620 <FlashDriver+0xe0385c>
     8f8:	16080000 	strne	r0, [r8], -r0
     8fc:	3a0e0300 	bcc	381504 <FlashDriver+0x37f740>
     900:	49053b0b 	stmdbmi	r5, {r0, r1, r3, r8, r9, fp, ip, sp}
     904:	09000013 	stmdbeq	r0, {r0, r1, r4}
     908:	0c270115 	stfeqs	f0, [r7], #-84	; 0xffffffac
     90c:	13011349 	movwne	r1, #4937	; 0x1349
     910:	050a0000 	streq	r0, [sl, #-0]
     914:	00134900 	andseq	r4, r3, r0, lsl #18
     918:	012e0b00 	teqeq	lr, r0, lsl #22
     91c:	0e030c3f 	mcreq	12, 0, r0, cr3, cr15, {1}
     920:	0b3b0b3a 	bleq	ec3610 <FlashDriver+0xec184c>
     924:	13490c27 	movtne	r0, #39975	; 0x9c27
     928:	01120111 	tsteq	r2, r1, lsl r1
     92c:	42960640 	addsmi	r0, r6, #64, 12	; 0x4000000
     930:	0013010c 	andseq	r0, r3, ip, lsl #2
     934:	00050c00 	andeq	r0, r5, r0, lsl #24
     938:	0b3a0e03 	bleq	e8414c <FlashDriver+0xe82388>
     93c:	13490b3b 	movtne	r0, #39739	; 0x9b3b
     940:	00000a02 	andeq	r0, r0, r2, lsl #20
     944:	0300340d 	movweq	r3, #1037	; 0x40d
     948:	3b0b3a0e 	blcc	2cf188 <FlashDriver+0x2cd3c4>
     94c:	0213490b 	andseq	r4, r3, #180224	; 0x2c000
     950:	0e00000a 	cdpeq	0, 0, cr0, cr0, cr10, {0}
     954:	0e03000a 	cdpeq	0, 0, cr0, cr3, cr10, {0}
     958:	0b3b0b3a 	bleq	ec3648 <FlashDriver+0xec1884>
     95c:	00000111 	andeq	r0, r0, r1, lsl r1
     960:	4901010f 	stmdbmi	r1, {r0, r1, r2, r3, r8}
     964:	00130113 	andseq	r0, r3, r3, lsl r1
     968:	00211000 	eoreq	r1, r1, r0
     96c:	0b2f1349 	bleq	bc5698 <FlashDriver+0xbc38d4>
     970:	01000000 	mrseq	r0, (UNDEF: 0)
     974:	0e250111 	mcreq	1, 1, r0, cr5, cr1, {0}
     978:	0e030b13 	vmoveq.32	d3[0], r0
     97c:	01110e1b 	tsteq	r1, fp, lsl lr
     980:	06100112 			; <UNDEFINED> instruction: 0x06100112
     984:	16020000 	strne	r0, [r2], -r0
     988:	3a0e0300 	bcc	381590 <FlashDriver+0x37f7cc>
     98c:	490b3b0b 	stmdbmi	fp, {r0, r1, r3, r8, r9, fp, ip, sp}
     990:	03000013 	movweq	r0, #19
     994:	0b0b0024 	bleq	2c0a2c <FlashDriver+0x2bec68>
     998:	0e030b3e 	vmoveq.16	d3[0], r0
     99c:	35040000 	strcc	r0, [r4, #-0]
     9a0:	00134900 	andseq	r4, r3, r0, lsl #18
     9a4:	000f0500 	andeq	r0, pc, r0, lsl #10
     9a8:	13490b0b 	movtne	r0, #39691	; 0x9b0b
     9ac:	15060000 	strne	r0, [r6, #-0]
     9b0:	000c2700 	andeq	r2, ip, r0, lsl #14
     9b4:	01130700 	tsteq	r3, r0, lsl #14
     9b8:	0b0b0e03 	bleq	2c41cc <FlashDriver+0x2c2408>
     9bc:	0b3b0b3a 	bleq	ec36ac <FlashDriver+0xec18e8>
     9c0:	00001301 	andeq	r1, r0, r1, lsl #6
     9c4:	03000d08 	movweq	r0, #3336	; 0xd08
     9c8:	3b0b3a0e 	blcc	2cf208 <FlashDriver+0x2cd444>
     9cc:	3813490b 	ldmdacc	r3, {r0, r1, r3, r8, fp, lr}
     9d0:	0900000a 	stmdbeq	r0, {r1, r3}
     9d4:	0c3f012e 	ldfeqs	f0, [pc], #-184	; 924 <FlashEraseAllBlock>
     9d8:	0b3a0e03 	bleq	e841ec <FlashDriver+0xe82428>
     9dc:	0c270b3b 	stceq	11, cr0, [r7], #-236	; 0xffffff14
     9e0:	01111349 	tsteq	r1, r9, asr #6
     9e4:	06400112 			; <UNDEFINED> instruction: 0x06400112
     9e8:	000c4297 	muleq	ip, r7, r2
     9ec:	00050a00 	andeq	r0, r5, r0, lsl #20
     9f0:	0b3a0e03 	bleq	e84204 <FlashDriver+0xe82440>
     9f4:	13490b3b 	movtne	r0, #39739	; 0x9b3b
     9f8:	00000a02 	andeq	r0, r0, r2, lsl #20
     9fc:	0300340b 	movweq	r3, #1035	; 0x40b
     a00:	3b0b3a0e 	blcc	2cf240 <FlashDriver+0x2cd47c>
     a04:	0213490b 	andseq	r4, r3, #180224	; 0x2c000
     a08:	0000000a 	andeq	r0, r0, sl
     a0c:	25011101 	strcs	r1, [r1, #-257]	; 0xfffffeff
     a10:	030b130e 	movweq	r1, #45838	; 0xb30e
     a14:	110e1b0e 	tstne	lr, lr, lsl #22
     a18:	10011201 	andne	r1, r1, r1, lsl #4
     a1c:	02000006 	andeq	r0, r0, #6
     a20:	0e030016 	mcreq	0, 0, r0, cr3, cr6, {0}
     a24:	0b3b0b3a 	bleq	ec3714 <FlashDriver+0xec1950>
     a28:	00001349 	andeq	r1, r0, r9, asr #6
     a2c:	0b002403 	bleq	9a40 <FlashDriver+0x7c7c>
     a30:	030b3e0b 	movweq	r3, #48651	; 0xbe0b
     a34:	0400000e 	streq	r0, [r0], #-14
     a38:	0b0b000f 	bleq	2c0a7c <FlashDriver+0x2becb8>
     a3c:	00001349 	andeq	r1, r0, r9, asr #6
     a40:	27001505 	strcs	r1, [r0, -r5, lsl #10]
     a44:	0600000c 	streq	r0, [r0], -ip
     a48:	0e030113 	mcreq	1, 0, r0, cr3, cr3, {0}
     a4c:	0b3a0b0b 	bleq	e83680 <FlashDriver+0xe818bc>
     a50:	13010b3b 	movwne	r0, #6971	; 0x1b3b
     a54:	0d070000 	stceq	0, cr0, [r7, #-0]
     a58:	3a0e0300 	bcc	381660 <FlashDriver+0x37f89c>
     a5c:	490b3b0b 	stmdbmi	fp, {r0, r1, r3, r8, r9, fp, ip, sp}
     a60:	000a3813 	andeq	r3, sl, r3, lsl r8
     a64:	00160800 	andseq	r0, r6, r0, lsl #16
     a68:	0b3a0e03 	bleq	e8427c <FlashDriver+0xe824b8>
     a6c:	1349053b 	movtne	r0, #38203	; 0x953b
     a70:	15090000 	strne	r0, [r9, #-0]
     a74:	490c2701 	stmdbmi	ip, {r0, r8, r9, sl, sp}
     a78:	00130113 	andseq	r0, r3, r3, lsl r1
     a7c:	00050a00 	andeq	r0, r5, r0, lsl #20
     a80:	00001349 	andeq	r1, r0, r9, asr #6
     a84:	3f012e0b 	svccc	0x00012e0b
     a88:	3a0e030c 	bcc	3816c0 <FlashDriver+0x37f8fc>
     a8c:	270b3b0b 	strcs	r3, [fp, -fp, lsl #22]
     a90:	1113490c 	tstne	r3, ip, lsl #18
     a94:	40011201 	andmi	r1, r1, r1, lsl #4
     a98:	0c429606 	mcrreq	6, 0, r9, r2, cr6
     a9c:	00001301 	andeq	r1, r0, r1, lsl #6
     aa0:	0300050c 	movweq	r0, #1292	; 0x50c
     aa4:	3b0b3a0e 	blcc	2cf2e4 <FlashDriver+0x2cd520>
     aa8:	0213490b 	andseq	r4, r3, #180224	; 0x2c000
     aac:	0d00000a 	stceq	0, cr0, [r0, #-40]	; 0xffffffd8
     ab0:	0e030034 	mcreq	0, 0, r0, cr3, cr4, {1}
     ab4:	0b3b0b3a 	bleq	ec37a4 <FlashDriver+0xec19e0>
     ab8:	0a021349 	beq	857e4 <FlashDriver+0x83a20>
     abc:	010e0000 	mrseq	r0, (UNDEF: 14)
     ac0:	01134901 	tsteq	r3, r1, lsl #18
     ac4:	0f000013 	svceq	0x00000013
     ac8:	13490021 	movtne	r0, #36897	; 0x9021
     acc:	00000b2f 	andeq	r0, r0, pc, lsr #22
     ad0:	01110100 	tsteq	r1, r0, lsl #2
     ad4:	0b130e25 	bleq	4c4370 <FlashDriver+0x4c25ac>
     ad8:	0e1b0e03 	cdpeq	14, 1, cr0, cr11, cr3, {0}
     adc:	01120111 	tsteq	r2, r1, lsl r1
     ae0:	00000610 	andeq	r0, r0, r0, lsl r6
     ae4:	03001602 	movweq	r1, #1538	; 0x602
     ae8:	3b0b3a0e 	blcc	2cf328 <FlashDriver+0x2cd564>
     aec:	0013490b 	andseq	r4, r3, fp, lsl #18
     af0:	00240300 	eoreq	r0, r4, r0, lsl #6
     af4:	0b3e0b0b 	bleq	f83728 <FlashDriver+0xf81964>
     af8:	00000e03 	andeq	r0, r0, r3, lsl #28
     afc:	49003504 	stmdbmi	r0, {r2, r8, sl, ip, sp}
     b00:	05000013 	streq	r0, [r0, #-19]	; 0xffffffed
     b04:	0b0b000f 	bleq	2c0b48 <FlashDriver+0x2bed84>
     b08:	00001349 	andeq	r1, r0, r9, asr #6
     b0c:	27001506 	strcs	r1, [r0, -r6, lsl #10]
     b10:	0700000c 	streq	r0, [r0, -ip]
     b14:	0e030113 	mcreq	1, 0, r0, cr3, cr3, {0}
     b18:	0b3a0b0b 	bleq	e8374c <FlashDriver+0xe81988>
     b1c:	13010b3b 	movwne	r0, #6971	; 0x1b3b
     b20:	0d080000 	stceq	0, cr0, [r8, #-0]
     b24:	3a0e0300 	bcc	38172c <FlashDriver+0x37f968>
     b28:	490b3b0b 	stmdbmi	fp, {r0, r1, r3, r8, r9, fp, ip, sp}
     b2c:	000a3813 	andeq	r3, sl, r3, lsl r8
     b30:	012e0900 	teqeq	lr, r0, lsl #18
     b34:	0e030c3f 	mcreq	12, 0, r0, cr3, cr15, {1}
     b38:	0b3b0b3a 	bleq	ec3828 <FlashDriver+0xec1a64>
     b3c:	13490c27 	movtne	r0, #39975	; 0x9c27
     b40:	01120111 	tsteq	r2, r1, lsl r1
     b44:	42970640 	addsmi	r0, r7, #64, 12	; 0x4000000
     b48:	0a00000c 	beq	b80 <FlashGetSecurityState+0x3c>
     b4c:	0e030005 	cdpeq	0, 0, cr0, cr3, cr5, {0}
     b50:	0b3b0b3a 	bleq	ec3840 <FlashDriver+0xec1a7c>
     b54:	0a021349 	beq	85880 <FlashDriver+0x83abc>
     b58:	340b0000 	strcc	r0, [fp], #-0
     b5c:	3a0e0300 	bcc	381764 <FlashDriver+0x37f9a0>
     b60:	490b3b0b 	stmdbmi	fp, {r0, r1, r3, r8, r9, fp, ip, sp}
     b64:	000a0213 	andeq	r0, sl, r3, lsl r2
     b68:	11010000 	mrsne	r0, (UNDEF: 1)
     b6c:	130e2501 	movwne	r2, #58625	; 0xe501
     b70:	1b0e030b 	blne	3817a4 <FlashDriver+0x37f9e0>
     b74:	1201110e 	andne	r1, r1, #-2147483645	; 0x80000003
     b78:	00061001 	andeq	r1, r6, r1
     b7c:	00160200 	andseq	r0, r6, r0, lsl #4
     b80:	0b3a0e03 	bleq	e84394 <FlashDriver+0xe825d0>
     b84:	13490b3b 	movtne	r0, #39739	; 0x9b3b
     b88:	24030000 	strcs	r0, [r3], #-0
     b8c:	3e0b0b00 	vmlacc.f64	d0, d11, d0
     b90:	000e030b 	andeq	r0, lr, fp, lsl #6
     b94:	00350400 	eorseq	r0, r5, r0, lsl #8
     b98:	00001349 	andeq	r1, r0, r9, asr #6
     b9c:	0b000f05 	bleq	47b8 <FlashDriver+0x29f4>
     ba0:	0013490b 	andseq	r4, r3, fp, lsl #18
     ba4:	00150600 	andseq	r0, r5, r0, lsl #12
     ba8:	00000c27 	andeq	r0, r0, r7, lsr #24
     bac:	03011307 	movweq	r1, #4871	; 0x1307
     bb0:	3a0b0b0e 	bcc	2c37f0 <FlashDriver+0x2c1a2c>
     bb4:	010b3b0b 	tsteq	fp, fp, lsl #22
     bb8:	08000013 	stmdaeq	r0, {r0, r1, r4}
     bbc:	0e03000d 	cdpeq	0, 0, cr0, cr3, cr13, {0}
     bc0:	0b3b0b3a 	bleq	ec38b0 <FlashDriver+0xec1aec>
     bc4:	0a381349 	beq	e058f0 <FlashDriver+0xe03b2c>
     bc8:	2e090000 	cdpcs	0, 0, cr0, cr9, cr0, {0}
     bcc:	030c3f01 	movweq	r3, #52993	; 0xcf01
     bd0:	3b0b3a0e 	blcc	2cf410 <FlashDriver+0x2cd64c>
     bd4:	490c270b 	stmdbmi	ip, {r0, r1, r3, r8, r9, sl, sp}
     bd8:	12011113 	andne	r1, r1, #-1073741820	; 0xc0000004
     bdc:	97064001 	strls	r4, [r6, -r1]
     be0:	00000c42 	andeq	r0, r0, r2, asr #24
     be4:	0300050a 	movweq	r0, #1290	; 0x50a
     be8:	3b0b3a0e 	blcc	2cf428 <FlashDriver+0x2cd664>
     bec:	0213490b 	andseq	r4, r3, #180224	; 0x2c000
     bf0:	0b00000a 	bleq	c20 <FlashInit0+0x84>
     bf4:	0e030034 	mcreq	0, 0, r0, cr3, cr4, {1}
     bf8:	0b3b0b3a 	bleq	ec38e8 <FlashDriver+0xec1b24>
     bfc:	0a021349 	beq	85928 <FlashDriver+0x83b64>
     c00:	01000000 	mrseq	r0, (UNDEF: 0)
     c04:	0e250111 	mcreq	1, 1, r0, cr5, cr1, {0}
     c08:	0e030b13 	vmoveq.32	d3[0], r0
     c0c:	01110e1b 	tsteq	r1, fp, lsl lr
     c10:	06100112 			; <UNDEFINED> instruction: 0x06100112
     c14:	16020000 	strne	r0, [r2], -r0
     c18:	3a0e0300 	bcc	381820 <FlashDriver+0x37fa5c>
     c1c:	490b3b0b 	stmdbmi	fp, {r0, r1, r3, r8, r9, fp, ip, sp}
     c20:	03000013 	movweq	r0, #19
     c24:	0b0b0024 	bleq	2c0cbc <FlashDriver+0x2beef8>
     c28:	0e030b3e 	vmoveq.16	d3[0], r0
     c2c:	35040000 	strcc	r0, [r4, #-0]
     c30:	00134900 	andseq	r4, r3, r0, lsl #18
     c34:	000f0500 	andeq	r0, pc, r0, lsl #10
     c38:	13490b0b 	movtne	r0, #39691	; 0x9b0b
     c3c:	15060000 	strne	r0, [r6, #-0]
     c40:	000c2700 	andeq	r2, ip, r0, lsl #14
     c44:	01130700 	tsteq	r3, r0, lsl #14
     c48:	0b0b0e03 	bleq	2c445c <FlashDriver+0x2c2698>
     c4c:	0b3b0b3a 	bleq	ec393c <FlashDriver+0xec1b78>
     c50:	00001301 	andeq	r1, r0, r1, lsl #6
     c54:	03000d08 	movweq	r0, #3336	; 0xd08
     c58:	3b0b3a0e 	blcc	2cf498 <FlashDriver+0x2cd6d4>
     c5c:	3813490b 	ldmdacc	r3, {r0, r1, r3, r8, fp, lr}
     c60:	0900000a 	stmdbeq	r0, {r1, r3}
     c64:	0c3f012e 	ldfeqs	f0, [pc], #-184	; bb4 <FlashInit0+0x18>
     c68:	0b3a0e03 	bleq	e8447c <FlashDriver+0xe826b8>
     c6c:	0c270b3b 	stceq	11, cr0, [r7], #-236	; 0xffffff14
     c70:	01111349 	tsteq	r1, r9, asr #6
     c74:	06400112 			; <UNDEFINED> instruction: 0x06400112
     c78:	000c4297 	muleq	ip, r7, r2
     c7c:	00050a00 	andeq	r0, r5, r0, lsl #20
     c80:	0b3a0e03 	bleq	e84494 <FlashDriver+0xe826d0>
     c84:	13490b3b 	movtne	r0, #39739	; 0x9b3b
     c88:	00000a02 	andeq	r0, r0, r2, lsl #20
     c8c:	0300340b 	movweq	r3, #1035	; 0x40b
     c90:	3b0b3a0e 	blcc	2cf4d0 <FlashDriver+0x2cd70c>
     c94:	0213490b 	andseq	r4, r3, #180224	; 0x2c000
     c98:	0000000a 	andeq	r0, r0, sl
     c9c:	25011101 	strcs	r1, [r1, #-257]	; 0xfffffeff
     ca0:	030b130e 	movweq	r1, #45838	; 0xb30e
     ca4:	110e1b0e 	tstne	lr, lr, lsl #22
     ca8:	10011201 	andne	r1, r1, r1, lsl #4
     cac:	02000006 	andeq	r0, r0, #6
     cb0:	0e030016 	mcreq	0, 0, r0, cr3, cr6, {0}
     cb4:	0b3b0b3a 	bleq	ec39a4 <FlashDriver+0xec1be0>
     cb8:	00001349 	andeq	r1, r0, r9, asr #6
     cbc:	0b002403 	bleq	9cd0 <FlashDriver+0x7f0c>
     cc0:	030b3e0b 	movweq	r3, #48651	; 0xbe0b
     cc4:	0400000e 	streq	r0, [r0], #-14
     cc8:	13490035 	movtne	r0, #36917	; 0x9035
     ccc:	0f050000 	svceq	0x00050000
     cd0:	490b0b00 	stmdbmi	fp, {r8, r9, fp}
     cd4:	06000013 			; <UNDEFINED> instruction: 0x06000013
     cd8:	0c270015 	stceq	0, cr0, [r7], #-84	; 0xffffffac
     cdc:	13070000 	movwne	r0, #28672	; 0x7000
     ce0:	0b0e0301 	bleq	3818ec <FlashDriver+0x37fb28>
     ce4:	3b0b3a0b 	blcc	2cf518 <FlashDriver+0x2cd754>
     ce8:	0013010b 	andseq	r0, r3, fp, lsl #2
     cec:	000d0800 	andeq	r0, sp, r0, lsl #16
     cf0:	0b3a0e03 	bleq	e84504 <FlashDriver+0xe82740>
     cf4:	13490b3b 	movtne	r0, #39739	; 0x9b3b
     cf8:	00000a38 	andeq	r0, r0, r8, lsr sl
     cfc:	3f012e09 	svccc	0x00012e09
     d00:	3a0e030c 	bcc	381938 <FlashDriver+0x37fb74>
     d04:	270b3b0b 	strcs	r3, [fp, -fp, lsl #22]
     d08:	1113490c 	tstne	r3, ip, lsl #18
     d0c:	40011201 	andmi	r1, r1, r1, lsl #4
     d10:	0c429706 	mcrreq	7, 0, r9, r2, cr6
     d14:	050a0000 	streq	r0, [sl, #-0]
     d18:	3a0e0300 	bcc	381920 <FlashDriver+0x37fb5c>
     d1c:	490b3b0b 	stmdbmi	fp, {r0, r1, r3, r8, r9, fp, ip, sp}
     d20:	000a0213 	andeq	r0, sl, r3, lsl r2
     d24:	00340b00 	eorseq	r0, r4, r0, lsl #22
     d28:	0b3a0e03 	bleq	e8453c <FlashDriver+0xe82778>
     d2c:	13490b3b 	movtne	r0, #39739	; 0x9b3b
     d30:	00000a02 	andeq	r0, r0, r2, lsl #20
     d34:	01110100 	tsteq	r1, r0, lsl #2
     d38:	0b130e25 	bleq	4c45d4 <FlashDriver+0x4c2810>
     d3c:	0e1b0e03 	cdpeq	14, 1, cr0, cr11, cr3, {0}
     d40:	01120111 	tsteq	r2, r1, lsl r1
     d44:	00000610 	andeq	r0, r0, r0, lsl r6
     d48:	03001602 	movweq	r1, #1538	; 0x602
     d4c:	3b0b3a0e 	blcc	2cf58c <FlashDriver+0x2cd7c8>
     d50:	0013490b 	andseq	r4, r3, fp, lsl #18
     d54:	00240300 	eoreq	r0, r4, r0, lsl #6
     d58:	0b3e0b0b 	bleq	f8398c <FlashDriver+0xf81bc8>
     d5c:	00000e03 	andeq	r0, r0, r3, lsl #28
     d60:	49003504 	stmdbmi	r0, {r2, r8, sl, ip, sp}
     d64:	05000013 	streq	r0, [r0, #-19]	; 0xffffffed
     d68:	0b0b000f 	bleq	2c0dac <FlashDriver+0x2befe8>
     d6c:	00001349 	andeq	r1, r0, r9, asr #6
     d70:	27001506 	strcs	r1, [r0, -r6, lsl #10]
     d74:	0700000c 	streq	r0, [r0, -ip]
     d78:	0e030113 	mcreq	1, 0, r0, cr3, cr3, {0}
     d7c:	0b3a0b0b 	bleq	e839b0 <FlashDriver+0xe81bec>
     d80:	13010b3b 	movwne	r0, #6971	; 0x1b3b
     d84:	0d080000 	stceq	0, cr0, [r8, #-0]
     d88:	3a0e0300 	bcc	381990 <FlashDriver+0x37fbcc>
     d8c:	490b3b0b 	stmdbmi	fp, {r0, r1, r3, r8, r9, fp, ip, sp}
     d90:	000a3813 	andeq	r3, sl, r3, lsl r8
     d94:	00160900 	andseq	r0, r6, r0, lsl #18
     d98:	0b3a0e03 	bleq	e845ac <FlashDriver+0xe827e8>
     d9c:	1349053b 	movtne	r0, #38203	; 0x953b
     da0:	150a0000 	strne	r0, [sl, #-0]
     da4:	490c2701 	stmdbmi	ip, {r0, r8, r9, sl, sp}
     da8:	00130113 	andseq	r0, r3, r3, lsl r1
     dac:	00050b00 	andeq	r0, r5, r0, lsl #22
     db0:	00001349 	andeq	r1, r0, r9, asr #6
     db4:	3f012e0c 	svccc	0x00012e0c
     db8:	3a0e030c 	bcc	3819f0 <FlashDriver+0x37fc2c>
     dbc:	270b3b0b 	strcs	r3, [fp, -fp, lsl #22]
     dc0:	1113490c 	tstne	r3, ip, lsl #18
     dc4:	40011201 	andmi	r1, r1, r1, lsl #4
     dc8:	0c429606 	mcrreq	6, 0, r9, r2, cr6
     dcc:	00001301 	andeq	r1, r0, r1, lsl #6
     dd0:	0300050d 	movweq	r0, #1293	; 0x50d
     dd4:	3b0b3a0e 	blcc	2cf614 <FlashDriver+0x2cd850>
     dd8:	0213490b 	andseq	r4, r3, #180224	; 0x2c000
     ddc:	0e00000a 	cdpeq	0, 0, cr0, cr0, cr10, {0}
     de0:	0e030034 	mcreq	0, 0, r0, cr3, cr4, {1}
     de4:	0b3b0b3a 	bleq	ec3ad4 <FlashDriver+0xec1d10>
     de8:	0a021349 	beq	85b14 <FlashDriver+0x83d50>
     dec:	0a0f0000 	beq	3c0df4 <FlashDriver+0x3bf030>
     df0:	3a0e0300 	bcc	3819f8 <FlashDriver+0x37fc34>
     df4:	110b3b0b 	tstne	fp, fp, lsl #22
     df8:	10000001 	andne	r0, r0, r1
     dfc:	13490101 	movtne	r0, #37121	; 0x9101
     e00:	00001301 	andeq	r1, r0, r1, lsl #6
     e04:	49002111 	stmdbmi	r0, {r0, r4, r8, sp}
     e08:	000b2f13 	andeq	r2, fp, r3, lsl pc
     e0c:	11010000 	mrsne	r0, (UNDEF: 1)
     e10:	130e2501 	movwne	r2, #58625	; 0xe501
     e14:	1b0e030b 	blne	381a48 <FlashDriver+0x37fc84>
     e18:	1201110e 	andne	r1, r1, #-2147483645	; 0x80000003
     e1c:	00061001 	andeq	r1, r6, r1
     e20:	00160200 	andseq	r0, r6, r0, lsl #4
     e24:	0b3a0e03 	bleq	e84638 <FlashDriver+0xe82874>
     e28:	13490b3b 	movtne	r0, #39739	; 0x9b3b
     e2c:	24030000 	strcs	r0, [r3], #-0
     e30:	3e0b0b00 	vmlacc.f64	d0, d11, d0
     e34:	000e030b 	andeq	r0, lr, fp, lsl #6
     e38:	00350400 	eorseq	r0, r5, r0, lsl #8
     e3c:	00001349 	andeq	r1, r0, r9, asr #6
     e40:	0b000f05 	bleq	4a5c <FlashDriver+0x2c98>
     e44:	0013490b 	andseq	r4, r3, fp, lsl #18
     e48:	00150600 	andseq	r0, r5, r0, lsl #12
     e4c:	00000c27 	andeq	r0, r0, r7, lsr #24
     e50:	03011307 	movweq	r1, #4871	; 0x1307
     e54:	3a0b0b0e 	bcc	2c3a94 <FlashDriver+0x2c1cd0>
     e58:	010b3b0b 	tsteq	fp, fp, lsl #22
     e5c:	08000013 	stmdaeq	r0, {r0, r1, r4}
     e60:	0e03000d 	cdpeq	0, 0, cr0, cr3, cr13, {0}
     e64:	0b3b0b3a 	bleq	ec3b54 <FlashDriver+0xec1d90>
     e68:	0a381349 	beq	e05b94 <FlashDriver+0xe03dd0>
     e6c:	16090000 	strne	r0, [r9], -r0
     e70:	3a0e0300 	bcc	381a78 <FlashDriver+0x37fcb4>
     e74:	49053b0b 	stmdbmi	r5, {r0, r1, r3, r8, r9, fp, ip, sp}
     e78:	0a000013 	beq	ecc <FlashProgramCheck+0x90>
     e7c:	0c270115 	stfeqs	f0, [r7], #-84	; 0xffffffac
     e80:	13011349 	movwne	r1, #4937	; 0x1349
     e84:	050b0000 	streq	r0, [fp, #-0]
     e88:	00134900 	andseq	r4, r3, r0, lsl #18
     e8c:	012e0c00 	teqeq	lr, r0, lsl #24
     e90:	0e030c3f 	mcreq	12, 0, r0, cr3, cr15, {1}
     e94:	0b3b0b3a 	bleq	ec3b84 <FlashDriver+0xec1dc0>
     e98:	13490c27 	movtne	r0, #39975	; 0x9c27
     e9c:	01120111 	tsteq	r2, r1, lsl r1
     ea0:	42960640 	addsmi	r0, r6, #64, 12	; 0x4000000
     ea4:	0013010c 	andseq	r0, r3, ip, lsl #2
     ea8:	00050d00 	andeq	r0, r5, r0, lsl #26
     eac:	0b3a0e03 	bleq	e846c0 <FlashDriver+0xe828fc>
     eb0:	13490b3b 	movtne	r0, #39739	; 0x9b3b
     eb4:	00000a02 	andeq	r0, r0, r2, lsl #20
     eb8:	0300340e 	movweq	r3, #1038	; 0x40e
     ebc:	3b0b3a0e 	blcc	2cf6fc <FlashDriver+0x2cd938>
     ec0:	0213490b 	andseq	r4, r3, #180224	; 0x2c000
     ec4:	0f00000a 	svceq	0x0000000a
     ec8:	13490101 	movtne	r0, #37121	; 0x9101
     ecc:	00001301 	andeq	r1, r0, r1, lsl #6
     ed0:	49002110 	stmdbmi	r0, {r4, r8, sp}
     ed4:	000b2f13 	andeq	r2, fp, r3, lsl pc
     ed8:	11010000 	mrsne	r0, (UNDEF: 1)
     edc:	130e2501 	movwne	r2, #58625	; 0xe501
     ee0:	1b0e030b 	blne	381b14 <FlashDriver+0x37fd50>
     ee4:	1201110e 	andne	r1, r1, #-2147483645	; 0x80000003
     ee8:	00061001 	andeq	r1, r6, r1
     eec:	00160200 	andseq	r0, r6, r0, lsl #4
     ef0:	0b3a0e03 	bleq	e84704 <FlashDriver+0xe82940>
     ef4:	13490b3b 	movtne	r0, #39739	; 0x9b3b
     ef8:	24030000 	strcs	r0, [r3], #-0
     efc:	3e0b0b00 	vmlacc.f64	d0, d11, d0
     f00:	000e030b 	andeq	r0, lr, fp, lsl #6
     f04:	000f0400 	andeq	r0, pc, r0, lsl #8
     f08:	13490b0b 	movtne	r0, #39691	; 0x9b0b
     f0c:	15050000 	strne	r0, [r5, #-0]
     f10:	000c2700 	andeq	r2, ip, r0, lsl #14
     f14:	01130600 	tsteq	r3, r0, lsl #12
     f18:	0b0b0e03 	bleq	2c472c <FlashDriver+0x2c2968>
     f1c:	0b3b0b3a 	bleq	ec3c0c <FlashDriver+0xec1e48>
     f20:	00001301 	andeq	r1, r0, r1, lsl #6
     f24:	03000d07 	movweq	r0, #3335	; 0xd07
     f28:	3b0b3a0e 	blcc	2cf768 <FlashDriver+0x2cd9a4>
     f2c:	3813490b 	ldmdacc	r3, {r0, r1, r3, r8, fp, lr}
     f30:	0800000a 	stmdaeq	r0, {r1, r3}
     f34:	0e030016 	mcreq	0, 0, r0, cr3, cr6, {0}
     f38:	053b0b3a 	ldreq	r0, [fp, #-2874]!	; 0xfffff4c6
     f3c:	00001349 	andeq	r1, r0, r9, asr #6
     f40:	27011509 	strcs	r1, [r1, -r9, lsl #10]
     f44:	0113490c 	tsteq	r3, ip, lsl #18
     f48:	0a000013 	beq	f9c <FlashProgramCheck+0x160>
     f4c:	13490005 	movtne	r0, #36869	; 0x9005
     f50:	2e0b0000 	cdpcs	0, 0, cr0, cr11, cr0, {0}
     f54:	030c3f01 	movweq	r3, #52993	; 0xcf01
     f58:	3b0b3a0e 	blcc	2cf798 <FlashDriver+0x2cd9d4>
     f5c:	490c270b 	stmdbmi	ip, {r0, r1, r3, r8, r9, sl, sp}
     f60:	12011113 	andne	r1, r1, #-1073741820	; 0xc0000004
     f64:	96064001 	strls	r4, [r6], -r1
     f68:	13010c42 	movwne	r0, #7234	; 0x1c42
     f6c:	050c0000 	streq	r0, [ip, #-0]
     f70:	3a0e0300 	bcc	381b78 <FlashDriver+0x37fdb4>
     f74:	490b3b0b 	stmdbmi	fp, {r0, r1, r3, r8, r9, fp, ip, sp}
     f78:	000a0213 	andeq	r0, sl, r3, lsl r2
     f7c:	00340d00 	eorseq	r0, r4, r0, lsl #26
     f80:	0b3a0e03 	bleq	e84794 <FlashDriver+0xe829d0>
     f84:	13490b3b 	movtne	r0, #39739	; 0x9b3b
     f88:	00000a02 	andeq	r0, r0, r2, lsl #20
     f8c:	0300340e 	movweq	r3, #1038	; 0x40e
     f90:	3b0b3a08 	blcc	2cf7b8 <FlashDriver+0x2cd9f4>
     f94:	0213490b 	andseq	r4, r3, #180224	; 0x2c000
     f98:	0f00000a 	svceq	0x0000000a
     f9c:	13490101 	movtne	r0, #37121	; 0x9101
     fa0:	00001301 	andeq	r1, r0, r1, lsl #6
     fa4:	49002110 	stmdbmi	r0, {r4, r8, sp}
     fa8:	000b2f13 	andeq	r2, fp, r3, lsl pc
     fac:	11010000 	mrsne	r0, (UNDEF: 1)
     fb0:	130e2501 	movwne	r2, #58625	; 0xe501
     fb4:	1b0e030b 	blne	381be8 <FlashDriver+0x37fe24>
     fb8:	1201110e 	andne	r1, r1, #-2147483645	; 0x80000003
     fbc:	00061001 	andeq	r1, r6, r1
     fc0:	00160200 	andseq	r0, r6, r0, lsl #4
     fc4:	0b3a0e03 	bleq	e847d8 <FlashDriver+0xe82a14>
     fc8:	13490b3b 	movtne	r0, #39739	; 0x9b3b
     fcc:	24030000 	strcs	r0, [r3], #-0
     fd0:	3e0b0b00 	vmlacc.f64	d0, d11, d0
     fd4:	000e030b 	andeq	r0, lr, fp, lsl #6
     fd8:	00350400 	eorseq	r0, r5, r0, lsl #8
     fdc:	00001349 	andeq	r1, r0, r9, asr #6
     fe0:	0b000f05 	bleq	4bfc <FlashDriver+0x2e38>
     fe4:	0013490b 	andseq	r4, r3, fp, lsl #18
     fe8:	00150600 	andseq	r0, r5, r0, lsl #12
     fec:	00000c27 	andeq	r0, r0, r7, lsr #24
     ff0:	03011307 	movweq	r1, #4871	; 0x1307
     ff4:	3a0b0b0e 	bcc	2c3c34 <FlashDriver+0x2c1e70>
     ff8:	010b3b0b 	tsteq	fp, fp, lsl #22
     ffc:	08000013 	stmdaeq	r0, {r0, r1, r4}
    1000:	0e03000d 	cdpeq	0, 0, cr0, cr3, cr13, {0}
    1004:	0b3b0b3a 	bleq	ec3cf4 <FlashDriver+0xec1f30>
    1008:	0a381349 	beq	e05d34 <FlashDriver+0xe03f70>
    100c:	16090000 	strne	r0, [r9], -r0
    1010:	3a0e0300 	bcc	381c18 <FlashDriver+0x37fe54>
    1014:	49053b0b 	stmdbmi	r5, {r0, r1, r3, r8, r9, fp, ip, sp}
    1018:	0a000013 	beq	106c <FlashProgramLongword+0xbc>
    101c:	0c270115 	stfeqs	f0, [r7], #-84	; 0xffffffac
    1020:	13011349 	movwne	r1, #4937	; 0x1349
    1024:	050b0000 	streq	r0, [fp, #-0]
    1028:	00134900 	andseq	r4, r3, r0, lsl #18
    102c:	012e0c00 	teqeq	lr, r0, lsl #24
    1030:	0e030c3f 	mcreq	12, 0, r0, cr3, cr15, {1}
    1034:	0b3b0b3a 	bleq	ec3d24 <FlashDriver+0xec1f60>
    1038:	13490c27 	movtne	r0, #39975	; 0x9c27
    103c:	01120111 	tsteq	r2, r1, lsl r1
    1040:	42960640 	addsmi	r0, r6, #64, 12	; 0x4000000
    1044:	0013010c 	andseq	r0, r3, ip, lsl #2
    1048:	00050d00 	andeq	r0, r5, r0, lsl #26
    104c:	0b3a0e03 	bleq	e84860 <FlashDriver+0xe82a9c>
    1050:	13490b3b 	movtne	r0, #39739	; 0x9b3b
    1054:	00000a02 	andeq	r0, r0, r2, lsl #20
    1058:	0300340e 	movweq	r3, #1038	; 0x40e
    105c:	3b0b3a0e 	blcc	2cf89c <FlashDriver+0x2cdad8>
    1060:	0213490b 	andseq	r4, r3, #180224	; 0x2c000
    1064:	0f00000a 	svceq	0x0000000a
    1068:	0e03000a 	cdpeq	0, 0, cr0, cr3, cr10, {0}
    106c:	0b3b0b3a 	bleq	ec3d5c <FlashDriver+0xec1f98>
    1070:	00000111 	andeq	r0, r0, r1, lsl r1
    1074:	49010110 	stmdbmi	r1, {r4, r8}
    1078:	00130113 	andseq	r0, r3, r3, lsl r1
    107c:	00211100 	eoreq	r1, r1, r0, lsl #2
    1080:	0b2f1349 	bleq	bc5dac <FlashDriver+0xbc3fe8>
    1084:	01000000 	mrseq	r0, (UNDEF: 0)
    1088:	0e250111 	mcreq	1, 1, r0, cr5, cr1, {0}
    108c:	0e030b13 	vmoveq.32	d3[0], r0
    1090:	01110e1b 	tsteq	r1, fp, lsl lr
    1094:	06100112 			; <UNDEFINED> instruction: 0x06100112
    1098:	16020000 	strne	r0, [r2], -r0
    109c:	3a0e0300 	bcc	381ca4 <FlashDriver+0x37fee0>
    10a0:	490b3b0b 	stmdbmi	fp, {r0, r1, r3, r8, r9, fp, ip, sp}
    10a4:	03000013 	movweq	r0, #19
    10a8:	0b0b0024 	bleq	2c1140 <FlashDriver+0x2bf37c>
    10ac:	0e030b3e 	vmoveq.16	d3[0], r0
    10b0:	35040000 	strcc	r0, [r4, #-0]
    10b4:	00134900 	andseq	r4, r3, r0, lsl #18
    10b8:	000f0500 	andeq	r0, pc, r0, lsl #10
    10bc:	13490b0b 	movtne	r0, #39691	; 0x9b0b
    10c0:	15060000 	strne	r0, [r6, #-0]
    10c4:	000c2700 	andeq	r2, ip, r0, lsl #14
    10c8:	01130700 	tsteq	r3, r0, lsl #14
    10cc:	0b0b0e03 	bleq	2c48e0 <FlashDriver+0x2c2b1c>
    10d0:	0b3b0b3a 	bleq	ec3dc0 <FlashDriver+0xec1ffc>
    10d4:	00001301 	andeq	r1, r0, r1, lsl #6
    10d8:	03000d08 	movweq	r0, #3336	; 0xd08
    10dc:	3b0b3a0e 	blcc	2cf91c <FlashDriver+0x2cdb58>
    10e0:	3813490b 	ldmdacc	r3, {r0, r1, r3, r8, fp, lr}
    10e4:	0900000a 	stmdbeq	r0, {r1, r3}
    10e8:	0e030016 	mcreq	0, 0, r0, cr3, cr6, {0}
    10ec:	053b0b3a 	ldreq	r0, [fp, #-2874]!	; 0xfffff4c6
    10f0:	00001349 	andeq	r1, r0, r9, asr #6
    10f4:	2701150a 	strcs	r1, [r1, -sl, lsl #10]
    10f8:	0113490c 	tsteq	r3, ip, lsl #18
    10fc:	0b000013 	bleq	1150 <FlashProgramSection+0x10>
    1100:	13490005 	movtne	r0, #36869	; 0x9005
    1104:	2e0c0000 	cdpcs	0, 0, cr0, cr12, cr0, {0}
    1108:	030c3f01 	movweq	r3, #52993	; 0xcf01
    110c:	3b0b3a0e 	blcc	2cf94c <FlashDriver+0x2cdb88>
    1110:	490c270b 	stmdbmi	ip, {r0, r1, r3, r8, r9, sl, sp}
    1114:	12011113 	andne	r1, r1, #-1073741820	; 0xc0000004
    1118:	96064001 	strls	r4, [r6], -r1
    111c:	13010c42 	movwne	r0, #7234	; 0x1c42
    1120:	050d0000 	streq	r0, [sp, #-0]
    1124:	3a0e0300 	bcc	381d2c <FlashDriver+0x37ff68>
    1128:	490b3b0b 	stmdbmi	fp, {r0, r1, r3, r8, r9, fp, ip, sp}
    112c:	000a0213 	andeq	r0, sl, r3, lsl r2
    1130:	00340e00 	eorseq	r0, r4, r0, lsl #28
    1134:	0b3a0e03 	bleq	e84948 <FlashDriver+0xe82b84>
    1138:	13490b3b 	movtne	r0, #39739	; 0x9b3b
    113c:	00000a02 	andeq	r0, r0, r2, lsl #20
    1140:	0300340f 	movweq	r3, #1039	; 0x40f
    1144:	3b0b3a08 	blcc	2cf96c <FlashDriver+0x2cdba8>
    1148:	0213490b 	andseq	r4, r3, #180224	; 0x2c000
    114c:	1000000a 	andne	r0, r0, sl
    1150:	13490101 	movtne	r0, #37121	; 0x9101
    1154:	00001301 	andeq	r1, r0, r1, lsl #6
    1158:	49002111 	stmdbmi	r0, {r0, r4, r8, sp}
    115c:	000b2f13 	andeq	r2, fp, r3, lsl pc
    1160:	11010000 	mrsne	r0, (UNDEF: 1)
    1164:	130e2501 	movwne	r2, #58625	; 0xe501
    1168:	1b0e030b 	blne	381d9c <FlashDriver+0x37ffd8>
    116c:	1201110e 	andne	r1, r1, #-2147483645	; 0x80000003
    1170:	00061001 	andeq	r1, r6, r1
    1174:	00160200 	andseq	r0, r6, r0, lsl #4
    1178:	0b3a0e03 	bleq	e8498c <FlashDriver+0xe82bc8>
    117c:	13490b3b 	movtne	r0, #39739	; 0x9b3b
    1180:	24030000 	strcs	r0, [r3], #-0
    1184:	3e0b0b00 	vmlacc.f64	d0, d11, d0
    1188:	000e030b 	andeq	r0, lr, fp, lsl #6
    118c:	00350400 	eorseq	r0, r5, r0, lsl #8
    1190:	00001349 	andeq	r1, r0, r9, asr #6
    1194:	0b000f05 	bleq	4db0 <FlashDriver+0x2fec>
    1198:	0013490b 	andseq	r4, r3, fp, lsl #18
    119c:	00150600 	andseq	r0, r5, r0, lsl #12
    11a0:	00000c27 	andeq	r0, r0, r7, lsr #24
    11a4:	03011307 	movweq	r1, #4871	; 0x1307
    11a8:	3a0b0b0e 	bcc	2c3de8 <FlashDriver+0x2c2024>
    11ac:	010b3b0b 	tsteq	fp, fp, lsl #22
    11b0:	08000013 	stmdaeq	r0, {r0, r1, r4}
    11b4:	0e03000d 	cdpeq	0, 0, cr0, cr3, cr13, {0}
    11b8:	0b3b0b3a 	bleq	ec3ea8 <FlashDriver+0xec20e4>
    11bc:	0a381349 	beq	e05ee8 <FlashDriver+0xe04124>
    11c0:	16090000 	strne	r0, [r9], -r0
    11c4:	3a0e0300 	bcc	381dcc <FlashDriver+0x380008>
    11c8:	49053b0b 	stmdbmi	r5, {r0, r1, r3, r8, r9, fp, ip, sp}
    11cc:	0a000013 	beq	1220 <FlashProgramSection+0xe0>
    11d0:	0c270115 	stfeqs	f0, [r7], #-84	; 0xffffffac
    11d4:	13011349 	movwne	r1, #4937	; 0x1349
    11d8:	050b0000 	streq	r0, [fp, #-0]
    11dc:	00134900 	andseq	r4, r3, r0, lsl #18
    11e0:	012e0c00 	teqeq	lr, r0, lsl #24
    11e4:	0e030c3f 	mcreq	12, 0, r0, cr3, cr15, {1}
    11e8:	0b3b0b3a 	bleq	ec3ed8 <FlashDriver+0xec2114>
    11ec:	13490c27 	movtne	r0, #39975	; 0x9c27
    11f0:	01120111 	tsteq	r2, r1, lsl r1
    11f4:	42960640 	addsmi	r0, r6, #64, 12	; 0x4000000
    11f8:	0013010c 	andseq	r0, r3, ip, lsl #2
    11fc:	00050d00 	andeq	r0, r5, r0, lsl #26
    1200:	0b3a0e03 	bleq	e84a14 <FlashDriver+0xe82c50>
    1204:	13490b3b 	movtne	r0, #39739	; 0x9b3b
    1208:	00000a02 	andeq	r0, r0, r2, lsl #20
    120c:	0300340e 	movweq	r3, #1038	; 0x40e
    1210:	3b0b3a0e 	blcc	2cfa50 <FlashDriver+0x2cdc8c>
    1214:	0213490b 	andseq	r4, r3, #180224	; 0x2c000
    1218:	0f00000a 	svceq	0x0000000a
    121c:	0e03000a 	cdpeq	0, 0, cr0, cr3, cr10, {0}
    1220:	0b3b0b3a 	bleq	ec3f10 <FlashDriver+0xec214c>
    1224:	00000111 	andeq	r0, r0, r1, lsl r1
    1228:	49010110 	stmdbmi	r1, {r4, r8}
    122c:	00130113 	andseq	r0, r3, r3, lsl r1
    1230:	00211100 	eoreq	r1, r1, r0, lsl #2
    1234:	0b2f1349 	bleq	bc5f60 <FlashDriver+0xbc419c>
    1238:	01000000 	mrseq	r0, (UNDEF: 0)
    123c:	0e250111 	mcreq	1, 1, r0, cr5, cr1, {0}
    1240:	0e030b13 	vmoveq.32	d3[0], r0
    1244:	01110e1b 	tsteq	r1, fp, lsl lr
    1248:	06100112 			; <UNDEFINED> instruction: 0x06100112
    124c:	16020000 	strne	r0, [r2], -r0
    1250:	3a0e0300 	bcc	381e58 <FlashDriver+0x380094>
    1254:	490b3b0b 	stmdbmi	fp, {r0, r1, r3, r8, r9, fp, ip, sp}
    1258:	03000013 	movweq	r0, #19
    125c:	0b0b0024 	bleq	2c12f4 <FlashDriver+0x2bf530>
    1260:	0e030b3e 	vmoveq.16	d3[0], r0
    1264:	35040000 	strcc	r0, [r4, #-0]
    1268:	00134900 	andseq	r4, r3, r0, lsl #18
    126c:	000f0500 	andeq	r0, pc, r0, lsl #10
    1270:	13490b0b 	movtne	r0, #39691	; 0x9b0b
    1274:	15060000 	strne	r0, [r6, #-0]
    1278:	000c2700 	andeq	r2, ip, r0, lsl #14
    127c:	01130700 	tsteq	r3, r0, lsl #14
    1280:	0b0b0e03 	bleq	2c4a94 <FlashDriver+0x2c2cd0>
    1284:	0b3b0b3a 	bleq	ec3f74 <FlashDriver+0xec21b0>
    1288:	00001301 	andeq	r1, r0, r1, lsl #6
    128c:	03000d08 	movweq	r0, #3336	; 0xd08
    1290:	3b0b3a0e 	blcc	2cfad0 <FlashDriver+0x2cdd0c>
    1294:	3813490b 	ldmdacc	r3, {r0, r1, r3, r8, fp, lr}
    1298:	0900000a 	stmdbeq	r0, {r1, r3}
    129c:	0e030016 	mcreq	0, 0, r0, cr3, cr6, {0}
    12a0:	053b0b3a 	ldreq	r0, [fp, #-2874]!	; 0xfffff4c6
    12a4:	00001349 	andeq	r1, r0, r9, asr #6
    12a8:	2701150a 	strcs	r1, [r1, -sl, lsl #10]
    12ac:	0113490c 	tsteq	r3, ip, lsl #18
    12b0:	0b000013 	bleq	1304 <FlashReadOnce+0x5c>
    12b4:	13490005 	movtne	r0, #36869	; 0x9005
    12b8:	2e0c0000 	cdpcs	0, 0, cr0, cr12, cr0, {0}
    12bc:	030c3f01 	movweq	r3, #52993	; 0xcf01
    12c0:	3b0b3a0e 	blcc	2cfb00 <FlashDriver+0x2cdd3c>
    12c4:	490c270b 	stmdbmi	ip, {r0, r1, r3, r8, r9, sl, sp}
    12c8:	12011113 	andne	r1, r1, #-1073741820	; 0xc0000004
    12cc:	96064001 	strls	r4, [r6], -r1
    12d0:	13010c42 	movwne	r0, #7234	; 0x1c42
    12d4:	050d0000 	streq	r0, [sp, #-0]
    12d8:	3a0e0300 	bcc	381ee0 <FlashDriver+0x38011c>
    12dc:	490b3b0b 	stmdbmi	fp, {r0, r1, r3, r8, r9, fp, ip, sp}
    12e0:	000a0213 	andeq	r0, sl, r3, lsl r2
    12e4:	00340e00 	eorseq	r0, r4, r0, lsl #28
    12e8:	0b3a0e03 	bleq	e84afc <FlashDriver+0xe82d38>
    12ec:	13490b3b 	movtne	r0, #39739	; 0x9b3b
    12f0:	00000a02 	andeq	r0, r0, r2, lsl #20
    12f4:	4901010f 	stmdbmi	r1, {r0, r1, r2, r3, r8}
    12f8:	00130113 	andseq	r0, r3, r3, lsl r1
    12fc:	00211000 	eoreq	r1, r1, r0
    1300:	0b2f1349 	bleq	bc602c <FlashDriver+0xbc4268>
    1304:	01000000 	mrseq	r0, (UNDEF: 0)
    1308:	0e250111 	mcreq	1, 1, r0, cr5, cr1, {0}
    130c:	0e030b13 	vmoveq.32	d3[0], r0
    1310:	01110e1b 	tsteq	r1, fp, lsl lr
    1314:	06100112 			; <UNDEFINED> instruction: 0x06100112
    1318:	16020000 	strne	r0, [r2], -r0
    131c:	3a0e0300 	bcc	381f24 <FlashDriver+0x380160>
    1320:	490b3b0b 	stmdbmi	fp, {r0, r1, r3, r8, r9, fp, ip, sp}
    1324:	03000013 	movweq	r0, #19
    1328:	0b0b0024 	bleq	2c13c0 <FlashDriver+0x2bf5fc>
    132c:	0e030b3e 	vmoveq.16	d3[0], r0
    1330:	35040000 	strcc	r0, [r4, #-0]
    1334:	00134900 	andseq	r4, r3, r0, lsl #18
    1338:	000f0500 	andeq	r0, pc, r0, lsl #10
    133c:	13490b0b 	movtne	r0, #39691	; 0x9b0b
    1340:	15060000 	strne	r0, [r6, #-0]
    1344:	000c2700 	andeq	r2, ip, r0, lsl #14
    1348:	01130700 	tsteq	r3, r0, lsl #14
    134c:	0b0b0e03 	bleq	2c4b60 <FlashDriver+0x2c2d9c>
    1350:	0b3b0b3a 	bleq	ec4040 <FlashDriver+0xec227c>
    1354:	00001301 	andeq	r1, r0, r1, lsl #6
    1358:	03000d08 	movweq	r0, #3336	; 0xd08
    135c:	3b0b3a0e 	blcc	2cfb9c <FlashDriver+0x2cddd8>
    1360:	3813490b 	ldmdacc	r3, {r0, r1, r3, r8, fp, lr}
    1364:	0900000a 	stmdbeq	r0, {r1, r3}
    1368:	0c3f012e 	ldfeqs	f0, [pc], #-184	; 12b8 <FlashReadOnce+0x10>
    136c:	0b3a0e03 	bleq	e84b80 <FlashDriver+0xe82dbc>
    1370:	0c270b3b 	stceq	11, cr0, [r7], #-236	; 0xffffff14
    1374:	01111349 	tsteq	r1, r9, asr #6
    1378:	06400112 			; <UNDEFINED> instruction: 0x06400112
    137c:	000c4297 	muleq	ip, r7, r2
    1380:	00050a00 	andeq	r0, r5, r0, lsl #20
    1384:	0b3a0e03 	bleq	e84b98 <FlashDriver+0xe82dd4>
    1388:	13490b3b 	movtne	r0, #39739	; 0x9b3b
    138c:	00000a02 	andeq	r0, r0, r2, lsl #20
    1390:	0300340b 	movweq	r3, #1035	; 0x40b
    1394:	3b0b3a0e 	blcc	2cfbd4 <FlashDriver+0x2cde10>
    1398:	0213490b 	andseq	r4, r3, #180224	; 0x2c000
    139c:	0000000a 	andeq	r0, r0, sl
    13a0:	25011101 	strcs	r1, [r1, #-257]	; 0xfffffeff
    13a4:	030b130e 	movweq	r1, #45838	; 0xb30e
    13a8:	110e1b0e 	tstne	lr, lr, lsl #22
    13ac:	10011201 	andne	r1, r1, r1, lsl #4
    13b0:	02000006 	andeq	r0, r0, #6
    13b4:	0e030016 	mcreq	0, 0, r0, cr3, cr6, {0}
    13b8:	0b3b0b3a 	bleq	ec40a8 <FlashDriver+0xec22e4>
    13bc:	00001349 	andeq	r1, r0, r9, asr #6
    13c0:	0b002403 	bleq	a3d4 <FlashDriver+0x8610>
    13c4:	030b3e0b 	movweq	r3, #48651	; 0xbe0b
    13c8:	0400000e 	streq	r0, [r0], #-14
    13cc:	0b0b000f 	bleq	2c1410 <FlashDriver+0x2bf64c>
    13d0:	00001349 	andeq	r1, r0, r9, asr #6
    13d4:	27001505 	strcs	r1, [r0, -r5, lsl #10]
    13d8:	0600000c 	streq	r0, [r0], -ip
    13dc:	0e030113 	mcreq	1, 0, r0, cr3, cr3, {0}
    13e0:	0b3a0b0b 	bleq	e84014 <FlashDriver+0xe82250>
    13e4:	13010b3b 	movwne	r0, #6971	; 0x1b3b
    13e8:	0d070000 	stceq	0, cr0, [r7, #-0]
    13ec:	3a0e0300 	bcc	381ff4 <FlashDriver+0x380230>
    13f0:	490b3b0b 	stmdbmi	fp, {r0, r1, r3, r8, r9, fp, ip, sp}
    13f4:	000a3813 	andeq	r3, sl, r3, lsl r8
    13f8:	00160800 	andseq	r0, r6, r0, lsl #16
    13fc:	0b3a0e03 	bleq	e84c10 <FlashDriver+0xe82e4c>
    1400:	1349053b 	movtne	r0, #38203	; 0x953b
    1404:	15090000 	strne	r0, [r9, #-0]
    1408:	490c2701 	stmdbmi	ip, {r0, r8, r9, sl, sp}
    140c:	00130113 	andseq	r0, r3, r3, lsl r1
    1410:	00050a00 	andeq	r0, r5, r0, lsl #20
    1414:	00001349 	andeq	r1, r0, r9, asr #6
    1418:	3f012e0b 	svccc	0x00012e0b
    141c:	3a0e030c 	bcc	382054 <FlashDriver+0x380290>
    1420:	270b3b0b 	strcs	r3, [fp, -fp, lsl #22]
    1424:	1113490c 	tstne	r3, ip, lsl #18
    1428:	40011201 	andmi	r1, r1, r1, lsl #4
    142c:	0c429606 	mcrreq	6, 0, r9, r2, cr6
    1430:	00001301 	andeq	r1, r0, r1, lsl #6
    1434:	0300050c 	movweq	r0, #1292	; 0x50c
    1438:	3b0b3a0e 	blcc	2cfc78 <FlashDriver+0x2cdeb4>
    143c:	0213490b 	andseq	r4, r3, #180224	; 0x2c000
    1440:	0d00000a 	stceq	0, cr0, [r0, #-40]	; 0xffffffd8
    1444:	0e030034 	mcreq	0, 0, r0, cr3, cr4, {1}
    1448:	0b3b0b3a 	bleq	ec4138 <FlashDriver+0xec2374>
    144c:	0a021349 	beq	86178 <FlashDriver+0x843b4>
    1450:	010e0000 	mrseq	r0, (UNDEF: 14)
    1454:	01134901 	tsteq	r3, r1, lsl #18
    1458:	0f000013 	svceq	0x00000013
    145c:	13490021 	movtne	r0, #36897	; 0x9021
    1460:	00000b2f 	andeq	r0, r0, pc, lsr #22
    1464:	01110100 	tsteq	r1, r0, lsl #2
    1468:	0b130e25 	bleq	4c4d04 <FlashDriver+0x4c2f40>
    146c:	0e1b0e03 	cdpeq	14, 1, cr0, cr11, cr3, {0}
    1470:	01120111 	tsteq	r2, r1, lsl r1
    1474:	00000610 	andeq	r0, r0, r0, lsl r6
    1478:	03001602 	movweq	r1, #1538	; 0x602
    147c:	3b0b3a0e 	blcc	2cfcbc <FlashDriver+0x2cdef8>
    1480:	0013490b 	andseq	r4, r3, fp, lsl #18
    1484:	00240300 	eoreq	r0, r4, r0, lsl #6
    1488:	0b3e0b0b 	bleq	f840bc <FlashDriver+0xf822f8>
    148c:	00000e03 	andeq	r0, r0, r3, lsl #28
    1490:	0b000f04 	bleq	50a8 <FlashDriver+0x32e4>
    1494:	0013490b 	andseq	r4, r3, fp, lsl #18
    1498:	00150500 	andseq	r0, r5, r0, lsl #10
    149c:	00000c27 	andeq	r0, r0, r7, lsr #24
    14a0:	03011306 	movweq	r1, #4870	; 0x1306
    14a4:	3a0b0b0e 	bcc	2c40e4 <FlashDriver+0x2c2320>
    14a8:	010b3b0b 	tsteq	fp, fp, lsl #22
    14ac:	07000013 	smladeq	r0, r3, r0, r0
    14b0:	0e03000d 	cdpeq	0, 0, cr0, cr3, cr13, {0}
    14b4:	0b3b0b3a 	bleq	ec41a4 <FlashDriver+0xec23e0>
    14b8:	0a381349 	beq	e061e4 <FlashDriver+0xe04420>
    14bc:	16080000 	strne	r0, [r8], -r0
    14c0:	3a0e0300 	bcc	3820c8 <FlashDriver+0x380304>
    14c4:	49053b0b 	stmdbmi	r5, {r0, r1, r3, r8, r9, fp, ip, sp}
    14c8:	09000013 	stmdbeq	r0, {r0, r1, r4}
    14cc:	0c270115 	stfeqs	f0, [r7], #-84	; 0xffffffac
    14d0:	13011349 	movwne	r1, #4937	; 0x1349
    14d4:	050a0000 	streq	r0, [sl, #-0]
    14d8:	00134900 	andseq	r4, r3, r0, lsl #18
    14dc:	012e0b00 	teqeq	lr, r0, lsl #22
    14e0:	0e030c3f 	mcreq	12, 0, r0, cr3, cr15, {1}
    14e4:	0b3b0b3a 	bleq	ec41d4 <FlashDriver+0xec2410>
    14e8:	13490c27 	movtne	r0, #39975	; 0x9c27
    14ec:	01120111 	tsteq	r2, r1, lsl r1
    14f0:	42960640 	addsmi	r0, r6, #64, 12	; 0x4000000
    14f4:	0013010c 	andseq	r0, r3, ip, lsl #2
    14f8:	00050c00 	andeq	r0, r5, r0, lsl #24
    14fc:	0b3a0e03 	bleq	e84d10 <FlashDriver+0xe82f4c>
    1500:	13490b3b 	movtne	r0, #39739	; 0x9b3b
    1504:	00000a02 	andeq	r0, r0, r2, lsl #20
    1508:	0300340d 	movweq	r3, #1037	; 0x40d
    150c:	3b0b3a0e 	blcc	2cfd4c <FlashDriver+0x2cdf88>
    1510:	0213490b 	andseq	r4, r3, #180224	; 0x2c000
    1514:	0e00000a 	cdpeq	0, 0, cr0, cr0, cr10, {0}
    1518:	0e03000a 	cdpeq	0, 0, cr0, cr3, cr10, {0}
    151c:	0b3b0b3a 	bleq	ec420c <FlashDriver+0xec2448>
    1520:	00000111 	andeq	r0, r0, r1, lsl r1
    1524:	4901010f 	stmdbmi	r1, {r0, r1, r2, r3, r8}
    1528:	00130113 	andseq	r0, r3, r3, lsl r1
    152c:	00211000 	eoreq	r1, r1, r0
    1530:	0b2f1349 	bleq	bc625c <FlashDriver+0xbc4498>
    1534:	01000000 	mrseq	r0, (UNDEF: 0)
    1538:	0e250111 	mcreq	1, 1, r0, cr5, cr1, {0}
    153c:	0e030b13 	vmoveq.32	d3[0], r0
    1540:	01110e1b 	tsteq	r1, fp, lsl lr
    1544:	06100112 			; <UNDEFINED> instruction: 0x06100112
    1548:	16020000 	strne	r0, [r2], -r0
    154c:	3a0e0300 	bcc	382154 <FlashDriver+0x380390>
    1550:	490b3b0b 	stmdbmi	fp, {r0, r1, r3, r8, r9, fp, ip, sp}
    1554:	03000013 	movweq	r0, #19
    1558:	0b0b0024 	bleq	2c15f0 <FlashDriver+0x2bf82c>
    155c:	0e030b3e 	vmoveq.16	d3[0], r0
    1560:	0f040000 	svceq	0x00040000
    1564:	490b0b00 	stmdbmi	fp, {r8, r9, fp}
    1568:	05000013 	streq	r0, [r0, #-19]	; 0xffffffed
    156c:	0c270015 	stceq	0, cr0, [r7], #-84	; 0xffffffac
    1570:	13060000 	movwne	r0, #24576	; 0x6000
    1574:	0b0e0301 	bleq	382180 <FlashDriver+0x3803bc>
    1578:	3b0b3a0b 	blcc	2cfdac <FlashDriver+0x2cdfe8>
    157c:	0013010b 	andseq	r0, r3, fp, lsl #2
    1580:	000d0700 	andeq	r0, sp, r0, lsl #14
    1584:	0b3a0e03 	bleq	e84d98 <FlashDriver+0xe82fd4>
    1588:	13490b3b 	movtne	r0, #39739	; 0x9b3b
    158c:	00000a38 	andeq	r0, r0, r8, lsr sl
    1590:	03001608 	movweq	r1, #1544	; 0x608
    1594:	3b0b3a0e 	blcc	2cfdd4 <FlashDriver+0x2ce010>
    1598:	00134905 	andseq	r4, r3, r5, lsl #18
    159c:	01150900 	tsteq	r5, r0, lsl #18
    15a0:	13490c27 	movtne	r0, #39975	; 0x9c27
    15a4:	00001301 	andeq	r1, r0, r1, lsl #6
    15a8:	4900050a 	stmdbmi	r0, {r1, r3, r8, sl}
    15ac:	0b000013 	bleq	1600 <FlashVerifyBlock+0x6c>
    15b0:	0c3f012e 	ldfeqs	f0, [pc], #-184	; 1500 <FlashSecurityBypass+0x74>
    15b4:	0b3a0e03 	bleq	e84dc8 <FlashDriver+0xe83004>
    15b8:	0c270b3b 	stceq	11, cr0, [r7], #-236	; 0xffffff14
    15bc:	01111349 	tsteq	r1, r9, asr #6
    15c0:	06400112 			; <UNDEFINED> instruction: 0x06400112
    15c4:	010c4296 			; <UNDEFINED> instruction: 0x010c4296
    15c8:	0c000013 	stceq	0, cr0, [r0], {19}
    15cc:	0e030005 	cdpeq	0, 0, cr0, cr3, cr5, {0}
    15d0:	0b3b0b3a 	bleq	ec42c0 <FlashDriver+0xec24fc>
    15d4:	0a021349 	beq	86300 <FlashDriver+0x8453c>
    15d8:	340d0000 	strcc	r0, [sp], #-0
    15dc:	3a0e0300 	bcc	3821e4 <FlashDriver+0x380420>
    15e0:	490b3b0b 	stmdbmi	fp, {r0, r1, r3, r8, r9, fp, ip, sp}
    15e4:	000a0213 	andeq	r0, sl, r3, lsl r2
    15e8:	000a0e00 	andeq	r0, sl, r0, lsl #28
    15ec:	0b3a0e03 	bleq	e84e00 <FlashDriver+0xe8303c>
    15f0:	01110b3b 	tsteq	r1, fp, lsr fp
    15f4:	010f0000 	mrseq	r0, CPSR
    15f8:	01134901 	tsteq	r3, r1, lsl #18
    15fc:	10000013 	andne	r0, r0, r3, lsl r0
    1600:	13490021 	movtne	r0, #36897	; 0x9021
    1604:	00000b2f 	andeq	r0, r0, pc, lsr #22
    1608:	01110100 	tsteq	r1, r0, lsl #2
    160c:	0b130e25 	bleq	4c4ea8 <FlashDriver+0x4c30e4>
    1610:	0e1b0e03 	cdpeq	14, 1, cr0, cr11, cr3, {0}
    1614:	01120111 	tsteq	r2, r1, lsl r1
    1618:	00000610 	andeq	r0, r0, r0, lsl r6
    161c:	03001602 	movweq	r1, #1538	; 0x602
    1620:	3b0b3a0e 	blcc	2cfe60 <FlashDriver+0x2ce09c>
    1624:	0013490b 	andseq	r4, r3, fp, lsl #18
    1628:	00240300 	eoreq	r0, r4, r0, lsl #6
    162c:	0b3e0b0b 	bleq	f84260 <FlashDriver+0xf8249c>
    1630:	00000e03 	andeq	r0, r0, r3, lsl #28
    1634:	49003504 	stmdbmi	r0, {r2, r8, sl, ip, sp}
    1638:	05000013 	streq	r0, [r0, #-19]	; 0xffffffed
    163c:	0b0b000f 	bleq	2c1680 <FlashDriver+0x2bf8bc>
    1640:	00001349 	andeq	r1, r0, r9, asr #6
    1644:	27001506 	strcs	r1, [r0, -r6, lsl #10]
    1648:	0700000c 	streq	r0, [r0, -ip]
    164c:	0e030113 	mcreq	1, 0, r0, cr3, cr3, {0}
    1650:	0b3a0b0b 	bleq	e84284 <FlashDriver+0xe824c0>
    1654:	13010b3b 	movwne	r0, #6971	; 0x1b3b
    1658:	0d080000 	stceq	0, cr0, [r8, #-0]
    165c:	3a0e0300 	bcc	382264 <FlashDriver+0x3804a0>
    1660:	490b3b0b 	stmdbmi	fp, {r0, r1, r3, r8, r9, fp, ip, sp}
    1664:	000a3813 	andeq	r3, sl, r3, lsl r8
    1668:	012e0900 	teqeq	lr, r0, lsl #18
    166c:	0e030c3f 	mcreq	12, 0, r0, cr3, cr15, {1}
    1670:	0b3b0b3a 	bleq	ec4360 <FlashDriver+0xec259c>
    1674:	13490c27 	movtne	r0, #39975	; 0x9c27
    1678:	01120111 	tsteq	r2, r1, lsl r1
    167c:	42970640 	addsmi	r0, r7, #64, 12	; 0x4000000
    1680:	0a00000c 	beq	16b8 <FlashVerifySection+0x64>
    1684:	0e030005 	cdpeq	0, 0, cr0, cr3, cr5, {0}
    1688:	0b3b0b3a 	bleq	ec4378 <FlashDriver+0xec25b4>
    168c:	0a021349 	beq	863b8 <FlashDriver+0x845f4>
    1690:	340b0000 	strcc	r0, [fp], #-0
    1694:	3a0e0300 	bcc	38229c <FlashDriver+0x3804d8>
    1698:	490b3b0b 	stmdbmi	fp, {r0, r1, r3, r8, r9, fp, ip, sp}
    169c:	000a0213 	andeq	r0, sl, r3, lsl r2
    16a0:	11010000 	mrsne	r0, (UNDEF: 1)
    16a4:	130e2501 	movwne	r2, #58625	; 0xe501
    16a8:	1b0e030b 	blne	3822dc <FlashDriver+0x380518>
    16ac:	1201110e 	andne	r1, r1, #-2147483645	; 0x80000003
    16b0:	00061001 	andeq	r1, r6, r1
    16b4:	00160200 	andseq	r0, r6, r0, lsl #4
    16b8:	0b3a0e03 	bleq	e84ecc <FlashDriver+0xe83108>
    16bc:	13490b3b 	movtne	r0, #39739	; 0x9b3b
    16c0:	24030000 	strcs	r0, [r3], #-0
    16c4:	3e0b0b00 	vmlacc.f64	d0, d11, d0
    16c8:	000e030b 	andeq	r0, lr, fp, lsl #6
    16cc:	00350400 	eorseq	r0, r5, r0, lsl #8
    16d0:	00001349 	andeq	r1, r0, r9, asr #6
    16d4:	0b000f05 	bleq	52f0 <FlashDriver+0x352c>
    16d8:	0013490b 	andseq	r4, r3, fp, lsl #18
    16dc:	00150600 	andseq	r0, r5, r0, lsl #12
    16e0:	00000c27 	andeq	r0, r0, r7, lsr #24
    16e4:	03011307 	movweq	r1, #4871	; 0x1307
    16e8:	3a0b0b0e 	bcc	2c4328 <FlashDriver+0x2c2564>
    16ec:	010b3b0b 	tsteq	fp, fp, lsl #22
    16f0:	08000013 	stmdaeq	r0, {r0, r1, r4}
    16f4:	0e03000d 	cdpeq	0, 0, cr0, cr3, cr13, {0}
    16f8:	0b3b0b3a 	bleq	ec43e8 <FlashDriver+0xec2624>
    16fc:	0a381349 	beq	e06428 <FlashDriver+0xe04664>
    1700:	16090000 	strne	r0, [r9], -r0
    1704:	3a0e0300 	bcc	38230c <FlashDriver+0x380548>
    1708:	49053b0b 	stmdbmi	r5, {r0, r1, r3, r8, r9, fp, ip, sp}
    170c:	0a000013 	beq	1760 <FlashVerifySection+0x10c>
    1710:	0c270115 	stfeqs	f0, [r7], #-84	; 0xffffffac
    1714:	13011349 	movwne	r1, #4937	; 0x1349
    1718:	050b0000 	streq	r0, [fp, #-0]
    171c:	00134900 	andseq	r4, r3, r0, lsl #18
    1720:	012e0c00 	teqeq	lr, r0, lsl #24
    1724:	0e030c3f 	mcreq	12, 0, r0, cr3, cr15, {1}
    1728:	0b3b0b3a 	bleq	ec4418 <FlashDriver+0xec2654>
    172c:	13490c27 	movtne	r0, #39975	; 0x9c27
    1730:	01120111 	tsteq	r2, r1, lsl r1
    1734:	42960640 	addsmi	r0, r6, #64, 12	; 0x4000000
    1738:	0013010c 	andseq	r0, r3, ip, lsl #2
    173c:	00050d00 	andeq	r0, r5, r0, lsl #26
    1740:	0b3a0e03 	bleq	e84f54 <FlashDriver+0xe83190>
    1744:	13490b3b 	movtne	r0, #39739	; 0x9b3b
    1748:	00000a02 	andeq	r0, r0, r2, lsl #20
    174c:	0300340e 	movweq	r3, #1038	; 0x40e
    1750:	3b0b3a0e 	blcc	2cff90 <FlashDriver+0x2ce1cc>
    1754:	0213490b 	andseq	r4, r3, #180224	; 0x2c000
    1758:	0f00000a 	svceq	0x0000000a
    175c:	0e03000a 	cdpeq	0, 0, cr0, cr3, cr10, {0}
    1760:	0b3b0b3a 	bleq	ec4450 <FlashDriver+0xec268c>
    1764:	00000111 	andeq	r0, r0, r1, lsl r1
    1768:	49010110 	stmdbmi	r1, {r4, r8}
    176c:	00130113 	andseq	r0, r3, r3, lsl r1
    1770:	00211100 	eoreq	r1, r1, r0, lsl #2
    1774:	0b2f1349 	bleq	bc64a0 <FlashDriver+0xbc46dc>
    1778:	01000000 	mrseq	r0, (UNDEF: 0)
    177c:	0e250111 	mcreq	1, 1, r0, cr5, cr1, {0}
    1780:	0e030b13 	vmoveq.32	d3[0], r0
    1784:	01110e1b 	tsteq	r1, fp, lsl lr
    1788:	06100112 			; <UNDEFINED> instruction: 0x06100112
    178c:	16020000 	strne	r0, [r2], -r0
    1790:	3a0e0300 	bcc	382398 <FlashDriver+0x3805d4>
    1794:	490b3b0b 	stmdbmi	fp, {r0, r1, r3, r8, r9, fp, ip, sp}
    1798:	03000013 	movweq	r0, #19
    179c:	0b0b0024 	bleq	2c1834 <FlashDriver+0x2bfa70>
    17a0:	0e030b3e 	vmoveq.16	d3[0], r0
    17a4:	35040000 	strcc	r0, [r4, #-0]
    17a8:	00134900 	andseq	r4, r3, r0, lsl #18
    17ac:	000f0500 	andeq	r0, pc, r0, lsl #10
    17b0:	13490b0b 	movtne	r0, #39691	; 0x9b0b
    17b4:	15060000 	strne	r0, [r6, #-0]
    17b8:	000c2700 	andeq	r2, ip, r0, lsl #14
    17bc:	01130700 	tsteq	r3, r0, lsl #14
    17c0:	0b0b0e03 	bleq	2c4fd4 <FlashDriver+0x2c3210>
    17c4:	0b3b0b3a 	bleq	ec44b4 <FlashDriver+0xec26f0>
    17c8:	00001301 	andeq	r1, r0, r1, lsl #6
    17cc:	03000d08 	movweq	r0, #3336	; 0xd08
    17d0:	3b0b3a0e 	blcc	2d0010 <FlashDriver+0x2ce24c>
    17d4:	3813490b 	ldmdacc	r3, {r0, r1, r3, r8, fp, lr}
    17d8:	0900000a 	stmdbeq	r0, {r1, r3}
    17dc:	0c3f012e 	ldfeqs	f0, [pc], #-184	; 172c <FlashVerifySection+0xd8>
    17e0:	0b3a0e03 	bleq	e84ff4 <FlashDriver+0xe83230>
    17e4:	0c270b3b 	stceq	11, cr0, [r7], #-236	; 0xffffff14
    17e8:	01111349 	tsteq	r1, r9, asr #6
    17ec:	06400112 			; <UNDEFINED> instruction: 0x06400112
    17f0:	000c4297 	muleq	ip, r7, r2
    17f4:	00050a00 	andeq	r0, r5, r0, lsl #20
    17f8:	0b3a0e03 	bleq	e8500c <FlashDriver+0xe83248>
    17fc:	13490b3b 	movtne	r0, #39739	; 0x9b3b
    1800:	00000a02 	andeq	r0, r0, r2, lsl #20
    1804:	0300340b 	movweq	r3, #1035	; 0x40b
    1808:	3b0b3a0e 	blcc	2d0048 <FlashDriver+0x2ce284>
    180c:	0213490b 	andseq	r4, r3, #180224	; 0x2c000
    1810:	0c00000a 	stceq	0, cr0, [r0], {10}
    1814:	0e03000a 	cdpeq	0, 0, cr0, cr3, cr10, {0}
    1818:	0b3b0b3a 	bleq	ec4508 <FlashDriver+0xec2744>
    181c:	00000111 	andeq	r0, r0, r1, lsl r1
    1820:	01110100 	tsteq	r1, r0, lsl #2
    1824:	0b130e25 	bleq	4c50c0 <FlashDriver+0x4c32fc>
    1828:	0e1b0e03 	cdpeq	14, 1, cr0, cr11, cr3, {0}
    182c:	01120111 	tsteq	r2, r1, lsl r1
    1830:	00000610 	andeq	r0, r0, r0, lsl r6
    1834:	03001602 	movweq	r1, #1538	; 0x602
    1838:	3b0b3a0e 	blcc	2d0078 <FlashDriver+0x2ce2b4>
    183c:	0013490b 	andseq	r4, r3, fp, lsl #18
    1840:	00240300 	eoreq	r0, r4, r0, lsl #6
    1844:	0b3e0b0b 	bleq	f84478 <FlashDriver+0xf826b4>
    1848:	00000e03 	andeq	r0, r0, r3, lsl #28
    184c:	49003504 	stmdbmi	r0, {r2, r8, sl, ip, sp}
    1850:	05000013 	streq	r0, [r0, #-19]	; 0xffffffed
    1854:	0b0b000f 	bleq	2c1898 <FlashDriver+0x2bfad4>
    1858:	00001349 	andeq	r1, r0, r9, asr #6
    185c:	27001506 	strcs	r1, [r0, -r6, lsl #10]
    1860:	0700000c 	streq	r0, [r0, -ip]
    1864:	0e030113 	mcreq	1, 0, r0, cr3, cr3, {0}
    1868:	0b3a0b0b 	bleq	e8449c <FlashDriver+0xe826d8>
    186c:	13010b3b 	movwne	r0, #6971	; 0x1b3b
    1870:	0d080000 	stceq	0, cr0, [r8, #-0]
    1874:	3a0e0300 	bcc	38247c <FlashDriver+0x3806b8>
    1878:	490b3b0b 	stmdbmi	fp, {r0, r1, r3, r8, r9, fp, ip, sp}
    187c:	000a3813 	andeq	r3, sl, r3, lsl r8
    1880:	00160900 	andseq	r0, r6, r0, lsl #18
    1884:	0b3a0e03 	bleq	e85098 <FlashDriver+0xe832d4>
    1888:	1349053b 	movtne	r0, #38203	; 0x953b
    188c:	150a0000 	strne	r0, [sl, #-0]
    1890:	490c2701 	stmdbmi	ip, {r0, r8, r9, sl, sp}
    1894:	00130113 	andseq	r0, r3, r3, lsl r1
    1898:	00050b00 	andeq	r0, r5, r0, lsl #22
    189c:	00001349 	andeq	r1, r0, r9, asr #6
    18a0:	3f012e0c 	svccc	0x00012e0c
    18a4:	3a0e030c 	bcc	3824dc <FlashDriver+0x380718>
    18a8:	270b3b0b 	strcs	r3, [fp, -fp, lsl #22]
    18ac:	1113490c 	tstne	r3, ip, lsl #18
    18b0:	40011201 	andmi	r1, r1, r1, lsl #4
    18b4:	0c429606 	mcrreq	6, 0, r9, r2, cr6
    18b8:	00001301 	andeq	r1, r0, r1, lsl #6
    18bc:	0300050d 	movweq	r0, #1293	; 0x50d
    18c0:	3b0b3a0e 	blcc	2d0100 <FlashDriver+0x2ce33c>
    18c4:	0213490b 	andseq	r4, r3, #180224	; 0x2c000
    18c8:	0e00000a 	cdpeq	0, 0, cr0, cr0, cr10, {0}
    18cc:	0e030034 	mcreq	0, 0, r0, cr3, cr4, {1}
    18d0:	0b3b0b3a 	bleq	ec45c0 <FlashDriver+0xec27fc>
    18d4:	0a021349 	beq	86600 <FlashDriver+0x8483c>
    18d8:	0a0f0000 	beq	3c18e0 <FlashDriver+0x3bfb1c>
    18dc:	3a0e0300 	bcc	3824e4 <FlashDriver+0x380720>
    18e0:	110b3b0b 	tstne	fp, fp, lsl #22
    18e4:	10000001 	andne	r0, r0, r1
    18e8:	0e03012e 	adfeqsp	f0, f3, #0.5
    18ec:	0b3b0b3a 	bleq	ec45dc <FlashDriver+0xec2818>
    18f0:	13490c27 	movtne	r0, #39975	; 0x9c27
    18f4:	01120111 	tsteq	r2, r1, lsl r1
    18f8:	42960640 	addsmi	r0, r6, #64, 12	; 0x4000000
    18fc:	0013010c 	andseq	r0, r3, ip, lsl #2
    1900:	01011100 	mrseq	r1, (UNDEF: 17)
    1904:	13011349 	movwne	r1, #4937	; 0x1349
    1908:	21120000 	tstcs	r2, r0
    190c:	2f134900 	svccs	0x00134900
    1910:	1300000b 	movwne	r0, #11
    1914:	13490101 	movtne	r0, #37121	; 0x9101
    1918:	01000000 	mrseq	r0, (UNDEF: 0)
    191c:	0e250111 	mcreq	1, 1, r0, cr5, cr1, {0}
    1920:	0e030b13 	vmoveq.32	d3[0], r0
    1924:	01110e1b 	tsteq	r1, fp, lsl lr
    1928:	06100112 			; <UNDEFINED> instruction: 0x06100112
    192c:	16020000 	strne	r0, [r2], -r0
    1930:	3a0e0300 	bcc	382538 <FlashDriver+0x380774>
    1934:	490b3b0b 	stmdbmi	fp, {r0, r1, r3, r8, r9, fp, ip, sp}
    1938:	03000013 	movweq	r0, #19
    193c:	0b0b0024 	bleq	2c19d4 <FlashDriver+0x2bfc10>
    1940:	0e030b3e 	vmoveq.16	d3[0], r0
    1944:	0f040000 	svceq	0x00040000
    1948:	490b0b00 	stmdbmi	fp, {r8, r9, fp}
    194c:	05000013 	streq	r0, [r0, #-19]	; 0xffffffed
    1950:	0c270015 	stceq	0, cr0, [r7], #-84	; 0xffffffac
    1954:	13060000 	movwne	r0, #24576	; 0x6000
    1958:	0b0e0301 	bleq	382564 <FlashDriver+0x3807a0>
    195c:	3b0b3a0b 	blcc	2d0190 <FlashDriver+0x2ce3cc>
    1960:	0013010b 	andseq	r0, r3, fp, lsl #2
    1964:	000d0700 	andeq	r0, sp, r0, lsl #14
    1968:	0b3a0e03 	bleq	e8517c <FlashDriver+0xe833b8>
    196c:	13490b3b 	movtne	r0, #39739	; 0x9b3b
    1970:	00000a38 	andeq	r0, r0, r8, lsr sl
    1974:	3f012e08 	svccc	0x00012e08
    1978:	3a0e030c 	bcc	3825b0 <FlashDriver+0x3807ec>
    197c:	270b3b0b 	strcs	r3, [fp, -fp, lsl #22]
    1980:	1113490c 	tstne	r3, ip, lsl #18
    1984:	40011201 	andmi	r1, r1, r1, lsl #4
    1988:	0c429606 	mcrreq	6, 0, r9, r2, cr6
    198c:	00001301 	andeq	r1, r0, r1, lsl #6
    1990:	03000509 	movweq	r0, #1289	; 0x509
    1994:	3b0b3a0e 	blcc	2d01d4 <FlashDriver+0x2ce410>
    1998:	0213490b 	andseq	r4, r3, #180224	; 0x2c000
    199c:	0a00000a 	beq	19cc <PFlashSetProtection+0xb8>
    19a0:	0e030034 	mcreq	0, 0, r0, cr3, cr4, {1}
    19a4:	0b3b0b3a 	bleq	ec4694 <FlashDriver+0xec28d0>
    19a8:	0a021349 	beq	866d4 <FlashDriver+0x84910>
    19ac:	010b0000 	mrseq	r0, (UNDEF: 11)
    19b0:	01134901 	tsteq	r3, r1, lsl #18
    19b4:	0c000013 	stceq	0, cr0, [r0], {19}
    19b8:	13490021 	movtne	r0, #36897	; 0x9021
    19bc:	00000b2f 	andeq	r0, r0, pc, lsr #22
	...

Disassembly of section .debug_loc:

00000000 <.debug_loc>:
   0:	00000004 	andeq	r0, r0, r4
   4:	00000006 	andeq	r0, r0, r6
   8:	007d0002 	rsbseq	r0, sp, r2
   c:	00000006 	andeq	r0, r0, r6
  10:	00000008 	andeq	r0, r0, r8
  14:	087d0002 	ldmdaeq	sp!, {r1}^
  18:	00000008 	andeq	r0, r0, r8
  1c:	0000000a 	andeq	r0, r0, sl
  20:	207d0002 	rsbscs	r0, sp, r2
  24:	0000000a 	andeq	r0, r0, sl
  28:	00000030 	andeq	r0, r0, r0, lsr r0
  2c:	20770002 	rsbscs	r0, r7, r2
	...
  3c:	00000002 	andeq	r0, r0, r2
  40:	007d0002 	rsbseq	r0, sp, r2
  44:	00000002 	andeq	r0, r0, r2
  48:	00000004 	andeq	r0, r0, r4
  4c:	087d0002 	ldmdaeq	sp!, {r1}^
  50:	00000004 	andeq	r0, r0, r4
  54:	00000006 	andeq	r0, r0, r6
  58:	287d0002 	ldmdacs	sp!, {r1}^
  5c:	00000006 	andeq	r0, r0, r6
  60:	00000042 	andeq	r0, r0, r2, asr #32
  64:	28770002 	ldmdacs	r7!, {r1}^
	...
  74:	00000002 	andeq	r0, r0, r2
  78:	007d0002 	rsbseq	r0, sp, r2
  7c:	00000002 	andeq	r0, r0, r2
  80:	00000004 	andeq	r0, r0, r4
  84:	047d0002 	ldrbteq	r0, [sp], #-2
  88:	00000004 	andeq	r0, r0, r4
  8c:	00000006 	andeq	r0, r0, r6
  90:	187d0002 	ldmdane	sp!, {r1}^
  94:	00000006 	andeq	r0, r0, r6
  98:	0000003e 	andeq	r0, r0, lr, lsr r0
  9c:	18770002 	ldmdane	r7!, {r1}^
	...
  ac:	00000002 	andeq	r0, r0, r2
  b0:	007d0002 	rsbseq	r0, sp, r2
  b4:	00000002 	andeq	r0, r0, r2
  b8:	00000004 	andeq	r0, r0, r4
  bc:	047d0002 	ldrbteq	r0, [sp], #-2
  c0:	00000004 	andeq	r0, r0, r4
  c4:	00000006 	andeq	r0, r0, r6
  c8:	187d0002 	ldmdane	sp!, {r1}^
  cc:	00000006 	andeq	r0, r0, r6
  d0:	000000a8 	andeq	r0, r0, r8, lsr #1
  d4:	18770002 	ldmdane	r7!, {r1}^
	...
  e4:	00000002 	andeq	r0, r0, r2
  e8:	007d0002 	rsbseq	r0, sp, r2
  ec:	00000002 	andeq	r0, r0, r2
  f0:	00000004 	andeq	r0, r0, r4
  f4:	047d0002 	ldrbteq	r0, [sp], #-2
  f8:	00000004 	andeq	r0, r0, r4
  fc:	00000006 	andeq	r0, r0, r6
 100:	207d0002 	rsbscs	r0, sp, r2
 104:	00000006 	andeq	r0, r0, r6
 108:	000000be 	strheq	r0, [r0], -lr
 10c:	20770002 	rsbscs	r0, r7, r2
	...
 11c:	00000002 	andeq	r0, r0, r2
 120:	007d0002 	rsbseq	r0, sp, r2
 124:	00000002 	andeq	r0, r0, r2
 128:	00000004 	andeq	r0, r0, r4
 12c:	047d0002 	ldrbteq	r0, [sp], #-2
 130:	00000004 	andeq	r0, r0, r4
 134:	00000006 	andeq	r0, r0, r6
 138:	187d0002 	ldmdane	sp!, {r1}^
 13c:	00000006 	andeq	r0, r0, r6
 140:	0000004c 	andeq	r0, r0, ip, asr #32
 144:	18770002 	ldmdane	r7!, {r1}^
	...
 154:	00000002 	andeq	r0, r0, r2
 158:	007d0002 	rsbseq	r0, sp, r2
 15c:	00000002 	andeq	r0, r0, r2
 160:	00000004 	andeq	r0, r0, r4
 164:	047d0002 	ldrbteq	r0, [sp], #-2
 168:	00000004 	andeq	r0, r0, r4
 16c:	00000006 	andeq	r0, r0, r6
 170:	187d0002 	ldmdane	sp!, {r1}^
 174:	00000006 	andeq	r0, r0, r6
 178:	000000b4 	strheq	r0, [r0], -r4
 17c:	18770002 	ldmdane	r7!, {r1}^
	...
 18c:	00000002 	andeq	r0, r0, r2
 190:	007d0002 	rsbseq	r0, sp, r2
 194:	00000002 	andeq	r0, r0, r2
 198:	00000004 	andeq	r0, r0, r4
 19c:	087d0002 	ldmdaeq	sp!, {r1}^
 1a0:	00000004 	andeq	r0, r0, r4
 1a4:	00000006 	andeq	r0, r0, r6
 1a8:	307d0002 	rsbscc	r0, sp, r2
 1ac:	00000006 	andeq	r0, r0, r6
 1b0:	0000015e 	andeq	r0, r0, lr, asr r1
 1b4:	30770002 	rsbscc	r0, r7, r2
	...
 1c0:	00000160 	andeq	r0, r0, r0, ror #2
 1c4:	00000162 	andeq	r0, r0, r2, ror #2
 1c8:	007d0002 	rsbseq	r0, sp, r2
 1cc:	00000162 	andeq	r0, r0, r2, ror #2
 1d0:	00000164 	andeq	r0, r0, r4, ror #2
 1d4:	087d0002 	ldmdaeq	sp!, {r1}^
 1d8:	00000164 	andeq	r0, r0, r4, ror #2
 1dc:	00000166 	andeq	r0, r0, r6, ror #2
 1e0:	187d0002 	ldmdane	sp!, {r1}^
 1e4:	00000166 	andeq	r0, r0, r6, ror #2
 1e8:	00000230 	andeq	r0, r0, r0, lsr r2
 1ec:	18770002 	ldmdane	r7!, {r1}^
	...
 1f8:	00000230 	andeq	r0, r0, r0, lsr r2
 1fc:	00000232 	andeq	r0, r0, r2, lsr r2
 200:	007d0002 	rsbseq	r0, sp, r2
 204:	00000232 	andeq	r0, r0, r2, lsr r2
 208:	00000234 	andeq	r0, r0, r4, lsr r2
 20c:	047d0002 	ldrbteq	r0, [sp], #-2
 210:	00000234 	andeq	r0, r0, r4, lsr r2
 214:	00000236 	andeq	r0, r0, r6, lsr r2
 218:	107d0002 	rsbsne	r0, sp, r2
 21c:	00000236 	andeq	r0, r0, r6, lsr r2
 220:	00000248 	andeq	r0, r0, r8, asr #4
 224:	10770002 	rsbsne	r0, r7, r2
	...
 230:	00000248 	andeq	r0, r0, r8, asr #4
 234:	0000024a 	andeq	r0, r0, sl, asr #4
 238:	007d0002 	rsbseq	r0, sp, r2
 23c:	0000024a 	andeq	r0, r0, sl, asr #4
 240:	0000024c 	andeq	r0, r0, ip, asr #4
 244:	087d0002 	ldmdaeq	sp!, {r1}^
 248:	0000024c 	andeq	r0, r0, ip, asr #4
 24c:	0000024e 	andeq	r0, r0, lr, asr #4
 250:	107d0002 	rsbsne	r0, sp, r2
 254:	0000024e 	andeq	r0, r0, lr, asr #4
 258:	0000028c 	andeq	r0, r0, ip, lsl #5
 25c:	10770002 	rsbsne	r0, r7, r2
	...
 268:	0000028c 	andeq	r0, r0, ip, lsl #5
 26c:	0000028e 	andeq	r0, r0, lr, lsl #5
 270:	007d0002 	rsbseq	r0, sp, r2
 274:	0000028e 	andeq	r0, r0, lr, lsl #5
 278:	00000290 	muleq	r0, r0, r2
 27c:	087d0002 	ldmdaeq	sp!, {r1}^
 280:	00000290 	muleq	r0, r0, r2
 284:	00000292 	muleq	r0, r2, r2
 288:	107d0002 	rsbsne	r0, sp, r2
 28c:	00000292 	muleq	r0, r2, r2
 290:	000002f4 	strdeq	r0, [r0], -r4
 294:	08770002 	ldmdaeq	r7!, {r1}^
	...
 2a0:	000002f4 	strdeq	r0, [r0], -r4
 2a4:	000002f6 	strdeq	r0, [r0], -r6
 2a8:	007d0002 	rsbseq	r0, sp, r2
 2ac:	000002f6 	strdeq	r0, [r0], -r6
 2b0:	000002f8 	strdeq	r0, [r0], -r8
 2b4:	087d0002 	ldmdaeq	sp!, {r1}^
 2b8:	000002f8 	strdeq	r0, [r0], -r8
 2bc:	000002fa 	strdeq	r0, [r0], -sl
 2c0:	207d0002 	rsbscs	r0, sp, r2
 2c4:	000002fa 	strdeq	r0, [r0], -sl
 2c8:	00000348 	andeq	r0, r0, r8, asr #6
 2cc:	18770002 	ldmdane	r7!, {r1}^
	...
 2dc:	00000002 	andeq	r0, r0, r2
 2e0:	007d0002 	rsbseq	r0, sp, r2
 2e4:	00000002 	andeq	r0, r0, r2
 2e8:	00000004 	andeq	r0, r0, r4
 2ec:	087d0002 	ldmdaeq	sp!, {r1}^
 2f0:	00000004 	andeq	r0, r0, r4
 2f4:	00000006 	andeq	r0, r0, r6
 2f8:	287d0002 	ldmdacs	sp!, {r1}^
 2fc:	00000006 	andeq	r0, r0, r6
 300:	000000ca 	andeq	r0, r0, sl, asr #1
 304:	28770002 	ldmdacs	r7!, {r1}^
	...
 314:	00000002 	andeq	r0, r0, r2
 318:	007d0002 	rsbseq	r0, sp, r2
 31c:	00000002 	andeq	r0, r0, r2
 320:	00000004 	andeq	r0, r0, r4
 324:	087d0002 	ldmdaeq	sp!, {r1}^
 328:	00000004 	andeq	r0, r0, r4
 32c:	00000006 	andeq	r0, r0, r6
 330:	287d0002 	ldmdacs	sp!, {r1}^
 334:	00000006 	andeq	r0, r0, r6
 338:	000001f4 	strdeq	r0, [r0], -r4
 33c:	28770002 	ldmdacs	r7!, {r1}^
	...
 34c:	00000002 	andeq	r0, r0, r2
 350:	007d0002 	rsbseq	r0, sp, r2
 354:	00000002 	andeq	r0, r0, r2
 358:	00000004 	andeq	r0, r0, r4
 35c:	087d0002 	ldmdaeq	sp!, {r1}^
 360:	00000004 	andeq	r0, r0, r4
 364:	00000006 	andeq	r0, r0, r6
 368:	187d0002 	ldmdane	sp!, {r1}^
 36c:	00000006 	andeq	r0, r0, r6
 370:	00000032 	andeq	r0, r0, r2, lsr r0
 374:	18770002 	ldmdane	r7!, {r1}^
	...
 384:	00000002 	andeq	r0, r0, r2
 388:	007d0002 	rsbseq	r0, sp, r2
 38c:	00000002 	andeq	r0, r0, r2
 390:	00000004 	andeq	r0, r0, r4
 394:	087d0002 	ldmdaeq	sp!, {r1}^
 398:	00000004 	andeq	r0, r0, r4
 39c:	00000006 	andeq	r0, r0, r6
 3a0:	207d0002 	rsbscs	r0, sp, r2
 3a4:	00000006 	andeq	r0, r0, r6
 3a8:	000000b6 	strheq	r0, [r0], -r6
 3ac:	20770002 	rsbscs	r0, r7, r2
	...
 3bc:	00000002 	andeq	r0, r0, r2
 3c0:	007d0002 	rsbseq	r0, sp, r2
 3c4:	00000002 	andeq	r0, r0, r2
 3c8:	00000004 	andeq	r0, r0, r4
 3cc:	047d0002 	ldrbteq	r0, [sp], #-2
 3d0:	00000004 	andeq	r0, r0, r4
 3d4:	00000006 	andeq	r0, r0, r6
 3d8:	187d0002 	ldmdane	sp!, {r1}^
 3dc:	00000006 	andeq	r0, r0, r6
 3e0:	00000026 	andeq	r0, r0, r6, lsr #32
 3e4:	18770002 	ldmdane	r7!, {r1}^
	...
 3f4:	00000002 	andeq	r0, r0, r2
 3f8:	007d0002 	rsbseq	r0, sp, r2
 3fc:	00000002 	andeq	r0, r0, r2
 400:	00000004 	andeq	r0, r0, r4
 404:	087d0002 	ldmdaeq	sp!, {r1}^
 408:	00000004 	andeq	r0, r0, r4
 40c:	00000006 	andeq	r0, r0, r6
 410:	287d0002 	ldmdacs	sp!, {r1}^
 414:	00000006 	andeq	r0, r0, r6
 418:	0000007c 	andeq	r0, r0, ip, ror r0
 41c:	28770002 	ldmdacs	r7!, {r1}^
	...
 42c:	00000002 	andeq	r0, r0, r2
 430:	007d0002 	rsbseq	r0, sp, r2
 434:	00000002 	andeq	r0, r0, r2
 438:	00000004 	andeq	r0, r0, r4
 43c:	047d0002 	ldrbteq	r0, [sp], #-2
 440:	00000004 	andeq	r0, r0, r4
 444:	00000006 	andeq	r0, r0, r6
 448:	187d0002 	ldmdane	sp!, {r1}^
 44c:	00000006 	andeq	r0, r0, r6
 450:	00000048 	andeq	r0, r0, r8, asr #32
 454:	18770002 	ldmdane	r7!, {r1}^
	...
 464:	00000002 	andeq	r0, r0, r2
 468:	007d0002 	rsbseq	r0, sp, r2
 46c:	00000002 	andeq	r0, r0, r2
 470:	00000004 	andeq	r0, r0, r4
 474:	047d0002 	ldrbteq	r0, [sp], #-2
 478:	00000004 	andeq	r0, r0, r4
 47c:	00000006 	andeq	r0, r0, r6
 480:	187d0002 	ldmdane	sp!, {r1}^
 484:	00000006 	andeq	r0, r0, r6
 488:	00000046 	andeq	r0, r0, r6, asr #32
 48c:	18770002 	ldmdane	r7!, {r1}^
	...
 49c:	00000002 	andeq	r0, r0, r2
 4a0:	007d0002 	rsbseq	r0, sp, r2
 4a4:	00000002 	andeq	r0, r0, r2
 4a8:	00000004 	andeq	r0, r0, r4
 4ac:	047d0002 	ldrbteq	r0, [sp], #-2
 4b0:	00000004 	andeq	r0, r0, r4
 4b4:	00000006 	andeq	r0, r0, r6
 4b8:	187d0002 	ldmdane	sp!, {r1}^
 4bc:	00000006 	andeq	r0, r0, r6
 4c0:	00000056 	andeq	r0, r0, r6, asr r0
 4c4:	18770002 	ldmdane	r7!, {r1}^
	...
 4d4:	00000002 	andeq	r0, r0, r2
 4d8:	007d0002 	rsbseq	r0, sp, r2
 4dc:	00000002 	andeq	r0, r0, r2
 4e0:	00000004 	andeq	r0, r0, r4
 4e4:	047d0002 	ldrbteq	r0, [sp], #-2
 4e8:	00000004 	andeq	r0, r0, r4
 4ec:	00000006 	andeq	r0, r0, r6
 4f0:	187d0002 	ldmdane	sp!, {r1}^
 4f4:	00000006 	andeq	r0, r0, r6
 4f8:	000002a0 	andeq	r0, r0, r0, lsr #5
 4fc:	18770002 	ldmdane	r7!, {r1}^
	...
 50c:	00000002 	andeq	r0, r0, r2
 510:	007d0002 	rsbseq	r0, sp, r2
 514:	00000002 	andeq	r0, r0, r2
 518:	00000004 	andeq	r0, r0, r4
 51c:	087d0002 	ldmdaeq	sp!, {r1}^
 520:	00000004 	andeq	r0, r0, r4
 524:	00000006 	andeq	r0, r0, r6
 528:	287d0002 	ldmdacs	sp!, {r1}^
 52c:	00000006 	andeq	r0, r0, r6
 530:	00000172 	andeq	r0, r0, r2, ror r1
 534:	28770002 	ldmdacs	r7!, {r1}^
	...
 544:	00000002 	andeq	r0, r0, r2
 548:	007d0002 	rsbseq	r0, sp, r2
 54c:	00000002 	andeq	r0, r0, r2
 550:	00000004 	andeq	r0, r0, r4
 554:	087d0002 	ldmdaeq	sp!, {r1}^
 558:	00000004 	andeq	r0, r0, r4
 55c:	00000006 	andeq	r0, r0, r6
 560:	287d0002 	ldmdacs	sp!, {r1}^
 564:	00000006 	andeq	r0, r0, r6
 568:	000000c2 	andeq	r0, r0, r2, asr #1
 56c:	28770002 	ldmdacs	r7!, {r1}^
	...
 57c:	00000002 	andeq	r0, r0, r2
 580:	007d0002 	rsbseq	r0, sp, r2
 584:	00000002 	andeq	r0, r0, r2
 588:	00000004 	andeq	r0, r0, r4
 58c:	087d0002 	ldmdaeq	sp!, {r1}^
 590:	00000004 	andeq	r0, r0, r4
 594:	00000006 	andeq	r0, r0, r6
 598:	307d0002 	rsbscc	r0, sp, r2
 59c:	00000006 	andeq	r0, r0, r6
 5a0:	000000cc 	andeq	r0, r0, ip, asr #1
 5a4:	30770002 	rsbscc	r0, r7, r2
	...
 5b4:	00000002 	andeq	r0, r0, r2
 5b8:	007d0002 	rsbseq	r0, sp, r2
 5bc:	00000002 	andeq	r0, r0, r2
 5c0:	00000004 	andeq	r0, r0, r4
 5c4:	087d0002 	ldmdaeq	sp!, {r1}^
 5c8:	00000004 	andeq	r0, r0, r4
 5cc:	00000006 	andeq	r0, r0, r6
 5d0:	307d0002 	rsbscc	r0, sp, r2
 5d4:	00000006 	andeq	r0, r0, r6
 5d8:	00000168 	andeq	r0, r0, r8, ror #2
 5dc:	30770002 	rsbscc	r0, r7, r2
	...
 5ec:	00000002 	andeq	r0, r0, r2
 5f0:	007d0002 	rsbseq	r0, sp, r2
 5f4:	00000002 	andeq	r0, r0, r2
 5f8:	00000004 	andeq	r0, r0, r4
 5fc:	087d0002 	ldmdaeq	sp!, {r1}^
 600:	00000004 	andeq	r0, r0, r4
 604:	00000006 	andeq	r0, r0, r6
 608:	287d0002 	ldmdacs	sp!, {r1}^
 60c:	00000006 	andeq	r0, r0, r6
 610:	000000d2 	ldrdeq	r0, [r0], -r2
 614:	28770002 	ldmdacs	r7!, {r1}^
	...
 624:	00000002 	andeq	r0, r0, r2
 628:	007d0002 	rsbseq	r0, sp, r2
 62c:	00000002 	andeq	r0, r0, r2
 630:	00000004 	andeq	r0, r0, r4
 634:	087d0002 	ldmdaeq	sp!, {r1}^
 638:	00000004 	andeq	r0, r0, r4
 63c:	00000006 	andeq	r0, r0, r6
 640:	287d0002 	ldmdacs	sp!, {r1}^
 644:	00000006 	andeq	r0, r0, r6
 648:	00000110 	andeq	r0, r0, r0, lsl r1
 64c:	28770002 	ldmdacs	r7!, {r1}^
	...
 65c:	00000002 	andeq	r0, r0, r2
 660:	007d0002 	rsbseq	r0, sp, r2
 664:	00000002 	andeq	r0, r0, r2
 668:	00000004 	andeq	r0, r0, r4
 66c:	087d0002 	ldmdaeq	sp!, {r1}^
 670:	00000004 	andeq	r0, r0, r4
 674:	00000006 	andeq	r0, r0, r6
 678:	307d0002 	rsbscc	r0, sp, r2
 67c:	00000006 	andeq	r0, r0, r6
 680:	0000007e 	andeq	r0, r0, lr, ror r0
 684:	30770002 	rsbscc	r0, r7, r2
	...
 694:	00000002 	andeq	r0, r0, r2
 698:	007d0002 	rsbseq	r0, sp, r2
 69c:	00000002 	andeq	r0, r0, r2
 6a0:	00000004 	andeq	r0, r0, r4
 6a4:	047d0002 	ldrbteq	r0, [sp], #-2
 6a8:	00000004 	andeq	r0, r0, r4
 6ac:	00000006 	andeq	r0, r0, r6
 6b0:	187d0002 	ldmdane	sp!, {r1}^
 6b4:	00000006 	andeq	r0, r0, r6
 6b8:	0000004c 	andeq	r0, r0, ip, asr #32
 6bc:	18770002 	ldmdane	r7!, {r1}^
	...
 6cc:	00000002 	andeq	r0, r0, r2
 6d0:	007d0002 	rsbseq	r0, sp, r2
 6d4:	00000002 	andeq	r0, r0, r2
 6d8:	00000004 	andeq	r0, r0, r4
 6dc:	087d0002 	ldmdaeq	sp!, {r1}^
 6e0:	00000004 	andeq	r0, r0, r4
 6e4:	00000006 	andeq	r0, r0, r6
 6e8:	207d0002 	rsbscs	r0, sp, r2
 6ec:	00000006 	andeq	r0, r0, r6
 6f0:	0000003a 	andeq	r0, r0, sl, lsr r0
 6f4:	20770002 	rsbscs	r0, r7, r2
	...
 704:	00000002 	andeq	r0, r0, r2
 708:	007d0002 	rsbseq	r0, sp, r2
 70c:	00000002 	andeq	r0, r0, r2
 710:	00000004 	andeq	r0, r0, r4
 714:	087d0002 	ldmdaeq	sp!, {r1}^
 718:	00000004 	andeq	r0, r0, r4
 71c:	00000006 	andeq	r0, r0, r6
 720:	287d0002 	ldmdacs	sp!, {r1}^
 724:	00000006 	andeq	r0, r0, r6
 728:	000000be 	strheq	r0, [r0], -lr
 72c:	28770002 	ldmdacs	r7!, {r1}^
	...
 73c:	00000002 	andeq	r0, r0, r2
 740:	007d0002 	rsbseq	r0, sp, r2
 744:	00000002 	andeq	r0, r0, r2
 748:	00000004 	andeq	r0, r0, r4
 74c:	087d0002 	ldmdaeq	sp!, {r1}^
 750:	00000004 	andeq	r0, r0, r4
 754:	00000006 	andeq	r0, r0, r6
 758:	307d0002 	rsbscc	r0, sp, r2
 75c:	00000006 	andeq	r0, r0, r6
 760:	00000142 	andeq	r0, r0, r2, asr #2
 764:	30770002 	rsbscc	r0, r7, r2
	...
 774:	00000002 	andeq	r0, r0, r2
 778:	007d0002 	rsbseq	r0, sp, r2
 77c:	00000002 	andeq	r0, r0, r2
 780:	00000004 	andeq	r0, r0, r4
 784:	047d0002 	ldrbteq	r0, [sp], #-2
 788:	00000004 	andeq	r0, r0, r4
 78c:	00000006 	andeq	r0, r0, r6
 790:	207d0002 	rsbscs	r0, sp, r2
 794:	00000006 	andeq	r0, r0, r6
 798:	00000070 	andeq	r0, r0, r0, ror r0
 79c:	20770002 	rsbscs	r0, r7, r2
	...
 7ac:	00000002 	andeq	r0, r0, r2
 7b0:	007d0002 	rsbseq	r0, sp, r2
 7b4:	00000002 	andeq	r0, r0, r2
 7b8:	00000004 	andeq	r0, r0, r4
 7bc:	087d0002 	ldmdaeq	sp!, {r1}^
 7c0:	00000004 	andeq	r0, r0, r4
 7c4:	00000006 	andeq	r0, r0, r6
 7c8:	287d0002 	ldmdacs	sp!, {r1}^
 7cc:	00000006 	andeq	r0, r0, r6
 7d0:	0000010a 	andeq	r0, r0, sl, lsl #2
 7d4:	28770002 	ldmdacs	r7!, {r1}^
	...
 7e4:	00000002 	andeq	r0, r0, r2
 7e8:	007d0002 	rsbseq	r0, sp, r2
 7ec:	00000002 	andeq	r0, r0, r2
 7f0:	00000004 	andeq	r0, r0, r4
 7f4:	047d0002 	ldrbteq	r0, [sp], #-2
 7f8:	00000004 	andeq	r0, r0, r4
 7fc:	00000006 	andeq	r0, r0, r6
 800:	307d0002 	rsbscc	r0, sp, r2
 804:	00000006 	andeq	r0, r0, r6
 808:	000001dc 	ldrdeq	r0, [r0], -ip
 80c:	30770002 	rsbscc	r0, r7, r2
	...
 81c:	00000002 	andeq	r0, r0, r2
 820:	007d0002 	rsbseq	r0, sp, r2
 824:	00000002 	andeq	r0, r0, r2
 828:	00000004 	andeq	r0, r0, r4
 82c:	087d0002 	ldmdaeq	sp!, {r1}^
 830:	00000004 	andeq	r0, r0, r4
 834:	00000006 	andeq	r0, r0, r6
 838:	207d0002 	rsbscs	r0, sp, r2
 83c:	00000006 	andeq	r0, r0, r6
 840:	0000017e 	andeq	r0, r0, lr, ror r1
 844:	20770002 	rsbscs	r0, r7, r2
	...
 850:	00000180 	andeq	r0, r0, r0, lsl #3
 854:	00000182 	andeq	r0, r0, r2, lsl #3
 858:	007d0002 	rsbseq	r0, sp, r2
 85c:	00000182 	andeq	r0, r0, r2, lsl #3
 860:	00000184 	andeq	r0, r0, r4, lsl #3
 864:	087d0002 	ldmdaeq	sp!, {r1}^
 868:	00000184 	andeq	r0, r0, r4, lsl #3
 86c:	00000186 	andeq	r0, r0, r6, lsl #3
 870:	287d0002 	ldmdacs	sp!, {r1}^
 874:	00000186 	andeq	r0, r0, r6, lsl #3
 878:	000001f0 	strdeq	r0, [r0], -r0	; <UNPREDICTABLE>
 87c:	28770002 	ldmdacs	r7!, {r1}^
	...
 888:	000001f0 	strdeq	r0, [r0], -r0	; <UNPREDICTABLE>
 88c:	000001f2 	strdeq	r0, [r0], -r2
 890:	007d0002 	rsbseq	r0, sp, r2
 894:	000001f2 	strdeq	r0, [r0], -r2
 898:	000001f4 	strdeq	r0, [r0], -r4
 89c:	087d0002 	ldmdaeq	sp!, {r1}^
 8a0:	000001f4 	strdeq	r0, [r0], -r4
 8a4:	000001f6 	strdeq	r0, [r0], -r6
 8a8:	207d0002 	rsbscs	r0, sp, r2
 8ac:	000001f6 	strdeq	r0, [r0], -r6
 8b0:	0000023e 	andeq	r0, r0, lr, lsr r2
 8b4:	20770002 	rsbscs	r0, r7, r2
	...
 8c4:	00000002 	andeq	r0, r0, r2
 8c8:	007d0002 	rsbseq	r0, sp, r2
 8cc:	00000002 	andeq	r0, r0, r2
 8d0:	00000004 	andeq	r0, r0, r4
 8d4:	087d0002 	ldmdaeq	sp!, {r1}^
 8d8:	00000004 	andeq	r0, r0, r4
 8dc:	00000006 	andeq	r0, r0, r6
 8e0:	187d0002 	ldmdane	sp!, {r1}^
 8e4:	00000006 	andeq	r0, r0, r6
 8e8:	0000003a 	andeq	r0, r0, sl, lsr r0
 8ec:	18770002 	ldmdane	r7!, {r1}^
	...

Disassembly of section .debug_aranges:

00000000 <.debug_aranges>:
   0:	0000001c 	andeq	r0, r0, ip, lsl r0
   4:	00000002 	andeq	r0, r0, r2
   8:	00040000 	andeq	r0, r4, r0
	...
  14:	00000030 	andeq	r0, r0, r0, lsr r0
	...
  20:	0000001c 	andeq	r0, r0, ip, lsl r0
  24:	00fc0002 	rscseq	r0, ip, r2
  28:	00040000 	andeq	r0, r4, r0
  2c:	00000000 	andeq	r0, r0, r0
  30:	00000030 	andeq	r0, r0, r0, lsr r0
  34:	00000042 	andeq	r0, r0, r2, asr #32
	...
  40:	0000001c 	andeq	r0, r0, ip, lsl r0
  44:	02e60002 	rsceq	r0, r6, #2
  48:	00040000 	andeq	r0, r4, r0
  4c:	00000000 	andeq	r0, r0, r0
  50:	00000074 	andeq	r0, r0, r4, ror r0
  54:	0000003e 	andeq	r0, r0, lr, lsr r0
	...
  60:	0000001c 	andeq	r0, r0, ip, lsl r0
  64:	047a0002 	ldrbteq	r0, [sl], #-2
  68:	00040000 	andeq	r0, r4, r0
  6c:	00000000 	andeq	r0, r0, r0
  70:	000000b4 	strheq	r0, [r0], -r4
  74:	000000a8 	andeq	r0, r0, r8, lsr #1
	...
  80:	0000001c 	andeq	r0, r0, ip, lsl r0
  84:	06240002 	strteq	r0, [r4], -r2
  88:	00040000 	andeq	r0, r4, r0
  8c:	00000000 	andeq	r0, r0, r0
  90:	0000015c 	andeq	r0, r0, ip, asr r1
  94:	000000be 	strheq	r0, [r0], -lr
	...
  a0:	0000001c 	andeq	r0, r0, ip, lsl r0
  a4:	07ce0002 	strbeq	r0, [lr, r2]
  a8:	00040000 	andeq	r0, r4, r0
  ac:	00000000 	andeq	r0, r0, r0
  b0:	0000021c 	andeq	r0, r0, ip, lsl r2
  b4:	0000004c 	andeq	r0, r0, ip, asr #32
	...
  c0:	0000001c 	andeq	r0, r0, ip, lsl r0
  c4:	09620002 	stmdbeq	r2!, {r1}^
  c8:	00040000 	andeq	r0, r4, r0
  cc:	00000000 	andeq	r0, r0, r0
  d0:	00000268 	andeq	r0, r0, r8, ror #4
  d4:	000000b4 	strheq	r0, [r0], -r4
	...
  e0:	0000001c 	andeq	r0, r0, ip, lsl r0
  e4:	0b0c0002 	bleq	3000f4 <FlashDriver+0x2fe330>
  e8:	00040000 	andeq	r0, r4, r0
  ec:	00000000 	andeq	r0, r0, r0
  f0:	0000031c 	andeq	r0, r0, ip, lsl r3
  f4:	00000348 	andeq	r0, r0, r8, asr #6
	...
 100:	00000014 	andeq	r0, r0, r4, lsl r0
 104:	0eb20002 	cdpeq	0, 11, cr0, cr2, cr2, {0}
 108:	00040000 	andeq	r0, r4, r0
	...
 118:	0000001c 	andeq	r0, r0, ip, lsl r0
 11c:	10240002 	eorne	r0, r4, r2
 120:	00040000 	andeq	r0, r4, r0
 124:	00000000 	andeq	r0, r0, r0
 128:	00000664 	andeq	r0, r0, r4, ror #12
 12c:	000000ca 	andeq	r0, r0, sl, asr #1
	...
 138:	0000001c 	andeq	r0, r0, ip, lsl r0
 13c:	11fe0002 	mvnsne	r0, r2
 140:	00040000 	andeq	r0, r4, r0
 144:	00000000 	andeq	r0, r0, r0
 148:	00000730 	andeq	r0, r0, r0, lsr r7
 14c:	000001f4 	strdeq	r0, [r0], -r4
	...
 158:	0000001c 	andeq	r0, r0, ip, lsl r0
 15c:	13b10002 			; <UNDEFINED> instruction: 0x13b10002
 160:	00040000 	andeq	r0, r4, r0
 164:	00000000 	andeq	r0, r0, r0
 168:	00000924 	andeq	r0, r0, r4, lsr #18
 16c:	00000032 	andeq	r0, r0, r2, lsr r0
	...
 178:	0000001c 	andeq	r0, r0, ip, lsl r0
 17c:	157f0002 	ldrbne	r0, [pc, #-2]!	; 182 <EEEWrite+0x26>
 180:	00040000 	andeq	r0, r4, r0
 184:	00000000 	andeq	r0, r0, r0
 188:	00000958 	andeq	r0, r0, r8, asr r9
 18c:	000000b6 	strheq	r0, [r0], -r6
	...
 198:	0000001c 	andeq	r0, r0, ip, lsl r0
 19c:	17660002 	strbne	r0, [r6, -r2]!
 1a0:	00040000 	andeq	r0, r4, r0
 1a4:	00000000 	andeq	r0, r0, r0
 1a8:	00000a10 	andeq	r0, r0, r0, lsl sl
 1ac:	00000026 	andeq	r0, r0, r6, lsr #32
	...
 1b8:	0000001c 	andeq	r0, r0, ip, lsl r0
 1bc:	18d00002 	ldmne	r0, {r1}^
 1c0:	00040000 	andeq	r0, r4, r0
 1c4:	00000000 	andeq	r0, r0, r0
 1c8:	00000a38 	andeq	r0, r0, r8, lsr sl
 1cc:	0000007c 	andeq	r0, r0, ip, ror r0
	...
 1d8:	0000001c 	andeq	r0, r0, ip, lsl r0
 1dc:	1ac80002 	bne	ff2001ec <FlashDriver+0xff1fe428>
 1e0:	00040000 	andeq	r0, r4, r0
 1e4:	00000000 	andeq	r0, r0, r0
 1e8:	00000ab4 			; <UNDEFINED> instruction: 0x00000ab4
 1ec:	00000048 	andeq	r0, r0, r8, asr #32
	...
 1f8:	0000001c 	andeq	r0, r0, ip, lsl r0
 1fc:	1c320002 	ldcne	0, cr0, [r2], #-8
 200:	00040000 	andeq	r0, r4, r0
 204:	00000000 	andeq	r0, r0, r0
 208:	00000afc 	strdeq	r0, [r0], -ip
 20c:	00000046 	andeq	r0, r0, r6, asr #32
	...
 218:	0000001c 	andeq	r0, r0, ip, lsl r0
 21c:	1dbb0002 	ldcne	0, cr0, [fp, #8]!
 220:	00040000 	andeq	r0, r4, r0
 224:	00000000 	andeq	r0, r0, r0
 228:	00000b44 	andeq	r0, r0, r4, asr #22
 22c:	00000056 	andeq	r0, r0, r6, asr r0
	...
 238:	0000001c 	andeq	r0, r0, ip, lsl r0
 23c:	1f440002 	svcne	0x00440002
 240:	00040000 	andeq	r0, r4, r0
 244:	00000000 	andeq	r0, r0, r0
 248:	00000b9c 	muleq	r0, ip, fp
 24c:	000002a0 	andeq	r0, r0, r0, lsr #5
	...
 258:	0000001c 	andeq	r0, r0, ip, lsl r0
 25c:	20d50002 	sbcscs	r0, r5, r2
 260:	00040000 	andeq	r0, r4, r0
 264:	00000000 	andeq	r0, r0, r0
 268:	00000e3c 	andeq	r0, r0, ip, lsr lr
 26c:	00000172 	andeq	r0, r0, r2, ror r1
	...
 278:	0000001c 	andeq	r0, r0, ip, lsl r0
 27c:	23180002 	tstcs	r8, #2
 280:	00040000 	andeq	r0, r4, r0
 284:	00000000 	andeq	r0, r0, r0
 288:	00000fb0 			; <UNDEFINED> instruction: 0x00000fb0
 28c:	000000c2 	andeq	r0, r0, r2, asr #1
	...
 298:	0000001c 	andeq	r0, r0, ip, lsl r0
 29c:	25200002 	strcs	r0, [r0, #-2]!
 2a0:	00040000 	andeq	r0, r4, r0
 2a4:	00000000 	andeq	r0, r0, r0
 2a8:	00001074 	andeq	r1, r0, r4, ror r0
 2ac:	000000cc 	andeq	r0, r0, ip, asr #1
	...
 2b8:	0000001c 	andeq	r0, r0, ip, lsl r0
 2bc:	27160002 	ldrcs	r0, [r6, -r2]
 2c0:	00040000 	andeq	r0, r4, r0
 2c4:	00000000 	andeq	r0, r0, r0
 2c8:	00001140 	andeq	r1, r0, r0, asr #2
 2cc:	00000168 	andeq	r0, r0, r8, ror #2
	...
 2d8:	0000001c 	andeq	r0, r0, ip, lsl r0
 2dc:	29420002 	stmdbcs	r2, {r1}^
 2e0:	00040000 	andeq	r0, r4, r0
 2e4:	00000000 	andeq	r0, r0, r0
 2e8:	000012a8 	andeq	r1, r0, r8, lsr #5
 2ec:	000000d2 	ldrdeq	r0, [r0], -r2
	...
 2f8:	0000001c 	andeq	r0, r0, ip, lsl r0
 2fc:	2b480002 	blcs	120030c <FlashDriver+0x11fe548>
 300:	00040000 	andeq	r0, r4, r0
 304:	00000000 	andeq	r0, r0, r0
 308:	0000137c 	andeq	r1, r0, ip, ror r3
 30c:	00000110 	andeq	r0, r0, r0, lsl r1
	...
 318:	0000001c 	andeq	r0, r0, ip, lsl r0
 31c:	2d4d0002 	stclcs	0, cr0, [sp, #-8]
 320:	00040000 	andeq	r0, r4, r0
 324:	00000000 	andeq	r0, r0, r0
 328:	0000148c 	andeq	r1, r0, ip, lsl #9
 32c:	0000007e 	andeq	r0, r0, lr, ror r0
	...
 338:	0000001c 	andeq	r0, r0, ip, lsl r0
 33c:	2f470002 	svccs	0x00470002
 340:	00040000 	andeq	r0, r4, r0
 344:	00000000 	andeq	r0, r0, r0
 348:	0000150c 	andeq	r1, r0, ip, lsl #10
 34c:	0000004c 	andeq	r0, r0, ip, asr #32
	...
 358:	0000001c 	andeq	r0, r0, ip, lsl r0
 35c:	30ca0002 	sbccc	r0, sl, r2
 360:	00040000 	andeq	r0, r4, r0
 364:	00000000 	andeq	r0, r0, r0
 368:	00001558 	andeq	r1, r0, r8, asr r5
 36c:	0000003a 	andeq	r0, r0, sl, lsr r0
	...
 378:	0000001c 	andeq	r0, r0, ip, lsl r0
 37c:	32a60002 	adccc	r0, r6, #2
 380:	00040000 	andeq	r0, r4, r0
 384:	00000000 	andeq	r0, r0, r0
 388:	00001594 	muleq	r0, r4, r5
 38c:	000000be 	strheq	r0, [r0], -lr
	...
 398:	0000001c 	andeq	r0, r0, ip, lsl r0
 39c:	349b0002 	ldrcc	r0, [fp], #2
 3a0:	00040000 	andeq	r0, r4, r0
 3a4:	00000000 	andeq	r0, r0, r0
 3a8:	00001654 	andeq	r1, r0, r4, asr r6
 3ac:	00000142 	andeq	r0, r0, r2, asr #2
	...
 3b8:	0000001c 	andeq	r0, r0, ip, lsl r0
 3bc:	36c50002 	strbcc	r0, [r5], r2
 3c0:	00040000 	andeq	r0, r4, r0
 3c4:	00000000 	andeq	r0, r0, r0
 3c8:	00001798 	muleq	r0, r8, r7
 3cc:	00000070 	andeq	r0, r0, r0, ror r0
	...
 3d8:	0000001c 	andeq	r0, r0, ip, lsl r0
 3dc:	38780002 	ldmdacc	r8!, {r1}^
 3e0:	00040000 	andeq	r0, r4, r0
 3e4:	00000000 	andeq	r0, r0, r0
 3e8:	00001808 	andeq	r1, r0, r8, lsl #16
 3ec:	0000010a 	andeq	r0, r0, sl, lsl #2
	...
 3f8:	0000001c 	andeq	r0, r0, ip, lsl r0
 3fc:	3a990002 	bcc	fe64040c <FlashDriver+0xfe63e648>
 400:	00040000 	andeq	r0, r4, r0
 404:	00000000 	andeq	r0, r0, r0
 408:	00001914 	andeq	r1, r0, r4, lsl r9
 40c:	000001dc 	ldrdeq	r0, [r0], -ip
	...
 418:	0000001c 	andeq	r0, r0, ip, lsl r0
 41c:	3c7b0002 	ldclcc	0, cr0, [fp], #-8
 420:	00040000 	andeq	r0, r4, r0
 424:	00000000 	andeq	r0, r0, r0
 428:	00001af0 	strdeq	r1, [r0], -r0
 42c:	0000023e 	andeq	r0, r0, lr, lsr r2
	...
 438:	0000001c 	andeq	r0, r0, ip, lsl r0
 43c:	3f540002 	svccc	0x00540002
 440:	00040000 	andeq	r0, r4, r0
 444:	00000000 	andeq	r0, r0, r0
 448:	00001d30 	andeq	r1, r0, r0, lsr sp
 44c:	0000003a 	andeq	r0, r0, sl, lsr r0
	...

Disassembly of section .debug_line:

00000000 <.debug_line>:
       0:	00000053 	andeq	r0, r0, r3, asr r0
       4:	00350002 	eorseq	r0, r5, r2
       8:	01020000 	mrseq	r0, (UNDEF: 2)
       c:	000d0efb 	strdeq	r0, [sp], -fp
      10:	01010101 	tsteq	r1, r1, lsl #2
      14:	01000000 	mrseq	r0, (UNDEF: 0)
      18:	2e010000 	cdpcs	0, 0, cr0, cr1, cr0, {0}
      1c:	2e2e2f2e 	cdpcs	15, 2, cr2, cr14, cr14, {1}
      20:	6172662f 	cmnvs	r2, pc, lsr #12
      24:	6f77656d 	svcvs	0x0077656d
      28:	00006b72 	andeq	r6, r0, r2, ror fp
      2c:	73616c46 	cmnvc	r1, #17920	; 0x4600
      30:	65784568 	ldrbvs	r4, [r8, #-1384]!	; 0xfffffa98
      34:	636e4663 	cmnvs	lr, #103809024	; 0x6300000
      38:	0100632e 	tsteq	r0, lr, lsr #6
      3c:	00000000 	andeq	r0, r0, r0
      40:	00000205 	andeq	r0, r0, r5, lsl #4
      44:	26030000 	strcs	r0, [r3], -r0
      48:	032f1301 	teqeq	pc, #67108864	; 0x4000000
      4c:	67760118 			; <UNDEFINED> instruction: 0x67760118
      50:	0502213e 	streq	r2, [r2, #-318]	; 0xfffffec2
      54:	6b010100 	blvs	4045c <FlashDriver+0x3e698>
      58:	02000000 	andeq	r0, r0, #0
      5c:	00004d00 	andeq	r4, r0, r0, lsl #26
      60:	fb010200 	blx	4086a <FlashDriver+0x3eaa6>
      64:	01000d0e 	tsteq	r0, lr, lsl #26
      68:	00010101 	andeq	r0, r1, r1, lsl #2
      6c:	00010000 	andeq	r0, r1, r0
      70:	2e000100 	adfcss	f0, f0, f0
      74:	45442f2e 	strbmi	r2, [r4, #-3886]	; 0xfffff0d2
      78:	73616c46 	cmnvc	r1, #17920	; 0x4600
      7c:	72615068 	rsbvc	r5, r1, #104	; 0x68
      80:	69746974 	ldmdbvs	r4!, {r2, r4, r5, r6, r8, fp, sp, lr}^
      84:	632e6e6f 	teqvs	lr, #1776	; 0x6f0
      88:	00000000 	andeq	r0, r0, r0
      8c:	53532f2e 	cmppl	r3, #46, 30	; 0xb8
      90:	79545f44 	ldmdbvc	r4, {r2, r6, r8, r9, sl, fp, ip, lr}^
      94:	2e736570 	mrccs	5, 3, r6, cr3, cr0, {3}
      98:	00000068 	andeq	r0, r0, r8, rrx
      9c:	532f2e00 	teqpl	pc, #0, 28
      a0:	465f4453 			; <UNDEFINED> instruction: 0x465f4453
      a4:	2e784654 	mrccs	6, 3, r4, cr8, cr4, {2}
      a8:	00000068 	andeq	r0, r0, r8, rrx
      ac:	05000000 	streq	r0, [r0, #-0]
      b0:	00003002 	andeq	r3, r0, r2
      b4:	012c0300 	teqeq	ip, r0, lsl #6
      b8:	2f3d3f95 	svccs	0x003d3f95
      bc:	820d0331 	andhi	r0, sp, #-1006632960	; 0xc4000000
      c0:	00050221 	andeq	r0, r5, r1, lsr #4
      c4:	006e0101 	rsbeq	r0, lr, r1, lsl #2
      c8:	00020000 	andeq	r0, r2, r0
      cc:	00000050 	andeq	r0, r0, r0, asr r0
      d0:	0efb0102 	cdpeq	1, 15, cr0, cr11, cr2, {0}
      d4:	0101000d 	tsteq	r1, sp
      d8:	00000101 	andeq	r0, r0, r1, lsl #2
      dc:	00000100 	andeq	r0, r0, r0, lsl #2
      e0:	2e2e0001 	cdpcs	0, 2, cr0, cr14, cr1, {0}
      e4:	6c46442f 	cfstrdvs	mvd4, [r6], {47}	; 0x2f
      e8:	47687361 	strbmi	r7, [r8, -r1, ror #6]!
      ec:	72507465 	subsvc	r7, r0, #1694498816	; 0x65000000
      f0:	6365746f 	cmnvs	r5, #1862270976	; 0x6f000000
      f4:	6e6f6974 	mcrvs	9, 3, r6, cr15, cr4, {3}
      f8:	0000632e 	andeq	r6, r0, lr, lsr #6
      fc:	2f2e0000 	svccs	0x002e0000
     100:	5f445353 	svcpl	0x00445353
     104:	65707954 	ldrbvs	r7, [r0, #-2388]!	; 0xfffff6ac
     108:	00682e73 	rsbeq	r2, r8, r3, ror lr
     10c:	2e000000 	cdpcs	0, 0, cr0, cr0, cr0, {0}
     110:	4453532f 	ldrbmi	r5, [r3], #-815	; 0xfffffcd1
     114:	4654465f 			; <UNDEFINED> instruction: 0x4654465f
     118:	00682e78 	rsbeq	r2, r8, r8, ror lr
     11c:	00000000 	andeq	r0, r0, r0
     120:	74020500 	strvc	r0, [r2], #-1280	; 0xfffffb00
     124:	03000000 	movweq	r0, #0
     128:	3f5c0127 	svccc	0x005c0127
     12c:	03273d4c 	teqeq	r7, #76, 26	; 0x1300
     130:	0221820e 	eoreq	r8, r1, #-536870912	; 0xe0000000
     134:	01010006 	tsteq	r1, r6
     138:	0000007a 	andeq	r0, r0, sl, ror r0
     13c:	00500002 	subseq	r0, r0, r2
     140:	01020000 	mrseq	r0, (UNDEF: 2)
     144:	000d0efb 	strdeq	r0, [sp], -fp
     148:	01010101 	tsteq	r1, r1, lsl #2
     14c:	01000000 	mrseq	r0, (UNDEF: 0)
     150:	00010000 	andeq	r0, r1, r0
     154:	442f2e2e 	strtmi	r2, [pc], #-3630	; 15c <EEEWrite>
     158:	73616c46 	cmnvc	r1, #17920	; 0x4600
     15c:	74655368 	strbtvc	r5, [r5], #-872	; 0xfffffc98
     160:	746f7250 	strbtvc	r7, [pc], #-592	; 168 <EEEWrite+0xc>
     164:	69746365 	ldmdbvs	r4!, {r0, r2, r5, r6, r8, r9, sp, lr}^
     168:	632e6e6f 	teqvs	lr, #1776	; 0x6f0
     16c:	00000000 	andeq	r0, r0, r0
     170:	53532f2e 	cmppl	r3, #46, 30	; 0xb8
     174:	79545f44 	ldmdbvc	r4, {r2, r6, r8, r9, sl, fp, ip, lr}^
     178:	2e736570 	mrccs	5, 3, r6, cr3, cr0, {3}
     17c:	00000068 	andeq	r0, r0, r8, rrx
     180:	532f2e00 	teqpl	pc, #0, 28
     184:	465f4453 			; <UNDEFINED> instruction: 0x465f4453
     188:	2e784654 	mrccs	6, 3, r4, cr8, cr4, {2}
     18c:	00000068 	andeq	r0, r0, r8, rrx
     190:	05000000 	streq	r0, [r0, #-0]
     194:	0000b402 	andeq	fp, r0, r2, lsl #8
     198:	012a0300 	teqeq	sl, r0, lsl #6
     19c:	3d843e6c 	stccc	14, cr3, [r4, #432]	; 0x1b0
     1a0:	283d4c23 	ldmdacs	sp!, {r0, r1, r5, sl, fp, lr}
     1a4:	4b857669 	blmi	fe15db50 <FlashDriver+0xfe15bd8c>
     1a8:	3e1e6c68 	cdpcc	12, 1, cr6, cr14, cr8, {3}
     1ac:	660e0323 	strvs	r0, [lr], -r3, lsr #6
     1b0:	00060221 	andeq	r0, r6, r1, lsr #4
     1b4:	008a0101 	addeq	r0, sl, r1, lsl #2
     1b8:	00020000 	andeq	r0, r2, r0
     1bc:	00000045 	andeq	r0, r0, r5, asr #32
     1c0:	0efb0102 	cdpeq	1, 15, cr0, cr11, cr2, {0}
     1c4:	0101000d 	tsteq	r1, sp
     1c8:	00000101 	andeq	r0, r0, r1, lsl #2
     1cc:	00000100 	andeq	r0, r0, r0, lsl #2
     1d0:	2e2e0001 	cdpcs	0, 2, cr0, cr14, cr1, {0}
     1d4:	4545452f 	strbmi	r4, [r5, #-1327]	; 0xfffffad1
     1d8:	74697257 	strbtvc	r7, [r9], #-599	; 0xfffffda9
     1dc:	00632e65 	rsbeq	r2, r3, r5, ror #28
     1e0:	2e000000 	cdpcs	0, 0, cr0, cr0, cr0, {0}
     1e4:	4453532f 	ldrbmi	r5, [r3], #-815	; 0xfffffcd1
     1e8:	7079545f 	rsbsvc	r5, r9, pc, asr r4
     1ec:	682e7365 	stmdavs	lr!, {r0, r2, r5, r6, r8, r9, ip, sp, lr}
     1f0:	00000000 	andeq	r0, r0, r0
     1f4:	53532f2e 	cmppl	r3, #46, 30	; 0xb8
     1f8:	54465f44 	strbpl	r5, [r6], #-3908	; 0xfffff0bc
     1fc:	682e7846 	stmdavs	lr!, {r1, r2, r6, fp, ip, sp, lr}
     200:	00000000 	andeq	r0, r0, r0
     204:	02050000 	andeq	r0, r5, #0
     208:	0000015c 	andeq	r0, r0, ip, asr r1
     20c:	77012e03 	strvc	r2, [r1, -r3, lsl #28]
     210:	0200a03e 	andeq	sl, r0, #62	; 0x3e
     214:	00590104 	subseq	r0, r9, r4, lsl #2
     218:	81010402 	tsthi	r1, r2, lsl #8
     21c:	00263d31 	eoreq	r3, r6, r1, lsr sp
     220:	06010402 	streq	r0, [r1], -r2, lsl #8
     224:	5ba20620 	blpl	fe881aac <FlashDriver+0xfe87fce8>
     228:	4c323d84 	ldcmi	13, cr3, [r2], #-528	; 0xfffffdf0
     22c:	0402004c 	streq	r0, [r2], #-76	; 0xffffffb4
     230:	4a6c0301 	bmi	1b00e3c <FlashDriver+0x1aff078>
     234:	03063c06 	movweq	r3, #27654	; 0x6c06
     238:	033d201a 	teqeq	sp, #26
     23c:	0221200e 	eoreq	r2, r1, #14
     240:	01010006 	tsteq	r1, r6
     244:	0000006d 	andeq	r0, r0, sp, rrx
     248:	004f0002 	subeq	r0, pc, r2
     24c:	01020000 	mrseq	r0, (UNDEF: 2)
     250:	000d0efb 	strdeq	r0, [sp], -fp
     254:	01010101 	tsteq	r1, r1, lsl #2
     258:	01000000 	mrseq	r0, (UNDEF: 0)
     25c:	00010000 	andeq	r0, r1, r0
     260:	452f2e2e 	strmi	r2, [pc, #-3630]!	; fffff43a <FlashDriver+0xffffd676>
     264:	4d415245 	sfmmi	f5, 2, [r1, #-276]	; 0xfffffeec
     268:	50746547 	rsbspl	r6, r4, r7, asr #10
     26c:	65746f72 	ldrbvs	r6, [r4, #-3954]!	; 0xfffff08e
     270:	6f697463 	svcvs	0x00697463
     274:	00632e6e 	rsbeq	r2, r3, lr, ror #28
     278:	2e000000 	cdpcs	0, 0, cr0, cr0, cr0, {0}
     27c:	4453532f 	ldrbmi	r5, [r3], #-815	; 0xfffffcd1
     280:	7079545f 	rsbsvc	r5, r9, pc, asr r4
     284:	682e7365 	stmdavs	lr!, {r0, r2, r5, r6, r8, r9, ip, sp, lr}
     288:	00000000 	andeq	r0, r0, r0
     28c:	53532f2e 	cmppl	r3, #46, 30	; 0xb8
     290:	54465f44 	strbpl	r5, [r6], #-3908	; 0xfffff0bc
     294:	682e7846 	stmdavs	lr!, {r1, r2, r6, fp, ip, sp, lr}
     298:	00000000 	andeq	r0, r0, r0
     29c:	02050000 	andeq	r0, r5, #0
     2a0:	0000021c 	andeq	r0, r0, ip, lsl r2
     2a4:	5c012703 	stcpl	7, cr2, [r1], {3}
     2a8:	3d94a13f 	ldfccd	f2, [r4, #252]	; 0xfc
     2ac:	21200f03 	teqcs	r0, r3, lsl #30
     2b0:	01000602 	tsteq	r0, r2, lsl #12
     2b4:	00007901 	andeq	r7, r0, r1, lsl #18
     2b8:	4f000200 	svcmi	0x00000200
     2bc:	02000000 	andeq	r0, r0, #0
     2c0:	0d0efb01 	vstreq	d15, [lr, #-4]
     2c4:	01010100 	mrseq	r0, (UNDEF: 17)
     2c8:	00000001 	andeq	r0, r0, r1
     2cc:	01000001 	tsteq	r0, r1
     2d0:	2f2e2e00 	svccs	0x002e2e00
     2d4:	41524545 	cmpmi	r2, r5, asr #10
     2d8:	7465534d 	strbtvc	r5, [r5], #-845	; 0xfffffcb3
     2dc:	746f7250 	strbtvc	r7, [pc], #-592	; 2e4 <EERAMSetProtection+0x7c>
     2e0:	69746365 	ldmdbvs	r4!, {r0, r2, r5, r6, r8, r9, sp, lr}^
     2e4:	632e6e6f 	teqvs	lr, #1776	; 0x6f0
     2e8:	00000000 	andeq	r0, r0, r0
     2ec:	53532f2e 	cmppl	r3, #46, 30	; 0xb8
     2f0:	79545f44 	ldmdbvc	r4, {r2, r6, r8, r9, sl, fp, ip, lr}^
     2f4:	2e736570 	mrccs	5, 3, r6, cr3, cr0, {3}
     2f8:	00000068 	andeq	r0, r0, r8, rrx
     2fc:	532f2e00 	teqpl	pc, #0, 28
     300:	465f4453 			; <UNDEFINED> instruction: 0x465f4453
     304:	2e784654 	mrccs	6, 3, r4, cr8, cr4, {2}
     308:	00000068 	andeq	r0, r0, r8, rrx
     30c:	05000000 	streq	r0, [r0, #-0]
     310:	00026802 	andeq	r6, r2, r2, lsl #16
     314:	01280300 	teqeq	r8, r0, lsl #6
     318:	3d843e6c 	stccc	14, cr3, [r4, #432]	; 0x1b0
     31c:	283da123 	ldmdacs	sp!, {r0, r1, r5, r8, sp, pc}
     320:	4b857669 	blmi	fe15dccc <FlashDriver+0xfe15bf08>
     324:	3e1e6c68 	cdpcc	12, 1, cr6, cr14, cr8, {3}
     328:	660e0323 	strvs	r0, [lr], -r3, lsr #6
     32c:	00060221 	andeq	r0, r6, r1, lsr #4
     330:	00ff0101 	rscseq	r0, pc, r1, lsl #2
     334:	00020000 	andeq	r0, r2, r0
     338:	0000004a 	andeq	r0, r0, sl, asr #32
     33c:	0efb0102 	cdpeq	1, 15, cr0, cr11, cr2, {0}
     340:	0101000d 	tsteq	r1, sp
     344:	00000101 	andeq	r0, r0, r1, lsl #2
     348:	00000100 	andeq	r0, r0, r0, lsl #2
     34c:	2e2e0001 	cdpcs	0, 2, cr0, cr14, cr1, {0}
     350:	616c462f 	cmnvs	ip, pc, lsr #12
     354:	6c416873 	mcrrvs	8, 7, r6, r1, cr3
     358:	6e466f67 	cdpvs	15, 4, cr6, cr6, cr7, {3}
     35c:	632e7363 	teqvs	lr, #-1946157055	; 0x8c000001
     360:	00000000 	andeq	r0, r0, r0
     364:	53532f2e 	cmppl	r3, #46, 30	; 0xb8
     368:	79545f44 	ldmdbvc	r4, {r2, r6, r8, r9, sl, fp, ip, lr}^
     36c:	2e736570 	mrccs	5, 3, r6, cr3, cr0, {3}
     370:	00000068 	andeq	r0, r0, r8, rrx
     374:	532f2e00 	teqpl	pc, #0, 28
     378:	465f4453 			; <UNDEFINED> instruction: 0x465f4453
     37c:	2e784654 	mrccs	6, 3, r4, cr8, cr4, {2}
     380:	00000068 	andeq	r0, r0, r8, rrx
     384:	05000000 	streq	r0, [r0, #-0]
     388:	00031c02 	andeq	r1, r3, r2, lsl #24
     38c:	00c20300 	sbceq	r0, r2, r0, lsl #6
     390:	4d3f7a01 	vldmdbmi	pc!, {s14}
     394:	5b243d5b 	blpl	90f908 <FlashDriver+0x90db44>
     398:	0200243d 	andeq	r2, r0, #1023410176	; 0x3d000000
     39c:	00590104 	subseq	r0, r9, r4, lsl #2
     3a0:	57010402 	strpl	r0, [r1, -r2, lsl #8]
     3a4:	0402003f 	streq	r0, [r2], #-63	; 0xffffffc1
     3a8:	02005901 	andeq	r5, r0, #16384	; 0x4000
     3ac:	40570104 	subsmi	r0, r7, r4, lsl #2
     3b0:	0402003d 	streq	r0, [r2], #-61	; 0xffffffc3
     3b4:	02002501 	andeq	r2, r0, #4194304	; 0x400000
     3b8:	76030104 	strvc	r0, [r3], -r4, lsl #2
     3bc:	20100374 	andscs	r0, r0, r4, ror r3
     3c0:	3d233e5c 	stccc	14, cr3, [r3, #-368]!	; 0xfffffe90
     3c4:	0c035959 	stceq	9, cr5, [r3], {89}	; 0x59
     3c8:	6767673c 			; <UNDEFINED> instruction: 0x6767673c
     3cc:	6767674b 	strbvs	r6, [r7, -fp, asr #14]!
     3d0:	4c43856a 	cfstr64mi	mvdx8, [r3], {106}	; 0x6a
     3d4:	0402004c 	streq	r0, [r2], #-76	; 0xffffffb4
     3d8:	4a550301 	bmi	1540fe4 <FlashDriver+0x153f220>
     3dc:	034a2203 	movteq	r2, #41475	; 0xa203
     3e0:	0321201a 	teqeq	r1, #26
     3e4:	5a686617 	bpl	1a19c48 <FlashDriver+0x1a17e84>
     3e8:	59844c4c 	stmibpl	r4, {r2, r3, r6, sl, fp, lr}
     3ec:	67686867 	strbvs	r6, [r8, -r7, ror #16]!
     3f0:	00677567 	rsbeq	r7, r7, r7, ror #10
     3f4:	06010402 	streq	r0, [r1], -r2, lsl #8
     3f8:	313d0690 			; <UNDEFINED> instruction: 0x313d0690
     3fc:	4be41203 	blmi	ff904c10 <FlashDriver+0xff902e4c>
     400:	6610032f 	ldrvs	r0, [r0], -pc, lsr #6
     404:	0402004c 	streq	r0, [r2], #-76	; 0xffffffb4
     408:	06e40601 	strbteq	r0, [r4], r1, lsl #12
     40c:	3da12f3d 	stccc	15, cr2, [r1, #244]!	; 0xf4
     410:	01040200 	mrseq	r0, R12_usr
     414:	3d06c806 	stccc	8, cr12, [r6, #-24]	; 0xffffffe8
     418:	01040200 	mrseq	r0, R12_usr
     41c:	062e0806 	strteq	r0, [lr], -r6, lsl #16
     420:	15032f3d 	strne	r2, [r3, #-3901]	; 0xfffff0c3
     424:	00676790 	mlseq	r7, r0, r7, r6
     428:	06010402 	streq	r0, [r1], -r2, lsl #8
     42c:	2f3d06f2 	svccs	0x003d06f2
     430:	01000902 	tsteq	r0, r2, lsl #18
     434:	00005301 	andeq	r5, r0, r1, lsl #6
     438:	4d000200 	sfmmi	f0, 4, [r0, #-0]
     43c:	02000000 	andeq	r0, r0, #0
     440:	0d0efb01 	vstreq	d15, [lr, #-4]
     444:	01010100 	mrseq	r0, (UNDEF: 17)
     448:	00000001 	andeq	r0, r0, r1
     44c:	01000001 	tsteq	r0, r1
     450:	2e2f2e2e 	cdpcs	14, 2, cr2, cr15, cr14, {1}
     454:	72662f2e 	rsbvc	r2, r6, #46, 30	; 0xb8
     458:	77656d61 	strbvc	r6, [r5, -r1, ror #26]!
     45c:	006b726f 	rsbeq	r7, fp, pc, ror #4
     460:	616c4600 	cmnvs	ip, r0, lsl #12
     464:	6c416873 	mcrrvs	8, 7, r6, r1, cr3
     468:	69726f67 	ldmdbvs	r2!, {r0, r1, r2, r5, r6, r8, r9, sl, fp, sp, lr}^
     46c:	2e6d6874 	mcrcs	8, 3, r6, cr13, cr4, {3}
     470:	00010068 	andeq	r0, r1, r8, rrx
     474:	2f2e2e00 	svccs	0x002e2e00
     478:	73616c46 	cmnvc	r1, #17920	; 0x4600
     47c:	676c4168 	strbvs	r4, [ip, -r8, ror #2]!
     480:	666e496f 	strbtvs	r4, [lr], -pc, ror #18
     484:	00632e6f 	rsbeq	r2, r3, pc, ror #28
     488:	00000000 	andeq	r0, r0, r0
     48c:	00000092 	muleq	r0, r2, r0
     490:	004a0002 	subeq	r0, sl, r2
     494:	01020000 	mrseq	r0, (UNDEF: 2)
     498:	000d0efb 	strdeq	r0, [sp], -fp
     49c:	01010101 	tsteq	r1, r1, lsl #2
     4a0:	01000000 	mrseq	r0, (UNDEF: 0)
     4a4:	00010000 	andeq	r0, r1, r0
     4a8:	462f2e2e 	strtmi	r2, [pc], -lr, lsr #28
     4ac:	6873616c 	ldmdavs	r3!, {r2, r3, r5, r6, r8, sp, lr}^
     4b0:	63656843 	cmnvs	r5, #4390912	; 0x430000
     4b4:	6d75536b 	ldclvs	3, cr5, [r5, #-428]!	; 0xfffffe54
     4b8:	0000632e 	andeq	r6, r0, lr, lsr #6
     4bc:	2f2e0000 	svccs	0x002e0000
     4c0:	5f445353 	svcpl	0x00445353
     4c4:	65707954 	ldrbvs	r7, [r0, #-2388]!	; 0xfffff6ac
     4c8:	00682e73 	rsbeq	r2, r8, r3, ror lr
     4cc:	2e000000 	cdpcs	0, 0, cr0, cr0, cr0, {0}
     4d0:	4453532f 	ldrbmi	r5, [r3], #-815	; 0xfffffcd1
     4d4:	4654465f 			; <UNDEFINED> instruction: 0x4654465f
     4d8:	00682e78 	rsbeq	r2, r8, r8, ror lr
     4dc:	00000000 	andeq	r0, r0, r0
     4e0:	64020500 	strvs	r0, [r2], #-1280	; 0xfffffb00
     4e4:	03000006 	movweq	r0, #6
     4e8:	3e7b012c 	rpwccep	f0, f3, #4.0
     4ec:	02004d3f 	andeq	r4, r0, #4032	; 0xfc0
     4f0:	00590104 	subseq	r0, r9, r4, lsl #2
     4f4:	57010402 	strpl	r0, [r1, -r2, lsl #8]
     4f8:	0402003f 	streq	r0, [r2], #-63	; 0xffffffc1
     4fc:	02005901 	andeq	r5, r0, #16384	; 0x4000
     500:	40570104 	subsmi	r0, r7, r4, lsl #2
     504:	200c033d 	andcs	r0, ip, sp, lsr r3
     508:	4b224c3e 	blmi	893608 <FlashDriver+0x891844>
     50c:	774d4b67 	strbvc	r4, [sp, -r7, ror #22]
     510:	0200445a 	andeq	r4, r0, #1509949440	; 0x5a000000
     514:	6b030104 	blvs	c092c <FlashDriver+0xbeb68>
     518:	4a2e033c 	bmi	b81210 <FlashDriver+0xb7f44c>
     51c:	00050221 	andeq	r0, r5, r1, lsr #4
     520:	00af0101 	adceq	r0, pc, r1, lsl #2
     524:	00020000 	andeq	r0, r2, r0
     528:	00000051 	andeq	r0, r0, r1, asr r0
     52c:	0efb0102 	cdpeq	1, 15, cr0, cr11, cr2, {0}
     530:	0101000d 	tsteq	r1, sp
     534:	00000101 	andeq	r0, r0, r1, lsl #2
     538:	00000100 	andeq	r0, r0, r0, lsl #2
     53c:	2e2e0001 	cdpcs	0, 2, cr0, cr14, cr1, {0}
     540:	616c462f 	cmnvs	ip, pc, lsr #12
     544:	6f436873 	svcvs	0x00436873
     548:	6e616d6d 	cdpvs	13, 6, cr6, cr1, cr13, {3}
     54c:	71655364 	cmnvc	r5, r4, ror #6
     550:	636e6575 	cmnvs	lr, #490733568	; 0x1d400000
     554:	00632e65 	rsbeq	r2, r3, r5, ror #28
     558:	2e000000 	cdpcs	0, 0, cr0, cr0, cr0, {0}
     55c:	4453532f 	ldrbmi	r5, [r3], #-815	; 0xfffffcd1
     560:	7079545f 	rsbsvc	r5, r9, pc, asr r4
     564:	682e7365 	stmdavs	lr!, {r0, r2, r5, r6, r8, r9, ip, sp, lr}
     568:	00000000 	andeq	r0, r0, r0
     56c:	53532f2e 	cmppl	r3, #46, 30	; 0xb8
     570:	54465f44 	strbpl	r5, [r6], #-3908	; 0xfffff0bc
     574:	682e7846 	stmdavs	lr!, {r1, r2, r6, fp, ip, sp, lr}
     578:	00000000 	andeq	r0, r0, r0
     57c:	02050000 	andeq	r0, r5, #0
     580:	00000730 	andeq	r0, r0, r0, lsr r7
     584:	7a012703 	bvc	4a198 <FlashDriver+0x483d4>
     588:	0402003f 	streq	r0, [r2], #-63	; 0xffffffc1
     58c:	06200601 	strteq	r0, [r0], -r1, lsl #12
     590:	024c5c88 	subeq	r5, ip, #136, 24	; 0x8800
     594:	21911422 	orrscs	r1, r1, r2, lsr #8
     598:	21912191 			; <UNDEFINED> instruction: 0x21912191
     59c:	21912191 			; <UNDEFINED> instruction: 0x21912191
     5a0:	21912191 			; <UNDEFINED> instruction: 0x21912191
     5a4:	21912191 			; <UNDEFINED> instruction: 0x21912191
     5a8:	21912191 			; <UNDEFINED> instruction: 0x21912191
     5ac:	64032191 	strvs	r2, [r3], #-401	; 0xfffffe6f
     5b0:	04020020 	streq	r0, [r2], #-32	; 0xffffffe0
     5b4:	064a0601 	strbeq	r0, [sl], -r1, lsl #12
     5b8:	5b582103 	blpl	16089cc <FlashDriver+0x1606c08>
     5bc:	02005a24 	andeq	r5, r0, #36, 20	; 0x24000
     5c0:	7a030104 	bvc	c09d8 <FlashDriver+0xbec14>
     5c4:	8210033c 	andshi	r0, r0, #60, 6	; 0xf0000000
     5c8:	5b4d5b4d 	blpl	1357304 <FlashDriver+0x1355540>
     5cc:	21435b4d 	cmpcs	r3, sp, asr #22
     5d0:	01000502 	tsteq	r0, r2, lsl #10
     5d4:	00006b01 	andeq	r6, r0, r1, lsl #22
     5d8:	4f000200 	svcmi	0x00000200
     5dc:	02000000 	andeq	r0, r0, #0
     5e0:	0d0efb01 	vstreq	d15, [lr, #-4]
     5e4:	01010100 	mrseq	r0, (UNDEF: 17)
     5e8:	00000001 	andeq	r0, r0, r1
     5ec:	01000001 	tsteq	r0, r1
     5f0:	2f2e2e00 	svccs	0x002e2e00
     5f4:	73616c46 	cmnvc	r1, #17920	; 0x4600
     5f8:	61724568 	cmnvs	r2, r8, ror #10
     5fc:	6c416573 	cfstr64vs	mvdx6, [r1], {115}	; 0x73
     600:	6f6c426c 	svcvs	0x006c426c
     604:	632e6b63 	teqvs	lr, #101376	; 0x18c00
     608:	00000000 	andeq	r0, r0, r0
     60c:	53532f2e 	cmppl	r3, #46, 30	; 0xb8
     610:	79545f44 	ldmdbvc	r4, {r2, r6, r8, r9, sl, fp, ip, lr}^
     614:	2e736570 	mrccs	5, 3, r6, cr3, cr0, {3}
     618:	00000068 	andeq	r0, r0, r8, rrx
     61c:	532f2e00 	teqpl	pc, #0, 28
     620:	465f4453 			; <UNDEFINED> instruction: 0x465f4453
     624:	2e784654 	mrccs	6, 3, r4, cr8, cr4, {2}
     628:	00000068 	andeq	r0, r0, r8, rrx
     62c:	05000000 	streq	r0, [r0, #-0]
     630:	00092402 	andeq	r2, r9, r2, lsl #8
     634:	012b0300 	teqeq	fp, r0, lsl #6
     638:	033f405d 	teqeq	pc, #93	; 0x5d
     63c:	0221820d 	eoreq	r8, r1, #-805306368	; 0xd0000000
     640:	01010005 	tsteq	r1, r5
     644:	00000095 	muleq	r0, r5, r0
     648:	004c0002 	subeq	r0, ip, r2
     64c:	01020000 	mrseq	r0, (UNDEF: 2)
     650:	000d0efb 	strdeq	r0, [sp], -fp
     654:	01010101 	tsteq	r1, r1, lsl #2
     658:	01000000 	mrseq	r0, (UNDEF: 0)
     65c:	00010000 	andeq	r0, r1, r0
     660:	462f2e2e 	strtmi	r2, [pc], -lr, lsr #28
     664:	6873616c 	ldmdavs	r3!, {r2, r3, r5, r6, r8, sp, lr}^
     668:	73617245 	cmnvc	r1, #1342177284	; 0x50000004
     66c:	6f6c4265 	svcvs	0x006c4265
     670:	632e6b63 	teqvs	lr, #101376	; 0x18c00
     674:	00000000 	andeq	r0, r0, r0
     678:	53532f2e 	cmppl	r3, #46, 30	; 0xb8
     67c:	79545f44 	ldmdbvc	r4, {r2, r6, r8, r9, sl, fp, ip, lr}^
     680:	2e736570 	mrccs	5, 3, r6, cr3, cr0, {3}
     684:	00000068 	andeq	r0, r0, r8, rrx
     688:	532f2e00 	teqpl	pc, #0, 28
     68c:	465f4453 			; <UNDEFINED> instruction: 0x465f4453
     690:	2e784654 	mrccs	6, 3, r4, cr8, cr4, {2}
     694:	00000068 	andeq	r0, r0, r8, rrx
     698:	05000000 	streq	r0, [r0, #-0]
     69c:	00095802 	andeq	r5, r9, r2, lsl #16
     6a0:	012b0300 	teqeq	fp, r0, lsl #6
     6a4:	3d5b3f6b 	ldclcc	15, cr3, [fp, #-428]	; 0xfffffe54
     6a8:	04020024 	streq	r0, [r2], #-36	; 0xffffffdc
     6ac:	02005901 	andeq	r5, r0, #16384	; 0x4000
     6b0:	3f570104 	svccc	0x00570104
     6b4:	01040200 	mrseq	r0, R12_usr
     6b8:	04020059 	streq	r0, [r2], #-89	; 0xffffffa7
     6bc:	3d405701 	stclcc	7, cr5, [r0, #-4]
     6c0:	01040200 	mrseq	r0, R12_usr
     6c4:	04020025 	streq	r0, [r2], #-37	; 0xffffffdb
     6c8:	74760301 	ldrbtvc	r0, [r6], #-769	; 0xfffffcff
     6cc:	5c201003 	stcpl	0, cr1, [r0], #-12
     6d0:	3f59593d 	svccc	0x0059593d
     6d4:	21820e03 	orrcs	r0, r2, r3, lsl #28
     6d8:	01000502 	tsteq	r0, r2, lsl #10
     6dc:	00006801 	andeq	r6, r0, r1, lsl #16
     6e0:	4d000200 	sfmmi	f0, 4, [r0, #-0]
     6e4:	02000000 	andeq	r0, r0, #0
     6e8:	0d0efb01 	vstreq	d15, [lr, #-4]
     6ec:	01010100 	mrseq	r0, (UNDEF: 17)
     6f0:	00000001 	andeq	r0, r0, r1
     6f4:	01000001 	tsteq	r0, r1
     6f8:	2f2e2e00 	svccs	0x002e2e00
     6fc:	73616c46 	cmnvc	r1, #17920	; 0x4600
     700:	61724568 	cmnvs	r2, r8, ror #10
     704:	65526573 	ldrbvs	r6, [r2, #-1395]	; 0xfffffa8d
     708:	656d7573 	strbvs	r7, [sp, #-1395]!	; 0xfffffa8d
     70c:	0000632e 	andeq	r6, r0, lr, lsr #6
     710:	2f2e0000 	svccs	0x002e0000
     714:	5f445353 	svcpl	0x00445353
     718:	65707954 	ldrbvs	r7, [r0, #-2388]!	; 0xfffff6ac
     71c:	00682e73 	rsbeq	r2, r8, r3, ror lr
     720:	2e000000 	cdpcs	0, 0, cr0, cr0, cr0, {0}
     724:	4453532f 	ldrbmi	r5, [r3], #-815	; 0xfffffcd1
     728:	4654465f 			; <UNDEFINED> instruction: 0x4654465f
     72c:	00682e78 	rsbeq	r2, r8, r8, ror lr
     730:	00000000 	andeq	r0, r0, r0
     734:	10020500 	andne	r0, r2, r0, lsl #10
     738:	0300000a 	movweq	r0, #10
     73c:	3e4f0128 	dvfccep	f0, f7, #0.0
     740:	21581603 	cmpcs	r8, r3, lsl #12
     744:	01000602 	tsteq	r0, r2, lsl #12
     748:	00008101 	andeq	r8, r0, r1, lsl #2
     74c:	52000200 	andpl	r0, r0, #0, 4
     750:	02000000 	andeq	r0, r0, #0
     754:	0d0efb01 	vstreq	d15, [lr, #-4]
     758:	01010100 	mrseq	r0, (UNDEF: 17)
     75c:	00000001 	andeq	r0, r0, r1
     760:	01000001 	tsteq	r0, r1
     764:	2f2e2e00 	svccs	0x002e2e00
     768:	73616c46 	cmnvc	r1, #17920	; 0x4600
     76c:	61724568 	cmnvs	r2, r8, ror #10
     770:	65536573 	ldrbvs	r6, [r3, #-1395]	; 0xfffffa8d
     774:	726f7463 	rsbvc	r7, pc, #1660944384	; 0x63000000
     778:	69654b5f 	stmdbvs	r5!, {r0, r1, r2, r3, r4, r6, r8, r9, fp, lr}^
     77c:	00632e6c 	rsbeq	r2, r3, ip, ror #28
     780:	2e000000 	cdpcs	0, 0, cr0, cr0, cr0, {0}
     784:	4453532f 	ldrbmi	r5, [r3], #-815	; 0xfffffcd1
     788:	7079545f 	rsbsvc	r5, r9, pc, asr r4
     78c:	682e7365 	stmdavs	lr!, {r0, r2, r5, r6, r8, r9, ip, sp, lr}
     790:	00000000 	andeq	r0, r0, r0
     794:	53532f2e 	cmppl	r3, #46, 30	; 0xb8
     798:	54465f44 	strbpl	r5, [r6], #-3908	; 0xfffff0bc
     79c:	682e7846 	stmdavs	lr!, {r1, r2, r6, fp, ip, sp, lr}
     7a0:	00000000 	andeq	r0, r0, r0
     7a4:	02050000 	andeq	r0, r5, #0
     7a8:	00000a38 	andeq	r0, r0, r8, lsr sl
     7ac:	78011c03 	stmdavc	r1, {r0, r1, sl, fp, ip}
     7b0:	233f3f31 	teqcs	pc, #49, 30	; 0xc4
     7b4:	3f59593d 	svccc	0x0059593d
     7b8:	004b4385 	subeq	r4, fp, r5, lsl #7
     7bc:	03010402 	movweq	r0, #5122	; 0x1402
     7c0:	0e034a6c 	vmlseq.f32	s8, s6, s25
     7c4:	200a034a 	andcs	r0, sl, sl, asr #6
     7c8:	00050221 	andeq	r0, r5, r1, lsr #4
     7cc:	006a0101 	rsbeq	r0, sl, r1, lsl #2
     7d0:	00020000 	andeq	r0, r2, r0
     7d4:	0000004e 	andeq	r0, r0, lr, asr #32
     7d8:	0efb0102 	cdpeq	1, 15, cr0, cr11, cr2, {0}
     7dc:	0101000d 	tsteq	r1, sp
     7e0:	00000101 	andeq	r0, r0, r1, lsl #2
     7e4:	00000100 	andeq	r0, r0, r0, lsl #2
     7e8:	2e2e0001 	cdpcs	0, 2, cr0, cr14, cr1, {0}
     7ec:	616c462f 	cmnvs	ip, pc, lsr #12
     7f0:	72456873 	subvc	r6, r5, #7536640	; 0x730000
     7f4:	53657361 	cmnpl	r5, #-2080374783	; 0x84000001
     7f8:	65707375 	ldrbvs	r7, [r0, #-885]!	; 0xfffffc8b
     7fc:	632e646e 	teqvs	lr, #1845493760	; 0x6e000000
     800:	00000000 	andeq	r0, r0, r0
     804:	53532f2e 	cmppl	r3, #46, 30	; 0xb8
     808:	79545f44 	ldmdbvc	r4, {r2, r6, r8, r9, sl, fp, ip, lr}^
     80c:	2e736570 	mrccs	5, 3, r6, cr3, cr0, {3}
     810:	00000068 	andeq	r0, r0, r8, rrx
     814:	532f2e00 	teqpl	pc, #0, 28
     818:	465f4453 			; <UNDEFINED> instruction: 0x465f4453
     81c:	2e784654 	mrccs	6, 3, r4, cr8, cr4, {2}
     820:	00000068 	andeq	r0, r0, r8, rrx
     824:	05000000 	streq	r0, [r0, #-0]
     828:	000ab402 	andeq	fp, sl, r2, lsl #8
     82c:	01280300 	teqeq	r8, r0, lsl #6
     830:	03863f4e 	orreq	r3, r6, #312	; 0x138
     834:	0221d612 	eoreq	sp, r1, #18874368	; 0x1200000
     838:	01010006 	tsteq	r1, r6
     83c:	00000070 	andeq	r0, r0, r0, ror r0
     840:	00540002 	subseq	r0, r4, r2
     844:	01020000 	mrseq	r0, (UNDEF: 2)
     848:	000d0efb 	strdeq	r0, [sp], -fp
     84c:	01010101 	tsteq	r1, r1, lsl #2
     850:	01000000 	mrseq	r0, (UNDEF: 0)
     854:	00010000 	andeq	r0, r1, r0
     858:	462f2e2e 	strtmi	r2, [pc], -lr, lsr #28
     85c:	6873616c 	ldmdavs	r3!, {r2, r3, r5, r6, r8, sp, lr}^
     860:	49746547 	ldmdbmi	r4!, {r0, r1, r2, r6, r8, sl, sp, lr}^
     864:	7265746e 	rsbvc	r7, r5, #1845493760	; 0x6e000000
     868:	74707572 	ldrbtvc	r7, [r0], #-1394	; 0xfffffa8e
     86c:	62616e45 	rsbvs	r6, r1, #1104	; 0x450
     870:	632e656c 	teqvs	lr, #108, 10	; 0x1b000000
     874:	00000000 	andeq	r0, r0, r0
     878:	53532f2e 	cmppl	r3, #46, 30	; 0xb8
     87c:	79545f44 	ldmdbvc	r4, {r2, r6, r8, r9, sl, fp, ip, lr}^
     880:	2e736570 	mrccs	5, 3, r6, cr3, cr0, {3}
     884:	00000068 	andeq	r0, r0, r8, rrx
     888:	532f2e00 	teqpl	pc, #0, 28
     88c:	465f4453 			; <UNDEFINED> instruction: 0x465f4453
     890:	2e784654 	mrccs	6, 3, r4, cr8, cr4, {2}
     894:	00000068 	andeq	r0, r0, r8, rrx
     898:	05000000 	streq	r0, [r0, #-0]
     89c:	000afc02 	andeq	pc, sl, r2, lsl #24
     8a0:	01290300 	teqeq	r9, r0, lsl #6
     8a4:	036a4d5d 	cmneq	sl, #5952	; 0x1740
     8a8:	022fba0d 	eoreq	fp, pc, #53248	; 0xd000
     8ac:	01010006 	tsteq	r1, r6
     8b0:	00000071 	andeq	r0, r0, r1, ror r0
     8b4:	00520002 	subseq	r0, r2, r2
     8b8:	01020000 	mrseq	r0, (UNDEF: 2)
     8bc:	000d0efb 	strdeq	r0, [sp], -fp
     8c0:	01010101 	tsteq	r1, r1, lsl #2
     8c4:	01000000 	mrseq	r0, (UNDEF: 0)
     8c8:	00010000 	andeq	r0, r1, r0
     8cc:	462f2e2e 	strtmi	r2, [pc], -lr, lsr #28
     8d0:	6873616c 	ldmdavs	r3!, {r2, r3, r5, r6, r8, sp, lr}^
     8d4:	53746547 	cmnpl	r4, #297795584	; 0x11c00000
     8d8:	72756365 	rsbsvc	r6, r5, #-1811939327	; 0x94000001
     8dc:	53797469 	cmnpl	r9, #1761607680	; 0x69000000
     8e0:	65746174 	ldrbvs	r6, [r4, #-372]!	; 0xfffffe8c
     8e4:	0000632e 	andeq	r6, r0, lr, lsr #6
     8e8:	2f2e0000 	svccs	0x002e0000
     8ec:	5f445353 	svcpl	0x00445353
     8f0:	65707954 	ldrbvs	r7, [r0, #-2388]!	; 0xfffff6ac
     8f4:	00682e73 	rsbeq	r2, r8, r3, ror lr
     8f8:	2e000000 	cdpcs	0, 0, cr0, cr0, cr0, {0}
     8fc:	4453532f 	ldrbmi	r5, [r3], #-815	; 0xfffffcd1
     900:	4654465f 			; <UNDEFINED> instruction: 0x4654465f
     904:	00682e78 	rsbeq	r2, r8, r8, ror lr
     908:	00000000 	andeq	r0, r0, r0
     90c:	44020500 	strmi	r0, [r2], #-1280	; 0xfffffb00
     910:	0300000b 	movweq	r0, #11
     914:	695d0129 	ldmdbvs	sp, {r0, r3, r5, r8}^
     918:	5d5b5e5b 	ldclpl	14, cr5, [fp, #-364]	; 0xfffffe94
     91c:	2f4a0f03 	svccs	0x004a0f03
     920:	01000602 	tsteq	r0, r2, lsl #12
     924:	0000a301 	andeq	sl, r0, r1, lsl #6
     928:	46000200 	strmi	r0, [r0], -r0, lsl #4
     92c:	02000000 	andeq	r0, r0, #0
     930:	0d0efb01 	vstreq	d15, [lr, #-4]
     934:	01010100 	mrseq	r0, (UNDEF: 17)
     938:	00000001 	andeq	r0, r0, r1
     93c:	01000001 	tsteq	r0, r1
     940:	2f2e2e00 	svccs	0x002e2e00
     944:	73616c46 	cmnvc	r1, #17920	; 0x4600
     948:	696e4968 	stmdbvs	lr!, {r3, r5, r6, r8, fp, lr}^
     94c:	00632e74 	rsbeq	r2, r3, r4, ror lr
     950:	2e000000 	cdpcs	0, 0, cr0, cr0, cr0, {0}
     954:	4453532f 	ldrbmi	r5, [r3], #-815	; 0xfffffcd1
     958:	7079545f 	rsbsvc	r5, r9, pc, asr r4
     95c:	682e7365 	stmdavs	lr!, {r0, r2, r5, r6, r8, r9, ip, sp, lr}
     960:	00000000 	andeq	r0, r0, r0
     964:	53532f2e 	cmppl	r3, #46, 30	; 0xb8
     968:	54465f44 	strbpl	r5, [r6], #-3908	; 0xfffff0bc
     96c:	682e7846 	stmdavs	lr!, {r1, r2, r6, fp, ip, sp, lr}
     970:	00000000 	andeq	r0, r0, r0
     974:	02050000 	andeq	r0, r5, #0
     978:	00000b9c 	muleq	r0, ip, fp
     97c:	52012c03 	andpl	r2, r1, #768	; 0x300
     980:	04020040 	streq	r0, [r2], #-64	; 0xffffffc0
     984:	06200601 	strteq	r0, [r0], -r1, lsl #12
     988:	75765c88 	ldrbvc	r5, [r6, #-3208]!	; 0xfffff378
     98c:	5b777b75 	blpl	1ddf768 <FlashDriver+0x1ddd9a4>
     990:	01040200 	mrseq	r0, R12_usr
     994:	03062006 	movweq	r2, #24582	; 0x6006
     998:	6967820a 	stmdbvs	r7!, {r1, r3, r9, pc}^
     99c:	59142a02 	ldmdbpl	r4, {r1, r9, fp, sp}
     9a0:	59595959 	ldmdbpl	r9, {r0, r3, r4, r6, r8, fp, ip, lr}^
     9a4:	59595959 	ldmdbpl	r9, {r0, r3, r4, r6, r8, fp, ip, lr}^
     9a8:	59595959 	ldmdbpl	r9, {r0, r3, r4, r6, r8, fp, ip, lr}^
     9ac:	23595959 	cmpcs	r9, #1458176	; 0x164000
     9b0:	59142b02 	ldmdbpl	r4, {r1, r8, r9, fp, sp}
     9b4:	59595959 	ldmdbpl	r9, {r0, r3, r4, r6, r8, fp, ip, lr}^
     9b8:	59595959 	ldmdbpl	r9, {r0, r3, r4, r6, r8, fp, ip, lr}^
     9bc:	59595959 	ldmdbpl	r9, {r0, r3, r4, r6, r8, fp, ip, lr}^
     9c0:	03595959 	cmpeq	r9, #1458176	; 0x164000
     9c4:	02212013 	eoreq	r2, r1, #19
     9c8:	01010006 	tsteq	r1, r6
     9cc:	000000ba 	strheq	r0, [r0], -sl
     9d0:	004e0002 	subeq	r0, lr, r2
     9d4:	01020000 	mrseq	r0, (UNDEF: 2)
     9d8:	000d0efb 	strdeq	r0, [sp], -fp
     9dc:	01010101 	tsteq	r1, r1, lsl #2
     9e0:	01000000 	mrseq	r0, (UNDEF: 0)
     9e4:	00010000 	andeq	r0, r1, r0
     9e8:	462f2e2e 	strtmi	r2, [pc], -lr, lsr #28
     9ec:	6873616c 	ldmdavs	r3!, {r2, r3, r5, r6, r8, sp, lr}^
     9f0:	676f7250 			; <UNDEFINED> instruction: 0x676f7250
     9f4:	436d6172 	cmnmi	sp, #-2147483620	; 0x8000001c
     9f8:	6b636568 	blvs	18d9fa0 <FlashDriver+0x18d81dc>
     9fc:	0000632e 	andeq	r6, r0, lr, lsr #6
     a00:	2f2e0000 	svccs	0x002e0000
     a04:	5f445353 	svcpl	0x00445353
     a08:	65707954 	ldrbvs	r7, [r0, #-2388]!	; 0xfffff6ac
     a0c:	00682e73 	rsbeq	r2, r8, r3, ror lr
     a10:	2e000000 	cdpcs	0, 0, cr0, cr0, cr0, {0}
     a14:	4453532f 	ldrbmi	r5, [r3], #-815	; 0xfffffcd1
     a18:	4654465f 			; <UNDEFINED> instruction: 0x4654465f
     a1c:	00682e78 	rsbeq	r2, r8, r8, ror lr
     a20:	00000000 	andeq	r0, r0, r0
     a24:	3c020500 	cfstr32cc	mvfx0, [r2], {-0}
     a28:	0300000e 	movweq	r0, #14
     a2c:	3f790139 	svccc	0x00790139
     a30:	5b243d5b 	blpl	90ffa4 <FlashDriver+0x90e1e0>
     a34:	0200243d 	andeq	r2, r0, #1023410176	; 0x3d000000
     a38:	00590104 	subseq	r0, r9, r4, lsl #2
     a3c:	81010402 	tsthi	r1, r2, lsl #8
     a40:	04020031 	streq	r0, [r2], #-49	; 0xffffffcf
     a44:	02005901 	andeq	r5, r0, #16384	; 0x4000
     a48:	32810104 	addcc	r0, r1, #4, 2
     a4c:	0402003d 	streq	r0, [r2], #-61	; 0xffffffc3
     a50:	02002501 	andeq	r2, r0, #4194304	; 0x400000
     a54:	76030104 	strvc	r0, [r3], -r4, lsl #2
     a58:	04020074 	streq	r0, [r2], #-116	; 0xffffff8c
     a5c:	20120301 	andscs	r0, r2, r1, lsl #6
     a60:	3f235a1e 	svccc	0x00235a1e
     a64:	3d59593d 	ldclcc	9, cr5, [r9, #-244]	; 0xffffff0c
     a68:	3d3d3d43 	ldccc	13, cr3, [sp, #-268]!	; 0xfffffef4
     a6c:	033e853f 	teqeq	lr, #264241152	; 0xfc00000
     a70:	9f9f3c0e 	svcls	0x009f3c0e
     a74:	4b23859f 	blmi	8e20f8 <FlashDriver+0x8e0334>
     a78:	0402004b 	streq	r0, [r2], #-75	; 0xffffffb5
     a7c:	4a4b0301 	bmi	12c1688 <FlashDriver+0x12bf8c4>
     a80:	3c00c403 	cfstrscc	mvf12, [r0], {3}
     a84:	00050221 	andeq	r0, r5, r1, lsr #4
     a88:	008b0101 	addeq	r0, fp, r1, lsl #2
     a8c:	00020000 	andeq	r0, r2, r0
     a90:	00000056 	andeq	r0, r0, r6, asr r0
     a94:	0efb0102 	cdpeq	1, 15, cr0, cr11, cr2, {0}
     a98:	0101000d 	tsteq	r1, sp
     a9c:	00000101 	andeq	r0, r0, r1, lsl #2
     aa0:	00000100 	andeq	r0, r0, r0, lsl #2
     aa4:	2e2e0001 	cdpcs	0, 2, cr0, cr14, cr1, {0}
     aa8:	616c462f 	cmnvs	ip, pc, lsr #12
     aac:	72506873 	subsvc	r6, r0, #7536640	; 0x730000
     ab0:	6172676f 	cmnvs	r2, pc, ror #14
     ab4:	6e6f4c6d 	cdpvs	12, 6, cr4, cr15, cr13, {3}
     ab8:	726f7767 	rsbvc	r7, pc, #27000832	; 0x19c0000
     abc:	654b5f64 	strbvs	r5, [fp, #-3940]	; 0xfffff09c
     ac0:	632e6c69 	teqvs	lr, #26880	; 0x6900
     ac4:	00000000 	andeq	r0, r0, r0
     ac8:	53532f2e 	cmppl	r3, #46, 30	; 0xb8
     acc:	79545f44 	ldmdbvc	r4, {r2, r6, r8, r9, sl, fp, ip, lr}^
     ad0:	2e736570 	mrccs	5, 3, r6, cr3, cr0, {3}
     ad4:	00000068 	andeq	r0, r0, r8, rrx
     ad8:	532f2e00 	teqpl	pc, #0, 28
     adc:	465f4453 			; <UNDEFINED> instruction: 0x465f4453
     ae0:	2e784654 	mrccs	6, 3, r4, cr8, cr4, {2}
     ae4:	00000068 	andeq	r0, r0, r8, rrx
     ae8:	05000000 	streq	r0, [r0, #-0]
     aec:	000fb002 	andeq	fp, pc, r2
     af0:	011d0300 	tsteq	sp, r0, lsl #6
     af4:	5a673d7a 	bpl	19d00e4 <FlashDriver+0x19ce320>
     af8:	593d233e 	ldmdbpl	sp!, {r1, r2, r3, r4, r5, r8, r9, sp}
     afc:	67674459 			; <UNDEFINED> instruction: 0x67674459
     b00:	43854e67 	orrmi	r4, r5, #1648	; 0x670
     b04:	02004c4c 	andeq	r4, r0, #76, 24	; 0x4c00
     b08:	5d030104 	stfpls	f0, [r3, #-16]
     b0c:	4a1a034a 	bmi	68183c <FlashDriver+0x67fa78>
     b10:	21200d03 	teqcs	r0, r3, lsl #26
     b14:	01000502 	tsteq	r0, r2, lsl #10
     b18:	00008501 	andeq	r8, r0, r1, lsl #10
     b1c:	4d000200 	sfmmi	f0, 4, [r0, #-0]
     b20:	02000000 	andeq	r0, r0, #0
     b24:	0d0efb01 	vstreq	d15, [lr, #-4]
     b28:	01010100 	mrseq	r0, (UNDEF: 17)
     b2c:	00000001 	andeq	r0, r0, r1
     b30:	01000001 	tsteq	r0, r1
     b34:	2f2e2e00 	svccs	0x002e2e00
     b38:	73616c46 	cmnvc	r1, #17920	; 0x4600
     b3c:	6f725068 	svcvs	0x00725068
     b40:	6d617267 	sfmvs	f7, 2, [r1, #-412]!	; 0xfffffe64
     b44:	65636e4f 	strbvs	r6, [r3, #-3663]!	; 0xfffff1b1
     b48:	0000632e 	andeq	r6, r0, lr, lsr #6
     b4c:	2f2e0000 	svccs	0x002e0000
     b50:	5f445353 	svcpl	0x00445353
     b54:	65707954 	ldrbvs	r7, [r0, #-2388]!	; 0xfffff6ac
     b58:	00682e73 	rsbeq	r2, r8, r3, ror lr
     b5c:	2e000000 	cdpcs	0, 0, cr0, cr0, cr0, {0}
     b60:	4453532f 	ldrbmi	r5, [r3], #-815	; 0xfffffcd1
     b64:	4654465f 			; <UNDEFINED> instruction: 0x4654465f
     b68:	00682e78 	rsbeq	r2, r8, r8, ror lr
     b6c:	00000000 	andeq	r0, r0, r0
     b70:	74020500 	strvc	r0, [r2], #-1280	; 0xfffffb00
     b74:	03000010 	movweq	r0, #16
     b78:	0b030131 	bleq	c1044 <FlashDriver+0xbf280>
     b7c:	404c3e66 	submi	r3, ip, r6, ror #28
     b80:	3d3d233e 	ldccc	3, cr2, [sp, #-248]!	; 0xffffff08
     b84:	adad913d 	stfged	f1, [sp, #244]!	; 0xf4
     b88:	a1ac0903 			; <UNDEFINED> instruction: 0xa1ac0903
     b8c:	003c0903 	eorseq	r0, ip, r3, lsl #18
     b90:	03010402 	movweq	r0, #5122	; 0x1402
     b94:	17036662 	strne	r6, [r3, -r2, ror #12]
     b98:	20150358 	andscs	r0, r5, r8, asr r3
     b9c:	00050221 	andeq	r0, r5, r1, lsr #4
     ba0:	00af0101 	adceq	r0, pc, r1, lsl #2
     ba4:	00020000 	andeq	r0, r2, r0
     ba8:	00000050 	andeq	r0, r0, r0, asr r0
     bac:	0efb0102 	cdpeq	1, 15, cr0, cr11, cr2, {0}
     bb0:	0101000d 	tsteq	r1, sp
     bb4:	00000101 	andeq	r0, r0, r1, lsl #2
     bb8:	00000100 	andeq	r0, r0, r0, lsl #2
     bbc:	2e2e0001 	cdpcs	0, 2, cr0, cr14, cr1, {0}
     bc0:	616c462f 	cmnvs	ip, pc, lsr #12
     bc4:	72506873 	subsvc	r6, r0, #7536640	; 0x730000
     bc8:	6172676f 	cmnvs	r2, pc, ror #14
     bcc:	6365536d 	cmnvs	r5, #-1275068415	; 0xb4000001
     bd0:	6e6f6974 	mcrvs	9, 3, r6, cr15, cr4, {3}
     bd4:	0000632e 	andeq	r6, r0, lr, lsr #6
     bd8:	2f2e0000 	svccs	0x002e0000
     bdc:	5f445353 	svcpl	0x00445353
     be0:	65707954 	ldrbvs	r7, [r0, #-2388]!	; 0xfffff6ac
     be4:	00682e73 	rsbeq	r2, r8, r3, ror lr
     be8:	2e000000 	cdpcs	0, 0, cr0, cr0, cr0, {0}
     bec:	4453532f 	ldrbmi	r5, [r3], #-815	; 0xfffffcd1
     bf0:	4654465f 			; <UNDEFINED> instruction: 0x4654465f
     bf4:	00682e78 	rsbeq	r2, r8, r8, ror lr
     bf8:	00000000 	andeq	r0, r0, r0
     bfc:	40020500 	andmi	r0, r2, r0, lsl #10
     c00:	03000011 	movweq	r0, #17
     c04:	3f89012e 	svccc	0x0089012e
     c08:	00243daf 	eoreq	r3, r4, pc, lsr #27
     c0c:	59010402 	stmdbpl	r1, {r1, sl}
     c10:	01040200 	mrseq	r0, R12_usr
     c14:	00844057 	addeq	r4, r4, r7, asr r0
     c18:	59010402 	stmdbpl	r1, {r1, sl}
     c1c:	01040200 	mrseq	r0, R12_usr
     c20:	3d874057 	stccc	0, cr4, [r7, #348]	; 0x15c
     c24:	04020024 	streq	r0, [r2], #-36	; 0xffffffdc
     c28:	02005901 	andeq	r5, r0, #16384	; 0x4000
     c2c:	40570104 	subsmi	r0, r7, r4, lsl #2
     c30:	02004c59 	andeq	r4, r0, #22784	; 0x5900
     c34:	00590104 	subseq	r0, r9, r4, lsl #2
     c38:	57010402 	strpl	r0, [r1, -r2, lsl #8]
     c3c:	3d4f7540 	cfstr64cc	mvdx7, [pc, #-256]	; b44 <FlashGetSecurityState>
     c40:	243da124 	ldrtcs	sl, [sp], #-292	; 0xfffffedc
     c44:	59593d3f 	ldmdbpl	r9, {r0, r1, r2, r3, r4, r5, r8, sl, fp, ip, sp}^
     c48:	853f673d 	ldrhi	r6, [pc, #-1853]!	; 513 <FlashInit+0x97>
     c4c:	212e1603 	teqcs	lr, r3, lsl #12
     c50:	01000502 	tsteq	r0, r2, lsl #10
     c54:	00007c01 	andeq	r7, r0, r1, lsl #24
     c58:	4a000200 	bmi	1460 <FlashReadResource+0xe4>
     c5c:	02000000 	andeq	r0, r0, #0
     c60:	0d0efb01 	vstreq	d15, [lr, #-4]
     c64:	01010100 	mrseq	r0, (UNDEF: 17)
     c68:	00000001 	andeq	r0, r0, r1
     c6c:	01000001 	tsteq	r0, r1
     c70:	2f2e2e00 	svccs	0x002e2e00
     c74:	73616c46 	cmnvc	r1, #17920	; 0x4600
     c78:	61655268 	cmnvs	r5, r8, ror #4
     c7c:	636e4f64 	cmnvs	lr, #100, 30	; 0x190
     c80:	00632e65 	rsbeq	r2, r3, r5, ror #28
     c84:	2e000000 	cdpcs	0, 0, cr0, cr0, cr0, {0}
     c88:	4453532f 	ldrbmi	r5, [r3], #-815	; 0xfffffcd1
     c8c:	7079545f 	rsbsvc	r5, r9, pc, asr r4
     c90:	682e7365 	stmdavs	lr!, {r0, r2, r5, r6, r8, r9, ip, sp, lr}
     c94:	00000000 	andeq	r0, r0, r0
     c98:	53532f2e 	cmppl	r3, #46, 30	; 0xb8
     c9c:	54465f44 	strbpl	r5, [r6], #-3908	; 0xfffff0bc
     ca0:	682e7846 	stmdavs	lr!, {r1, r2, r6, fp, ip, sp, lr}
     ca4:	00000000 	andeq	r0, r0, r0
     ca8:	02050000 	andeq	r0, r5, #0
     cac:	000012a8 	andeq	r1, r0, r8, lsr #5
     cb0:	6d013003 	stcvs	0, cr3, [r1, #-12]
     cb4:	3e3f3e3f 	mrccc	14, 1, r3, cr15, cr15, {1}
     cb8:	03853123 	orreq	r3, r5, #-1073741816	; 0xc0000008
     cbc:	e5c93c09 	strb	r3, [r9, #3081]	; 0xc09
     cc0:	0200ebe5 	andeq	lr, r0, #234496	; 0x39400
     cc4:	64030104 	strvs	r0, [r3], #-260	; 0xfffffefc
     cc8:	4a0b034a 	bmi	2c19f8 <FlashDriver+0x2bfc34>
     ccc:	21201f03 	teqcs	r0, r3, lsl #30
     cd0:	01000502 	tsteq	r0, r2, lsl #10
     cd4:	0000a201 	andeq	sl, r0, r1, lsl #4
     cd8:	4e000200 	cdpmi	2, 0, cr0, cr0, cr0, {0}
     cdc:	02000000 	andeq	r0, r0, #0
     ce0:	0d0efb01 	vstreq	d15, [lr, #-4]
     ce4:	01010100 	mrseq	r0, (UNDEF: 17)
     ce8:	00000001 	andeq	r0, r0, r1
     cec:	01000001 	tsteq	r0, r1
     cf0:	2f2e2e00 	svccs	0x002e2e00
     cf4:	73616c46 	cmnvc	r1, #17920	; 0x4600
     cf8:	61655268 	cmnvs	r5, r8, ror #4
     cfc:	73655264 	cmnvc	r5, #100, 4	; 0x40000006
     d00:	6372756f 	cmnvs	r2, #465567744	; 0x1bc00000
     d04:	00632e65 	rsbeq	r2, r3, r5, ror #28
     d08:	2e000000 	cdpcs	0, 0, cr0, cr0, cr0, {0}
     d0c:	4453532f 	ldrbmi	r5, [r3], #-815	; 0xfffffcd1
     d10:	7079545f 	rsbsvc	r5, r9, pc, asr r4
     d14:	682e7365 	stmdavs	lr!, {r0, r2, r5, r6, r8, r9, ip, sp, lr}
     d18:	00000000 	andeq	r0, r0, r0
     d1c:	53532f2e 	cmppl	r3, #46, 30	; 0xb8
     d20:	54465f44 	strbpl	r5, [r6], #-3908	; 0xfffff0bc
     d24:	682e7846 	stmdavs	lr!, {r1, r2, r6, fp, ip, sp, lr}
     d28:	00000000 	andeq	r0, r0, r0
     d2c:	02050000 	andeq	r0, r5, #0
     d30:	0000137c 	andeq	r1, r0, ip, ror r3
     d34:	79013203 	stmdbvc	r1, {r0, r1, r9, ip, sp}
     d38:	243d5b3f 	ldrtcs	r5, [sp], #-2879	; 0xfffff4c1
     d3c:	01040200 	mrseq	r0, R12_usr
     d40:	04020059 	streq	r0, [r2], #-89	; 0xffffffa7
     d44:	003f4901 	eorseq	r4, pc, r1, lsl #18
     d48:	59010402 	stmdbpl	r1, {r1, sl}
     d4c:	01040200 	mrseq	r0, R12_usr
     d50:	003d4049 	eorseq	r4, sp, r9, asr #32
     d54:	25010402 	strcs	r0, [r1, #-1026]	; 0xfffffbfe
     d58:	01040200 	mrseq	r0, R12_usr
     d5c:	03747603 	cmneq	r4, #3145728	; 0x300000
     d60:	3d5d2010 	ldclcc	0, cr2, [sp, #-64]	; 0xffffffc0
     d64:	3e425959 	mcrcc	9, 2, r5, cr2, cr9, {2}
     d68:	3c0a0386 	stccc	3, cr0, [sl], {134}	; 0x86
     d6c:	039f9f83 	orrseq	r9, pc, #524	; 0x20c
     d70:	1f03ac75 	svcne	0x0003ac75
     d74:	05022120 	streq	r2, [r2, #-288]	; 0xfffffee0
     d78:	76010100 	strvc	r0, [r1], -r0, lsl #2
     d7c:	02000000 	andeq	r0, r0, #0
     d80:	00005000 	andeq	r5, r0, r0
     d84:	fb010200 	blx	4158e <FlashDriver+0x3f7ca>
     d88:	01000d0e 	tsteq	r0, lr, lsl #26
     d8c:	00010101 	andeq	r0, r1, r1, lsl #2
     d90:	00010000 	andeq	r0, r1, r0
     d94:	2e000100 	adfcss	f0, f0, f0
     d98:	6c462f2e 	mcrrvs	15, 2, r2, r6, cr14
     d9c:	53687361 	cmnpl	r8, #-2080374783	; 0x84000001
     da0:	72756365 	rsbsvc	r6, r5, #-1811939327	; 0x94000001
     da4:	42797469 	rsbsmi	r7, r9, #1761607680	; 0x69000000
     da8:	73617079 	cmnvc	r1, #121	; 0x79
     dac:	00632e73 	rsbeq	r2, r3, r3, ror lr
     db0:	2e000000 	cdpcs	0, 0, cr0, cr0, cr0, {0}
     db4:	4453532f 	ldrbmi	r5, [r3], #-815	; 0xfffffcd1
     db8:	7079545f 	rsbsvc	r5, r9, pc, asr r4
     dbc:	682e7365 	stmdavs	lr!, {r0, r2, r5, r6, r8, r9, ip, sp, lr}
     dc0:	00000000 	andeq	r0, r0, r0
     dc4:	53532f2e 	cmppl	r3, #46, 30	; 0xb8
     dc8:	54465f44 	strbpl	r5, [r6], #-3908	; 0xfffff0bc
     dcc:	682e7846 	stmdavs	lr!, {r1, r2, r6, fp, ip, sp, lr}
     dd0:	00000000 	andeq	r0, r0, r0
     dd4:	02050000 	andeq	r0, r5, #0
     dd8:	0000148c 	andeq	r1, r0, ip, lsl #9
     ddc:	6c012b03 	stcvs	11, cr2, [r1], {3}
     de0:	3d69763f 	stclcc	6, cr7, [r9, #-252]!	; 0xffffff04
     de4:	3d3d3d3d 	ldccc	13, cr3, [sp, #-244]!	; 0xffffff0c
     de8:	3f3d3d3d 	svccc	0x003d3d3d
     dec:	21820f03 	orrcs	r0, r2, r3, lsl #30
     df0:	01000502 	tsteq	r0, r2, lsl #10
     df4:	00007201 	andeq	r7, r0, r1, lsl #4
     df8:	54000200 	strpl	r0, [r0], #-512	; 0xfffffe00
     dfc:	02000000 	andeq	r0, r0, #0
     e00:	0d0efb01 	vstreq	d15, [lr, #-4]
     e04:	01010100 	mrseq	r0, (UNDEF: 17)
     e08:	00000001 	andeq	r0, r0, r1
     e0c:	01000001 	tsteq	r0, r1
     e10:	2f2e2e00 	svccs	0x002e2e00
     e14:	73616c46 	cmnvc	r1, #17920	; 0x4600
     e18:	74655368 	strbtvc	r5, [r5], #-872	; 0xfffffc98
     e1c:	65746e49 	ldrbvs	r6, [r4, #-3657]!	; 0xfffff1b7
     e20:	70757272 	rsbsvc	r7, r5, r2, ror r2
     e24:	616e4574 	smcvs	58452	; 0xe454
     e28:	2e656c62 	cdpcs	12, 6, cr6, cr5, cr2, {3}
     e2c:	00000063 	andeq	r0, r0, r3, rrx
     e30:	532f2e00 	teqpl	pc, #0, 28
     e34:	545f4453 	ldrbpl	r4, [pc], #-1107	; e3c <FlashProgramCheck>
     e38:	73657079 	cmnvc	r5, #121	; 0x79
     e3c:	0000682e 	andeq	r6, r0, lr, lsr #16
     e40:	2f2e0000 	svccs	0x002e0000
     e44:	5f445353 	svcpl	0x00445353
     e48:	78465446 	stmdavc	r6, {r1, r2, r6, sl, ip, lr}^
     e4c:	0000682e 	andeq	r6, r0, lr, lsr #16
     e50:	00000000 	andeq	r0, r0, r0
     e54:	150c0205 	strne	r0, [ip, #-517]	; 0xfffffdfb
     e58:	29030000 	stmdbcs	r3, {}	; <UNPREDICTABLE>
     e5c:	694d6b01 	stmdbvs	sp, {r0, r8, r9, fp, sp, lr}^
     e60:	0d034b4b 	vstreq	d4, [r3, #-300]	; 0xfffffed4
     e64:	06022f66 	streq	r2, [r2], -r6, ror #30
     e68:	6d010100 	stfvss	f0, [r1, #-0]
     e6c:	02000000 	andeq	r0, r0, #0
     e70:	00005000 	andeq	r5, r0, r0
     e74:	fb010200 	blx	4167e <FlashDriver+0x3f8ba>
     e78:	01000d0e 	tsteq	r0, lr, lsl #26
     e7c:	00010101 	andeq	r0, r1, r1, lsl #2
     e80:	00010000 	andeq	r0, r1, r0
     e84:	2e000100 	adfcss	f0, f0, f0
     e88:	6c462f2e 	mcrrvs	15, 2, r2, r6, cr14
     e8c:	56687361 	strbtpl	r7, [r8], -r1, ror #6
     e90:	66697265 	strbtvs	r7, [r9], -r5, ror #4
     e94:	6c6c4179 	stfvse	f4, [ip], #-484	; 0xfffffe1c
     e98:	636f6c42 	cmnvs	pc, #16896	; 0x4200
     e9c:	00632e6b 	rsbeq	r2, r3, fp, ror #28
     ea0:	2e000000 	cdpcs	0, 0, cr0, cr0, cr0, {0}
     ea4:	4453532f 	ldrbmi	r5, [r3], #-815	; 0xfffffcd1
     ea8:	7079545f 	rsbsvc	r5, r9, pc, asr r4
     eac:	682e7365 	stmdavs	lr!, {r0, r2, r5, r6, r8, r9, ip, sp, lr}
     eb0:	00000000 	andeq	r0, r0, r0
     eb4:	53532f2e 	cmppl	r3, #46, 30	; 0xb8
     eb8:	54465f44 	strbpl	r5, [r6], #-3908	; 0xfffff0bc
     ebc:	682e7846 	stmdavs	lr!, {r1, r2, r6, fp, ip, sp, lr}
     ec0:	00000000 	andeq	r0, r0, r0
     ec4:	02050000 	andeq	r0, r5, #0
     ec8:	00001558 	andeq	r1, r0, r8, asr r5
     ecc:	79012d03 	stmdbvc	r1, {r0, r1, r8, sl, fp, sp}
     ed0:	03313d3f 	teqeq	r1, #4032	; 0xfc0
     ed4:	0221820e 	eoreq	r8, r1, #-536870912	; 0xe0000000
     ed8:	01010005 	tsteq	r1, r5
     edc:	00000097 	muleq	r0, r7, r0
     ee0:	004d0002 	subeq	r0, sp, r2
     ee4:	01020000 	mrseq	r0, (UNDEF: 2)
     ee8:	000d0efb 	strdeq	r0, [sp], -fp
     eec:	01010101 	tsteq	r1, r1, lsl #2
     ef0:	01000000 	mrseq	r0, (UNDEF: 0)
     ef4:	00010000 	andeq	r0, r1, r0
     ef8:	462f2e2e 	strtmi	r2, [pc], -lr, lsr #28
     efc:	6873616c 	ldmdavs	r3!, {r2, r3, r5, r6, r8, sp, lr}^
     f00:	69726556 	ldmdbvs	r2!, {r1, r2, r4, r6, r8, sl, sp, lr}^
     f04:	6c427966 	mcrrvs	9, 6, r7, r2, cr6
     f08:	2e6b636f 	cdpcs	3, 6, cr6, cr11, cr15, {3}
     f0c:	00000063 	andeq	r0, r0, r3, rrx
     f10:	532f2e00 	teqpl	pc, #0, 28
     f14:	545f4453 	ldrbpl	r4, [pc], #-1107	; f1c <FlashProgramCheck+0xe0>
     f18:	73657079 	cmnvc	r5, #121	; 0x79
     f1c:	0000682e 	andeq	r6, r0, lr, lsr #16
     f20:	2f2e0000 	svccs	0x002e0000
     f24:	5f445353 	svcpl	0x00445353
     f28:	78465446 	stmdavc	r6, {r1, r2, r6, sl, ip, lr}^
     f2c:	0000682e 	andeq	r6, r0, lr, lsr #16
     f30:	00000000 	andeq	r0, r0, r0
     f34:	15940205 	ldrne	r0, [r4, #517]	; 0x205
     f38:	2e030000 	cdpcs	0, 0, cr0, cr3, cr0, {0}
     f3c:	5b3f8701 	blpl	fe2b48 <FlashDriver+0xfe0d84>
     f40:	0200243d 	andeq	r2, r0, #1023410176	; 0x3d000000
     f44:	00590104 	subseq	r0, r9, r4, lsl #2
     f48:	57010402 	strpl	r0, [r1, -r2, lsl #8]
     f4c:	0402003f 	streq	r0, [r2], #-63	; 0xffffffc1
     f50:	02005901 	andeq	r5, r0, #16384	; 0x4000
     f54:	40570104 	subsmi	r0, r7, r4, lsl #2
     f58:	0402003d 	streq	r0, [r2], #-61	; 0xffffffc3
     f5c:	02002501 	andeq	r2, r0, #4194304	; 0x400000
     f60:	76030104 	strvc	r0, [r3], -r4, lsl #2
     f64:	20100374 	andscs	r0, r0, r4, ror r3
     f68:	59593d5c 	ldmdbpl	r9, {r2, r3, r4, r6, r8, sl, fp, ip, sp}^
     f6c:	0e03313d 	mcreq	1, 0, r3, cr3, cr13, {1}
     f70:	05022182 	streq	r2, [r2, #-386]	; 0xfffffe7e
     f74:	aa010100 	bge	4137c <FlashDriver+0x3f5b8>
     f78:	02000000 	andeq	r0, r0, #0
     f7c:	00004f00 	andeq	r4, r0, r0, lsl #30
     f80:	fb010200 	blx	4178a <FlashDriver+0x3f9c6>
     f84:	01000d0e 	tsteq	r0, lr, lsl #26
     f88:	00010101 	andeq	r0, r1, r1, lsl #2
     f8c:	00010000 	andeq	r0, r1, r0
     f90:	2e000100 	adfcss	f0, f0, f0
     f94:	6c462f2e 	mcrrvs	15, 2, r2, r6, cr14
     f98:	56687361 	strbtpl	r7, [r8], -r1, ror #6
     f9c:	66697265 	strbtvs	r7, [r9], -r5, ror #4
     fa0:	63655379 	cmnvs	r5, #-469762047	; 0xe4000001
     fa4:	6e6f6974 	mcrvs	9, 3, r6, cr15, cr4, {3}
     fa8:	0000632e 	andeq	r6, r0, lr, lsr #6
     fac:	2f2e0000 	svccs	0x002e0000
     fb0:	5f445353 	svcpl	0x00445353
     fb4:	65707954 	ldrbvs	r7, [r0, #-2388]!	; 0xfffff6ac
     fb8:	00682e73 	rsbeq	r2, r8, r3, ror lr
     fbc:	2e000000 	cdpcs	0, 0, cr0, cr0, cr0, {0}
     fc0:	4453532f 	ldrbmi	r5, [r3], #-815	; 0xfffffcd1
     fc4:	4654465f 			; <UNDEFINED> instruction: 0x4654465f
     fc8:	00682e78 	rsbeq	r2, r8, r8, ror lr
     fcc:	00000000 	andeq	r0, r0, r0
     fd0:	54020500 	strpl	r0, [r2], #-1280	; 0xfffffb00
     fd4:	03000016 	movweq	r0, #22
     fd8:	3f7b0130 	svccc	0x007b0130
     fdc:	01040200 	mrseq	r0, R12_usr
     fe0:	04020059 	streq	r0, [r2], #-89	; 0xffffffa7
     fe4:	84405701 	strbhi	r5, [r0], #-1793	; 0xfffff8ff
     fe8:	01040200 	mrseq	r0, R12_usr
     fec:	04020059 	streq	r0, [r2], #-89	; 0xffffffa7
     ff0:	87405701 	strbhi	r5, [r0, -r1, lsl #14]
     ff4:	0200243d 	andeq	r2, r0, #1023410176	; 0x3d000000
     ff8:	00590104 	subseq	r0, r9, r4, lsl #2
     ffc:	57010402 	strpl	r0, [r1, -r2, lsl #8]
    1000:	004c5940 	subeq	r5, ip, r0, asr #18
    1004:	59010402 	stmdbpl	r1, {r1, sl}
    1008:	01040200 	mrseq	r0, R12_usr
    100c:	4f754057 	svcmi	0x00754057
    1010:	3da1243d 	cfstrscc	mvf2, [r1, #244]!	; 0xf4
    1014:	59593d24 	ldmdbpl	r9, {r2, r5, r8, sl, fp, ip, sp}^
    1018:	313d673d 	teqcc	sp, sp, lsr r7
    101c:	21820e03 	orrcs	r0, r2, r3, lsl #28
    1020:	01000502 	tsteq	r0, r2, lsl #10
    1024:	00007401 	andeq	r7, r0, r1, lsl #8
    1028:	50000200 	andpl	r0, r0, r0, lsl #4
    102c:	02000000 	andeq	r0, r0, #0
    1030:	0d0efb01 	vstreq	d15, [lr, #-4]
    1034:	01010100 	mrseq	r0, (UNDEF: 17)
    1038:	00000001 	andeq	r0, r0, r1
    103c:	01000001 	tsteq	r0, r1
    1040:	2f2e2e00 	svccs	0x002e2e00
    1044:	616c4650 	cmnvs	ip, r0, asr r6
    1048:	65476873 	strbvs	r6, [r7, #-2163]	; 0xfffff78d
    104c:	6f725074 	svcvs	0x00725074
    1050:	74636574 	strbtvc	r6, [r3], #-1396	; 0xfffffa8c
    1054:	2e6e6f69 	cdpcs	15, 6, cr6, cr14, cr9, {3}
    1058:	00000063 	andeq	r0, r0, r3, rrx
    105c:	532f2e00 	teqpl	pc, #0, 28
    1060:	545f4453 	ldrbpl	r4, [pc], #-1107	; 1068 <FlashProgramLongword+0xb8>
    1064:	73657079 	cmnvc	r5, #121	; 0x79
    1068:	0000682e 	andeq	r6, r0, lr, lsr #16
    106c:	2f2e0000 	svccs	0x002e0000
    1070:	5f445353 	svcpl	0x00445353
    1074:	78465446 	stmdavc	r6, {r1, r2, r6, sl, ip, lr}^
    1078:	0000682e 	andeq	r6, r0, lr, lsr #16
    107c:	00000000 	andeq	r0, r0, r0
    1080:	17980205 	ldrne	r0, [r8, r5, lsl #4]
    1084:	27030000 	strcs	r0, [r3, -r0]
    1088:	75755e01 	ldrbvc	r5, [r5, #-3585]!	; 0xfffff1ff
    108c:	3b3d7675 	blcc	f5ea68 <FlashDriver+0xf5cca4>
    1090:	2c213b22 	stccs	11, cr3, [r1], #-136	; 0xffffff78
    1094:	2f2e1003 	svccs	0x002e1003
    1098:	01000602 	tsteq	r0, r2, lsl #12
    109c:	00009301 	andeq	r9, r0, r1, lsl #6
    10a0:	50000200 	andpl	r0, r0, r0, lsl #4
    10a4:	02000000 	andeq	r0, r0, #0
    10a8:	0d0efb01 	vstreq	d15, [lr, #-4]
    10ac:	01010100 	mrseq	r0, (UNDEF: 17)
    10b0:	00000001 	andeq	r0, r0, r1
    10b4:	01000001 	tsteq	r0, r1
    10b8:	2f2e2e00 	svccs	0x002e2e00
    10bc:	616c4650 	cmnvs	ip, r0, asr r6
    10c0:	65476873 	strbvs	r6, [r7, #-2163]	; 0xfffff78d
    10c4:	61775374 	cmnvs	r7, r4, ror r3
    10c8:	61745370 	cmnvs	r4, r0, ror r3
    10cc:	2e737574 	mrccs	5, 3, r7, cr3, cr4, {3}
    10d0:	00000063 	andeq	r0, r0, r3, rrx
    10d4:	532f2e00 	teqpl	pc, #0, 28
    10d8:	545f4453 	ldrbpl	r4, [pc], #-1107	; 10e0 <FlashProgramOnce+0x6c>
    10dc:	73657079 	cmnvc	r5, #121	; 0x79
    10e0:	0000682e 	andeq	r6, r0, lr, lsr #16
    10e4:	2f2e0000 	svccs	0x002e0000
    10e8:	5f445353 	svcpl	0x00445353
    10ec:	78465446 	stmdavc	r6, {r1, r2, r6, sl, ip, lr}^
    10f0:	0000682e 	andeq	r6, r0, lr, lsr #16
    10f4:	00000000 	andeq	r0, r0, r0
    10f8:	18080205 	stmdane	r8, {r0, r2, r9}
    10fc:	32030000 	andcc	r0, r3, #0
    1100:	af3f7901 	svcge	0x003f7901
    1104:	0200243d 	andeq	r2, r0, #1023410176	; 0x3d000000
    1108:	00590104 	subseq	r0, r9, r4, lsl #2
    110c:	73010402 	movwvc	r0, #5122	; 0x1402
    1110:	5a233d40 	bpl	8d0618 <FlashDriver+0x8ce854>
    1114:	01040200 	mrseq	r0, R12_usr
    1118:	5b065806 	blpl	197138 <FlashDriver+0x195374>
    111c:	593d243d 	ldmdbpl	sp!, {r0, r2, r3, r4, r5, sl, sp}
    1120:	3d3d3d59 	ldccc	13, cr3, [sp, #-356]!	; 0xfffffe9c
    1124:	3e853f3d 	mcrcc	15, 4, r3, cr5, cr13, {1}
    1128:	03848383 	orreq	r8, r4, #201326594	; 0xc000002
    112c:	0221200f 	eoreq	r2, r1, #15
    1130:	01010005 	tsteq	r1, r5
    1134:	00000093 	muleq	r0, r3, r0
    1138:	00500002 	subseq	r0, r0, r2
    113c:	01020000 	mrseq	r0, (UNDEF: 2)
    1140:	000d0efb 	strdeq	r0, [sp], -fp
    1144:	01010101 	tsteq	r1, r1, lsl #2
    1148:	01000000 	mrseq	r0, (UNDEF: 0)
    114c:	00010000 	andeq	r0, r1, r0
    1150:	502f2e2e 	eorpl	r2, pc, lr, lsr #28
    1154:	73616c46 	cmnvc	r1, #17920	; 0x4600
    1158:	74655368 	strbtvc	r5, [r5], #-872	; 0xfffffc98
    115c:	746f7250 	strbtvc	r7, [pc], #-592	; 1164 <FlashProgramSection+0x24>
    1160:	69746365 	ldmdbvs	r4!, {r0, r2, r5, r6, r8, r9, sp, lr}^
    1164:	632e6e6f 	teqvs	lr, #1776	; 0x6f0
    1168:	00000000 	andeq	r0, r0, r0
    116c:	53532f2e 	cmppl	r3, #46, 30	; 0xb8
    1170:	79545f44 	ldmdbvc	r4, {r2, r6, r8, r9, sl, fp, ip, lr}^
    1174:	2e736570 	mrccs	5, 3, r6, cr3, cr0, {3}
    1178:	00000068 	andeq	r0, r0, r8, rrx
    117c:	532f2e00 	teqpl	pc, #0, 28
    1180:	465f4453 			; <UNDEFINED> instruction: 0x465f4453
    1184:	2e784654 	mrccs	6, 3, r4, cr8, cr4, {2}
    1188:	00000068 	andeq	r0, r0, r8, rrx
    118c:	05000000 	streq	r0, [r0, #-0]
    1190:	00191402 	andseq	r1, r9, r2, lsl #8
    1194:	012a0300 	teqeq	sl, r0, lsl #6
    1198:	3e580a03 	vnmlscc.f32	s1, s16, s6
    119c:	75233d84 	strvc	r3, [r3, #-3460]!	; 0xfffff27c
    11a0:	3d767575 	cfldr64cc	mvdx7, [r6, #-468]!	; 0xfffffe2c
    11a4:	1f3b223b 	svcne	0x003b223b
    11a8:	75757542 	ldrbvc	r7, [r5, #-1346]!	; 0xfffffabe
    11ac:	75757577 	ldrbvc	r7, [r5, #-1399]!	; 0xfffffa89
    11b0:	2165e576 	smccs	24150	; 0x5e56
    11b4:	5a4b3273 	bpl	12cdb88 <FlashDriver+0x12cbdc4>
    11b8:	7a919191 	bvc	fe465804 <FlashDriver+0xfe463a40>
    11bc:	91233e1e 	teqls	r3, lr, lsl lr
    11c0:	0e039191 	mcreq	1, 0, r9, cr3, cr1, {4}
    11c4:	06022174 			; <UNDEFINED> instruction: 0x06022174
    11c8:	d2010100 	andle	r0, r1, #0, 2
    11cc:	02000000 	andeq	r0, r0, #0
    11d0:	00004700 	andeq	r4, r0, r0, lsl #14
    11d4:	fb010200 	blx	419de <FlashDriver+0x3fc1a>
    11d8:	01000d0e 	tsteq	r0, lr, lsl #26
    11dc:	00010101 	andeq	r0, r1, r1, lsl #2
    11e0:	00010000 	andeq	r0, r1, r0
    11e4:	2e000100 	adfcss	f0, f0, f0
    11e8:	46502f2e 	ldrbmi	r2, [r0], -lr, lsr #30
    11ec:	6873616c 	ldmdavs	r3!, {r2, r3, r5, r6, r8, sp, lr}^
    11f0:	70617753 	rsbvc	r7, r1, r3, asr r7
    11f4:	0000632e 	andeq	r6, r0, lr, lsr #6
    11f8:	2f2e0000 	svccs	0x002e0000
    11fc:	5f445353 	svcpl	0x00445353
    1200:	65707954 	ldrbvs	r7, [r0, #-2388]!	; 0xfffff6ac
    1204:	00682e73 	rsbeq	r2, r8, r3, ror lr
    1208:	2e000000 	cdpcs	0, 0, cr0, cr0, cr0, {0}
    120c:	4453532f 	ldrbmi	r5, [r3], #-815	; 0xfffffcd1
    1210:	4654465f 			; <UNDEFINED> instruction: 0x4654465f
    1214:	00682e78 	rsbeq	r2, r8, r8, ror lr
    1218:	00000000 	andeq	r0, r0, r0
    121c:	f0020500 			; <UNDEFINED> instruction: 0xf0020500
    1220:	0300001a 	movweq	r0, #26
    1224:	680100c6 	stmdavs	r1, {r1, r2, r6, r7}
    1228:	3daf3f3f 	stccc	15, cr3, [pc, #252]!	; 132c <FlashReadOnce+0x84>
    122c:	04020024 	streq	r0, [r2], #-36	; 0xffffffdc
    1230:	02005901 	andeq	r5, r0, #16384	; 0x4000
    1234:	40730104 	rsbsmi	r0, r3, r4, lsl #2
    1238:	005a233d 	subseq	r2, sl, sp, lsr r3
    123c:	06010402 	streq	r0, [r1], -r2, lsl #8
    1240:	3d5b0658 	ldclcc	6, cr0, [fp, #-352]	; 0xfffffea0
    1244:	69428524 	stmdbvs	r2, {r2, r5, r8, sl, pc}^
    1248:	0042853f 	subeq	r8, r2, pc, lsr r5
    124c:	06010402 	streq	r0, [r1], -r2, lsl #8
    1250:	3f940620 	svccc	0x00940620
    1254:	02004285 	andeq	r4, r0, #1342177288	; 0x50000008
    1258:	20060104 	andcs	r0, r6, r4, lsl #2
    125c:	02009406 	andeq	r9, r0, #100663296	; 0x6000000
    1260:	3c060104 	stfccs	f0, [r6], {4}
    1264:	49413e06 	stmdbmi	r1, {r1, r2, r9, sl, fp, ip, sp}^
    1268:	42854285 	addmi	r4, r5, #1342177288	; 0x50000008
    126c:	01040200 	mrseq	r0, R12_usr
    1270:	03062006 	movweq	r2, #24582	; 0x6006
    1274:	0f039e41 	svceq	0x00039e41
    1278:	2e10032e 	cdpcs	3, 1, cr0, cr0, cr14, {1}
    127c:	032e1303 	teqeq	lr, #201326592	; 0xc000000
    1280:	13032e09 	movwne	r2, #15881	; 0x3e09
    1284:	876d2120 	strbhi	r2, [sp, -r0, lsr #2]!
    1288:	75753d3f 	ldrbvc	r3, [r5, #-3391]!	; 0xfffff2c1
    128c:	3d3d2f3d 	ldccc	15, cr2, [sp, #-244]!	; 0xffffff0c
    1290:	5e21843f 	mcrpl	4, 1, r8, cr1, cr15, {1}
    1294:	593d3f6b 	ldmdbpl	sp!, {r0, r1, r3, r5, r6, r8, r9, sl, fp, ip, sp}
    1298:	21843f59 	orrcs	r3, r4, r9, asr pc
    129c:	01000502 	tsteq	r0, r2, lsl #10
    12a0:	00006601 	andeq	r6, r0, r1, lsl #12
    12a4:	49000200 	stmdbmi	r0, {r9}
    12a8:	02000000 	andeq	r0, r0, #0
    12ac:	0d0efb01 	vstreq	d15, [lr, #-4]
    12b0:	01010100 	mrseq	r0, (UNDEF: 17)
    12b4:	00000001 	andeq	r0, r0, r1
    12b8:	01000001 	tsteq	r0, r1
    12bc:	2f2e2e00 	svccs	0x002e2e00
    12c0:	45746553 	ldrbmi	r6, [r4, #-1363]!	; 0xfffffaad
    12c4:	6e454545 	cdpvs	5, 4, cr4, cr5, cr5, {2}
    12c8:	656c6261 	strbvs	r6, [ip, #-609]!	; 0xfffffd9f
    12cc:	0000632e 	andeq	r6, r0, lr, lsr #6
    12d0:	2f2e0000 	svccs	0x002e0000
    12d4:	5f445353 	svcpl	0x00445353
    12d8:	65707954 	ldrbvs	r7, [r0, #-2388]!	; 0xfffff6ac
    12dc:	00682e73 	rsbeq	r2, r8, r3, ror lr
    12e0:	2e000000 	cdpcs	0, 0, cr0, cr0, cr0, {0}
    12e4:	4453532f 	ldrbmi	r5, [r3], #-815	; 0xfffffcd1
    12e8:	4654465f 			; <UNDEFINED> instruction: 0x4654465f
    12ec:	00682e78 	rsbeq	r2, r8, r8, ror lr
    12f0:	00000000 	andeq	r0, r0, r0
    12f4:	30020500 	andcc	r0, r2, r0, lsl #10
    12f8:	0300001d 	movweq	r0, #29
    12fc:	3f6b012a 	svccc	0x006b012a
    1300:	0d03313d 	stfeqs	f3, [r3, #-244]	; 0xffffff0c
    1304:	05022190 	streq	r2, [r2, #-400]	; 0xfffffe70
    1308:	Address 0x00001308 is out of bounds.


Disassembly of section .debug_str:

00000000 <.debug_str>:
   0:	61657242 	cmnvs	r5, r2, asr #4
   4:	7265486b 	rsbvc	r4, r5, #7012352	; 0x6b0000
   8:	6c460065 	mcrrvs	0, 6, r0, r6, cr5
   c:	41687361 	cmnmi	r8, r1, ror #6
  10:	466f676c 	strbtmi	r6, [pc], -ip, ror #14
  14:	4700636e 	strmi	r6, [r0, -lr, ror #6]
  18:	4320554e 	teqmi	r0, #327155712	; 0x13800000
  1c:	372e3420 	strcc	r3, [lr, -r0, lsr #8]!
  20:	2e00332e 	cdpcs	3, 0, cr3, cr0, cr14, {1}
  24:	2e2e2f2e 	cdpcs	15, 2, cr2, cr14, cr14, {1}
  28:	6172662f 	cmnvs	r2, pc, lsr #12
  2c:	6f77656d 	svcvs	0x0077656d
  30:	462f6b72 			; <UNDEFINED> instruction: 0x462f6b72
  34:	6873616c 	ldmdavs	r3!, {r2, r3, r5, r6, r8, sp, lr}^
  38:	63657845 	cmnvs	r5, #4521984	; 0x450000
  3c:	2e636e46 	cdpcs	14, 6, cr6, cr3, cr6, {2}
  40:	74730063 	ldrbtvc	r0, [r3], #-99	; 0xffffff9d
  44:	73757461 	cmnvc	r5, #1627389952	; 0x61000000
  48:	72617000 	rsbvc	r7, r1, #0
  4c:	74656d61 	strbtvc	r6, [r5], #-3425	; 0xfffff29f
  50:	00317265 	eorseq	r7, r1, r5, ror #4
  54:	6f676c61 	svcvs	0x00676c61
  58:	00636e46 	rsbeq	r6, r3, r6, asr #28
  5c:	63657845 	cmnvs	r5, #4521984	; 0x450000
  60:	636e7546 	cmnvs	lr, #293601280	; 0x11800000
  64:	6e6f6974 	mcrvs	9, 3, r6, cr15, cr4, {3}
  68:	74657200 	strbtvc	r7, [r5], #-512	; 0xfffffe00
  6c:	006c6176 	rsbeq	r6, ip, r6, ror r1
  70:	69736e75 	ldmdbvs	r3!, {r0, r2, r4, r5, r6, r9, sl, fp, sp, lr}^
  74:	64656e67 	strbtvs	r6, [r5], #-3687	; 0xfffff199
  78:	61686320 	cmnvs	r8, r0, lsr #6
  7c:	61700072 	cmnvs	r0, r2, ror r0
  80:	656d6172 	strbvs	r6, [sp, #-370]!	; 0xfffffe8e
  84:	30726574 	rsbscc	r6, r2, r4, ror r5
  88:	5c3a4500 	cfldr32pl	mvfx4, [sl], #-0
  8c:	75746573 	ldrbvc	r6, [r4, #-1395]!	; 0xfffffa8d
  90:	6f635c70 	svcvs	0x00635c70
  94:	786f636f 	stmdavc	pc!, {r0, r1, r2, r3, r5, r6, r8, r9, sp, lr}^	; <UNPREDICTABLE>
  98:	666f635c 			; <UNDEFINED> instruction: 0x666f635c
  9c:	6873616c 	ldmdavs	r3!, {r2, r3, r5, r6, r8, sp, lr}^
  a0:	6372735c 	cmnvs	r2, #92, 6	; 0x70000001
  a4:	616c665c 	cmnvs	ip, ip, asr r6
  a8:	735c6873 	cmpvc	ip, #7536640	; 0x730000
  ac:	6372756f 	cmnvs	r2, #465567744	; 0x1bc00000
  b0:	4b4d5c65 	blmi	135724c <FlashDriver+0x1355488>
  b4:	5c463436 	cfstrdpl	mvd3, [r6], {54}	; 0x36
  b8:	50636367 	rsbpl	r6, r3, r7, ror #6
  bc:	656a6f72 	strbvs	r6, [sl, #-3954]!	; 0xfffff08e
  c0:	70007463 	andvc	r7, r0, r3, ror #8
  c4:	6d617261 	sfmvs	f7, 2, [r1, #-388]!	; 0xfffffe7c
  c8:	72657465 	rsbvc	r7, r5, #1694498816	; 0x65000000
  cc:	69730032 	ldmdbvs	r3!, {r1, r4, r5}^
  d0:	7974657a 	ldmdbvc	r4!, {r1, r3, r4, r5, r6, r8, sl, sp, lr}^
  d4:	50006570 	andpl	r6, r0, r0, ror r5
  d8:	4c4c4143 	stfmie	f4, [ip], {67}	; 0x43
  dc:	4b434142 	blmi	10d05ec <FlashDriver+0x10ce828>
  e0:	53535000 	cmppl	r3, #0
  e4:	6e6f4344 	cdpvs	3, 6, cr4, cr15, cr4, {2}
  e8:	00676966 	rsbeq	r6, r7, r6, ror #18
  ec:	616c4644 	cmnvs	ip, r4, asr #12
  f0:	6c426873 	mcrrvs	8, 7, r6, r2, cr3
  f4:	426b636f 	rsbmi	r6, fp, #-1140850687	; 0xbc000001
  f8:	00657361 	rsbeq	r7, r5, r1, ror #6
  fc:	4c4f4f42 	mcrrmi	15, 4, r4, pc, cr2
 100:	6c464400 	cfstrdvs	mvd4, [r6], {-0}
 104:	42687361 	rsbmi	r7, r8, #-2080374783	; 0x84000001
 108:	6b636f6c 	blvs	18dbec0 <FlashDriver+0x18da0fc>
 10c:	657a6953 	ldrbvs	r6, [sl, #-2387]!	; 0xfffff6ad
 110:	62654400 	rsbvs	r4, r5, #0, 8
 114:	6e456775 	mcrvs	7, 2, r6, cr5, cr5, {3}
 118:	656c6261 	strbvs	r6, [ip, #-609]!	; 0xfffffd9f
 11c:	2f2e2e00 	svccs	0x002e2e00
 120:	6c464544 	cfstr64vs	mvdx4, [r6], {68}	; 0x44
 124:	50687361 	rsbpl	r7, r8, r1, ror #6
 128:	69747261 	ldmdbvs	r4!, {r0, r5, r6, r9, ip, sp, lr}^
 12c:	6e6f6974 	mcrvs	9, 3, r6, cr15, cr4, {3}
 130:	5000632e 	andpl	r6, r0, lr, lsr #6
 134:	73616c46 	cmnvc	r1, #17920	; 0x4600
 138:	6f6c4268 	svcvs	0x006c4268
 13c:	61426b63 	cmpvs	r2, r3, ror #22
 140:	45006573 	strmi	r6, [r0, #-1395]	; 0xfffffa8d
 144:	61444545 	cmpvs	r4, r5, asr #10
 148:	69536174 	ldmdbvs	r3, {r2, r4, r5, r6, r8, sp, lr}^
 14c:	6f43657a 	svcvs	0x0043657a
 150:	72006564 	andvc	r6, r0, #100, 10	; 0x19000000
 154:	72757465 	rsbsvc	r7, r5, #1694498816	; 0x65000000
 158:	646f436e 	strbtvs	r4, [pc], #-878	; 160 <EEEWrite+0x4>
 15c:	735f0065 	cmpvc	pc, #101	; 0x65
 160:	635f6473 	cmpvs	pc, #1929379840	; 0x73000000
 164:	69666e6f 	stmdbvs	r6!, {r0, r1, r2, r3, r5, r6, r9, sl, fp, sp, lr}^
 168:	46500067 	ldrbmi	r0, [r0], -r7, rrx
 16c:	6873616c 	ldmdavs	r3!, {r2, r3, r5, r6, r8, sp, lr}^
 170:	636f6c42 	cmnvs	pc, #16896	; 0x4200
 174:	7a69536b 	bvc	1a54f28 <FlashDriver+0x1a53164>
 178:	46700065 	ldrbtmi	r0, [r0], -r5, rrx
 17c:	4853414c 	ldmdami	r3, {r2, r3, r6, r8, lr}^
 180:	4d4d4f43 	stclmi	15, cr4, [sp, #-268]	; 0xfffffef4
 184:	53444e41 	movtpl	r4, #20033	; 0x4e41
 188:	45555145 	ldrbmi	r5, [r5, #-325]	; 0xfffffebb
 18c:	0045434e 	subeq	r4, r5, lr, asr #6
 190:	726f6873 	rsbvc	r6, pc, #7536640	; 0x730000
 194:	6e752074 	mrcvs	0, 3, r2, cr5, cr4, {3}
 198:	6e676973 	mcrvs	9, 3, r6, cr7, cr3, {3}
 19c:	69206465 	stmdbvs	r0!, {r0, r2, r5, r6, sl, sp, lr}
 1a0:	4600746e 	strmi	r7, [r0], -lr, ror #8
 1a4:	6873616c 	ldmdavs	r3!, {r2, r3, r5, r6, r8, sp, lr}^
 1a8:	6d6d6f43 	stclvs	15, cr6, [sp, #-268]!	; 0xfffffef4
 1ac:	53646e61 	cmnpl	r4, #1552	; 0x610
 1b0:	65757165 	ldrbvs	r7, [r5, #-357]!	; 0xfffffe9b
 1b4:	0065636e 	rsbeq	r6, r5, lr, ror #6
 1b8:	42454545 	submi	r4, r5, #289406976	; 0x11400000
 1bc:	6b636f6c 	blvs	18dbf74 <FlashDriver+0x18da1b0>
 1c0:	657a6953 	ldrbvs	r6, [sl, #-2387]!	; 0xfffff6ad
 1c4:	46454400 	strbmi	r4, [r5], -r0, lsl #8
 1c8:	6873616c 	ldmdavs	r3!, {r2, r3, r5, r6, r8, sp, lr}^
 1cc:	74726150 	ldrbtvc	r6, [r2], #-336	; 0xfffffeb0
 1d0:	6f697469 	svcvs	0x00697469
 1d4:	4650006e 	ldrbmi	r0, [r0], -lr, rrx
 1d8:	4853414c 	ldmdami	r3, {r2, r3, r6, r8, lr}^
 1dc:	4453535f 	ldrbmi	r5, [r3], #-863	; 0xfffffca1
 1e0:	4e4f435f 	mcrmi	3, 2, r4, cr15, cr15, {2}
 1e4:	00474946 	subeq	r4, r7, r6, asr #18
 1e8:	6c6c6143 	stfvse	f6, [ip], #-268	; 0xfffffef4
 1ec:	6b636142 	blvs	18d86fc <FlashDriver+0x18d6938>
 1f0:	52454500 	subpl	r4, r5, #0, 10
 1f4:	6c424d41 	mcrrvs	13, 4, r4, r2, cr1
 1f8:	426b636f 	rsbmi	r6, fp, #-1140850687	; 0xbc000001
 1fc:	00657361 	rsbeq	r7, r5, r1, ror #6
 200:	544e4955 	strbpl	r4, [lr], #-2389	; 0xfffff6ab
 204:	70003233 	andvc	r3, r0, r3, lsr r2
 208:	6d6d6f43 	stclvs	15, cr6, [sp, #-268]!	; 0xfffffef4
 20c:	41646e61 	cmnmi	r4, r1, ror #28
 210:	79617272 	stmdbvc	r1!, {r1, r4, r5, r6, r9, ip, sp, lr}^
 214:	52454500 	subpl	r4, r5, #0, 10
 218:	6c424d41 	mcrrvs	13, 4, r4, r2, cr1
 21c:	536b636f 	cmnpl	fp, #-1140850687	; 0xbc000001
 220:	00657a69 	rsbeq	r7, r5, r9, ror #20
 224:	726f6873 	rsbvc	r6, pc, #7536640	; 0x730000
 228:	6e692074 	mcrvs	0, 3, r2, cr9, cr4, {3}
 22c:	45440074 	strbmi	r0, [r4, #-116]	; 0xffffff8c
 230:	74726150 	ldrbtvc	r6, [r2], #-336	; 0xfffffeb0
 234:	6f697469 	svcvs	0x00697469
 238:	646f436e 	strbtvs	r4, [pc], #-878	; 240 <EERAMGetProtection+0x24>
 23c:	6f6c0065 	svcvs	0x006c0065
 240:	6920676e 	stmdbvs	r0!, {r1, r2, r3, r5, r6, r8, r9, sl, sp, lr}
 244:	6600746e 	strvs	r7, [r0], -lr, ror #8
 248:	52786674 	rsbspl	r6, r8, #116, 12	; 0x7400000
 24c:	61426765 	cmpvs	r2, r5, ror #14
 250:	2e006573 	cfrshl64cs	mvdx0, mvdx3, r6
 254:	46442f2e 	strbmi	r2, [r4], -lr, lsr #30
 258:	6873616c 	ldmdavs	r3!, {r2, r3, r5, r6, r8, sp, lr}^
 25c:	50746547 	rsbspl	r6, r4, r7, asr #10
 260:	65746f72 	ldrbvs	r6, [r4, #-3954]!	; 0xfffff08e
 264:	6f697463 	svcvs	0x00697463
 268:	00632e6e 	rsbeq	r2, r3, lr, ror #28
 26c:	616c4644 	cmnvs	ip, r4, asr #12
 270:	65476873 	strbvs	r6, [r7, #-2163]	; 0xfffff78d
 274:	6f725074 	svcvs	0x00725074
 278:	74636574 	strbtvc	r6, [r3], #-1396	; 0xfffffa8c
 27c:	006e6f69 	rsbeq	r6, lr, r9, ror #30
 280:	4e495556 	mcrmi	5, 2, r5, cr9, cr6, {2}
 284:	70003854 	andvc	r3, r0, r4, asr r8
 288:	65746f72 	ldrbvs	r6, [r4, #-3954]!	; 0xfffff08e
 28c:	74537463 	ldrbvc	r7, [r3], #-1123	; 0xfffffb9d
 290:	73757461 	cmnvc	r5, #1627389952	; 0x61000000
 294:	49584500 	ldmdbmi	r8, {r8, sl, lr}^
 298:	65740054 	ldrbvs	r0, [r4, #-84]!	; 0xffffffac
 29c:	2e00706d 	cdpcs	0, 0, cr7, cr0, cr13, {3}
 2a0:	46442f2e 	strbmi	r2, [r4], -lr, lsr #30
 2a4:	6873616c 	ldmdavs	r3!, {r2, r3, r5, r6, r8, sp, lr}^
 2a8:	50746553 	rsbspl	r6, r4, r3, asr r5
 2ac:	65746f72 	ldrbvs	r6, [r4, #-3954]!	; 0xfffff08e
 2b0:	6f697463 	svcvs	0x00697463
 2b4:	00632e6e 	rsbeq	r2, r3, lr, ror #28
 2b8:	69676572 	stmdbvs	r7!, {r1, r4, r5, r6, r8, sl, sp, lr}^
 2bc:	72657473 	rsbvc	r7, r5, #1929379840	; 0x73000000
 2c0:	756c6156 	strbvc	r6, [ip, #-342]!	; 0xfffffeaa
 2c4:	46440065 	strbmi	r0, [r4], -r5, rrx
 2c8:	6873616c 	ldmdavs	r3!, {r2, r3, r5, r6, r8, sp, lr}^
 2cc:	50746553 	rsbspl	r6, r4, r3, asr r5
 2d0:	65746f72 	ldrbvs	r6, [r4, #-3954]!	; 0xfffff08e
 2d4:	6f697463 	svcvs	0x00697463
 2d8:	6564006e 	strbvs	r0, [r4, #-110]!	; 0xffffff92
 2dc:	6e697473 	mcrvs	4, 3, r7, cr9, cr3, {3}
 2e0:	6f697461 	svcvs	0x00697461
 2e4:	4545006e 	strbmi	r0, [r5, #-110]	; 0xffffff92
 2e8:	69725745 	ldmdbvs	r2!, {r0, r2, r6, r8, r9, sl, ip, lr}^
 2ec:	2e006574 	cfrshl64cs	mvdx0, mvdx4, r6
 2f0:	45452f2e 	strbmi	r2, [r5, #-3886]	; 0xfffff0d2
 2f4:	69725745 	ldmdbvs	r2!, {r0, r2, r6, r8, r9, sl, ip, lr}^
 2f8:	632e6574 	teqvs	lr, #116, 10	; 0x1d000000
 2fc:	7a697300 	bvc	1a5cf04 <FlashDriver+0x1a5b140>
 300:	45450065 	strbmi	r0, [r5, #-101]	; 0xffffff9b
 304:	474d4152 	smlsldmi	r4, sp, r2, r1
 308:	72507465 	subsvc	r7, r0, #1694498816	; 0x65000000
 30c:	6365746f 	cmnvs	r5, #1862270976	; 0x6f000000
 310:	6e6f6974 	mcrvs	9, 3, r6, cr15, cr4, {3}
 314:	2f2e2e00 	svccs	0x002e2e00
 318:	41524545 	cmpmi	r2, r5, asr #10
 31c:	7465474d 	strbtvc	r4, [r5], #-1869	; 0xfffff8b3
 320:	746f7250 	strbtvc	r7, [pc], #-592	; 328 <FlashProgramPhrase+0xc>
 324:	69746365 	ldmdbvs	r4!, {r0, r2, r5, r6, r8, r9, sp, lr}^
 328:	632e6e6f 	teqvs	lr, #1776	; 0x6f0
 32c:	2f2e2e00 	svccs	0x002e2e00
 330:	41524545 	cmpmi	r2, r5, asr #10
 334:	7465534d 	strbtvc	r5, [r5], #-845	; 0xfffffcb3
 338:	746f7250 	strbtvc	r7, [pc], #-592	; 340 <FlashProgramPhrase+0x24>
 33c:	69746365 	ldmdbvs	r4!, {r0, r2, r5, r6, r8, r9, sp, lr}^
 340:	632e6e6f 	teqvs	lr, #1776	; 0x6f0
 344:	52454500 	subpl	r4, r5, #0, 10
 348:	65534d41 	ldrbvs	r4, [r3, #-3393]	; 0xfffff2bf
 34c:	6f725074 	svcvs	0x00725074
 350:	74636574 	strbtvc	r6, [r3], #-1396	; 0xfffffa8c
 354:	006e6f69 	rsbeq	r6, lr, r9, ror #30
 358:	65736162 	ldrbvs	r6, [r3, #-354]!	; 0xfffffe9e
 35c:	72646441 	rsbvc	r6, r4, #1090519040	; 0x41000000
 360:	616c6600 	cmnvs	ip, r0, lsl #12
 364:	53536873 	cmppl	r3, #7536640	; 0x730000
 368:	6e6f4344 	cdpvs	3, 6, cr4, cr15, cr4, {2}
 36c:	00676966 	rsbeq	r6, r7, r6, ror #18
 370:	7265706f 	rsbvc	r7, r5, #111	; 0x6f
 374:	46657461 	strbtmi	r7, [r5], -r1, ror #8
 378:	62006375 	andvs	r6, r0, #-738197503	; 0xd4000001
 37c:	5f657361 	svcpl	0x00657361
 380:	00726461 	rsbseq	r6, r2, r1, ror #8
 384:	73616c46 	cmnvc	r1, #17920	; 0x4600
 388:	696e4968 	stmdbvs	lr!, {r3, r5, r6, r8, fp, lr}^
 38c:	6e750074 	mrcvs	0, 3, r0, cr5, cr4, {3}
 390:	75636573 	strbvc	r6, [r3, #-1395]!	; 0xfffffa8d
 394:	6f776572 	svcvs	0x00776572
 398:	4c4c6472 	cfstrdmi	mvd6, [ip], {114}	; 0x72
 39c:	616c4600 	cmnvs	ip, r0, lsl #12
 3a0:	72506873 	subsvc	r6, r0, #7536640	; 0x730000
 3a4:	6172676f 	cmnvs	r2, pc, ror #14
 3a8:	7268506d 	rsbvc	r5, r8, #109	; 0x6d
 3ac:	00657361 	rsbeq	r7, r5, r1, ror #6
 3b0:	73616c46 	cmnvc	r1, #17920	; 0x4600
 3b4:	6f725068 	svcvs	0x00725068
 3b8:	6d617267 	sfmvs	f7, 2, [r1, #-412]!	; 0xfffffe64
 3bc:	65676150 	strbvs	r6, [r7, #-336]!	; 0xfffffeb0
 3c0:	736e7500 	cmnvc	lr, #0, 10
 3c4:	72756365 	rsbsvc	r6, r5, #-1811939327	; 0x94000001
 3c8:	726f7765 	rsbvc	r7, pc, #26476544	; 0x1940000
 3cc:	6f6c0064 	svcvs	0x006c0064
 3d0:	6c20676e 	stcvs	7, cr6, [r0], #-440	; 0xfffffe48
 3d4:	20676e6f 	rsbcs	r6, r7, pc, ror #28
 3d8:	69736e75 	ldmdbvs	r3!, {r0, r2, r4, r5, r6, r9, sl, fp, sp, lr}^
 3dc:	64656e67 	strbtvs	r6, [r5], #-3687	; 0xfffff199
 3e0:	746e6920 	strbtvc	r6, [lr], #-2336	; 0xfffff6e0
 3e4:	63657300 	cmnvs	r5, #0, 6
 3e8:	41726f74 	cmnmi	r2, r4, ror pc
 3ec:	00726464 	rsbseq	r6, r2, r4, ror #8
 3f0:	41646e65 	cmnmi	r4, r5, ror #28
 3f4:	65726464 	ldrbvs	r6, [r2, #-1124]!	; 0xfffffb9c
 3f8:	46007373 			; <UNDEFINED> instruction: 0x46007373
 3fc:	6873616c 	ldmdavs	r3!, {r2, r3, r5, r6, r8, sp, lr}^
 400:	6e496e55 	mcrvs	14, 2, r6, cr9, cr5, {2}
 404:	2e007469 	cdpcs	4, 0, cr7, cr0, cr9, {3}
 408:	6c462f2e 	mcrrvs	15, 2, r2, r6, cr14
 40c:	41687361 	cmnmi	r8, r1, ror #6
 410:	466f676c 	strbtmi	r6, [pc], -ip, ror #14
 414:	2e73636e 	cdpcs	3, 7, cr6, cr3, cr14, {3}
 418:	6c460063 	mcrrvs	0, 6, r0, r6, cr3
 41c:	45687361 	strbmi	r7, [r8, #-865]!	; 0xfffffc9f
 420:	65736172 	ldrbvs	r6, [r3, #-370]!	; 0xfffffe8e
 424:	70696843 	rsbvc	r6, r9, r3, asr #16
 428:	67617000 	strbvs	r7, [r1, -r0]!
 42c:	64644165 	strbtvs	r4, [r4], #-357	; 0xfffffe9b
 430:	6f740072 	svcvs	0x00740072
 434:	536c6174 	cmnpl	ip, #116, 2
 438:	00657a69 	rsbeq	r7, r5, r9, ror #20
 43c:	656d6974 	strbvs	r6, [sp, #-2420]!	; 0xfffff68c
 440:	4374756f 	cmnmi	r4, #465567744	; 0x1bc00000
 444:	006d6d6f 	rsbeq	r6, sp, pc, ror #26
 448:	656d6974 	strbvs	r6, [sp, #-2420]!	; 0xfffff68c
 44c:	5074756f 	rsbspl	r7, r4, pc, ror #10
 450:	00676f72 	rsbeq	r6, r7, r2, ror pc
 454:	656d6974 	strbvs	r6, [sp, #-2420]!	; 0xfffff68c
 458:	4574756f 	ldrbmi	r7, [r4, #-1391]!	; 0xfffffa91
 45c:	65736172 	ldrbvs	r6, [r3, #-370]!	; 0xfffffe8e
 460:	74636553 	strbtvc	r6, [r3], #-1363	; 0xfffffaad
 464:	6100726f 	tstvs	r0, pc, ror #4
 468:	00726464 	rsbseq	r6, r2, r4, ror #8
 46c:	65676170 	strbvs	r6, [r7, #-368]!	; 0xfffffe90
 470:	657a6953 	ldrbvs	r6, [sl, #-2387]!	; 0xfffff6ad
 474:	73656400 	cmnvc	r5, #0, 8
 478:	70697263 	rsbvc	r7, r9, r3, ror #4
 47c:	6e6f6974 	mcrvs	9, 3, r6, cr15, cr4, {3}
 480:	616c4600 	cmnvs	ip, r0, lsl #12
 484:	65446873 	strbvs	r6, [r4, #-2163]	; 0xfffff78d
 488:	65636976 	strbvs	r6, [r3, #-2422]!	; 0xfffff68a
 48c:	76656400 	strbtvc	r6, [r5], -r0, lsl #8
 490:	49656369 	stmdbmi	r5!, {r0, r3, r5, r6, r8, r9, sp, lr}^
 494:	006f666e 	rsbeq	r6, pc, lr, ror #12
 498:	73616c46 	cmnvc	r1, #17920	; 0x4600
 49c:	63655368 	cmnvs	r5, #104, 6	; 0xa0000001
 4a0:	00726f74 	rsbseq	r6, r2, r4, ror pc
 4a4:	74636573 	strbtvc	r6, [r3], #-1395	; 0xfffffa8d
 4a8:	0073726f 	rsbseq	r7, r3, pc, ror #4
 4ac:	73616c46 	cmnvc	r1, #17920	; 0x4600
 4b0:	676c4168 	strbvs	r4, [ip, -r8, ror #2]!
 4b4:	7469726f 	strbtvc	r7, [r9], #-623	; 0xfffffd91
 4b8:	46006d68 	strmi	r6, [r0], -r8, ror #26
 4bc:	6873616c 	ldmdavs	r3!, {r2, r3, r5, r6, r8, sp, lr}^
 4c0:	76697244 	strbtvc	r7, [r9], -r4, asr #4
 4c4:	74007265 	strvc	r7, [r0], #-613	; 0xfffffd9b
 4c8:	6f656d69 	svcvs	0x00656d69
 4cc:	72457475 	subvc	r7, r5, #1962934272	; 0x75000000
 4d0:	43657361 	cmnmi	r5, #-2080374783	; 0x84000001
 4d4:	00706968 	rsbseq	r6, r0, r8, ror #18
 4d8:	73726576 	cmnvc	r2, #494927872	; 0x1d800000
 4dc:	006e6f69 	rsbeq	r6, lr, r9, ror #30
 4e0:	74696e69 	strbtvc	r6, [r9], #-3689	; 0xfffff197
 4e4:	566c6169 	strbtpl	r6, [ip], -r9, ror #2
 4e8:	2e006c61 	cdpcs	12, 0, cr6, cr0, cr1, {3}
 4ec:	6c462f2e 	mcrrvs	15, 2, r2, r6, cr14
 4f0:	41687361 	cmnmi	r8, r1, ror #6
 4f4:	496f676c 	stmdbmi	pc!, {r2, r3, r5, r6, r8, r9, sl, sp, lr}^	; <UNPREDICTABLE>
 4f8:	2e6f666e 	cdpcs	6, 6, cr6, cr15, cr14, {3}
 4fc:	61640063 	cmnvs	r4, r3, rrx
 500:	63006174 	movwvs	r6, #372	; 0x174
 504:	746e756f 	strbtvc	r7, [lr], #-1391	; 0xfffffa91
 508:	50007265 	andpl	r7, r0, r5, ror #4
 50c:	006d7553 	rsbeq	r7, sp, r3, asr r5
 510:	73616c46 	cmnvc	r1, #17920	; 0x4600
 514:	65684368 	strbvs	r4, [r8, #-872]!	; 0xfffffc98
 518:	75536b63 	ldrbvc	r6, [r3, #-2915]	; 0xfffff49d
 51c:	2e2e006d 	cdpcs	0, 2, cr0, cr14, cr13, {3}
 520:	616c462f 	cmnvs	ip, pc, lsr #12
 524:	68436873 	stmdavs	r3, {r0, r1, r4, r5, r6, fp, sp, lr}^
 528:	536b6365 	cmnpl	fp, #-1811939327	; 0x94000001
 52c:	632e6d75 	teqvs	lr, #7488	; 0x1d40
 530:	2f2e2e00 	svccs	0x002e2e00
 534:	73616c46 	cmnvc	r1, #17920	; 0x4600
 538:	6d6f4368 	stclvs	3, cr4, [pc, #-416]!	; 3a0 <FlashProgramPhrase+0x84>
 53c:	646e616d 	strbtvs	r6, [lr], #-365	; 0xfffffe93
 540:	75716553 	ldrbvc	r6, [r1, #-1363]!	; 0xfffffaad
 544:	65636e65 	strbvs	r6, [r3, #-3685]!	; 0xfffff19b
 548:	6900632e 	stmdbvs	r0, {r1, r2, r3, r5, r8, r9, sp, lr}
 54c:	7865646e 	stmdavc	r5!, {r1, r2, r3, r5, r6, sl, sp, lr}^
 550:	6d6f6300 	stclvs	3, cr6, [pc, #-0]	; 558 <FlashUnInit+0xc>
 554:	646e616d 	strbtvs	r6, [lr], #-365	; 0xfffffe93
 558:	61727241 	cmnvs	r2, r1, asr #4
 55c:	6c460079 	mcrrvs	0, 7, r0, r6, cr9
 560:	45687361 	strbmi	r7, [r8, #-865]!	; 0xfffffc9f
 564:	65736172 	ldrbvs	r6, [r3, #-370]!	; 0xfffffe8e
 568:	426c6c41 	rsbmi	r6, ip, #16640	; 0x4100
 56c:	6b636f6c 	blvs	18dc324 <FlashDriver+0x18da560>
 570:	2f2e2e00 	svccs	0x002e2e00
 574:	73616c46 	cmnvc	r1, #17920	; 0x4600
 578:	61724568 	cmnvs	r2, r8, ror #10
 57c:	6c416573 	cfstr64vs	mvdx6, [r1], {115}	; 0x73
 580:	6f6c426c 	svcvs	0x006c426c
 584:	632e6b63 	teqvs	lr, #101376	; 0x18c00
 588:	2f2e2e00 	svccs	0x002e2e00
 58c:	73616c46 	cmnvc	r1, #17920	; 0x4600
 590:	61724568 	cmnvs	r2, r8, ror #10
 594:	6c426573 	cfstr64vs	mvdx6, [r2], {115}	; 0x73
 598:	2e6b636f 	cdpcs	3, 6, cr6, cr11, cr15, {3}
 59c:	6c460063 	mcrrvs	0, 6, r0, r6, cr3
 5a0:	45687361 	strbmi	r7, [r8, #-865]!	; 0xfffffc9f
 5a4:	65736172 	ldrbvs	r6, [r3, #-370]!	; 0xfffffe8e
 5a8:	636f6c42 	cmnvs	pc, #16896	; 0x4200
 5ac:	2e2e006b 	cdpcs	0, 2, cr0, cr14, cr11, {3}
 5b0:	616c462f 	cmnvs	ip, pc, lsr #12
 5b4:	72456873 	subvc	r6, r5, #7536640	; 0x730000
 5b8:	52657361 	rsbpl	r7, r5, #-2080374783	; 0x84000001
 5bc:	6d757365 	ldclvs	3, cr7, [r5, #-404]!	; 0xfffffe6c
 5c0:	00632e65 	rsbeq	r2, r3, r5, ror #28
 5c4:	73616c46 	cmnvc	r1, #17920	; 0x4600
 5c8:	61724568 	cmnvs	r2, r8, ror #10
 5cc:	65526573 	ldrbvs	r6, [r2, #-1395]	; 0xfffffa8d
 5d0:	656d7573 	strbvs	r7, [sp, #-1395]!	; 0xfffffa8d
 5d4:	63657300 	cmnvs	r5, #0, 6
 5d8:	53726f74 	cmnpl	r2, #116, 30	; 0x1d0
 5dc:	00657a69 	rsbeq	r7, r5, r9, ror #20
 5e0:	462f2e2e 	strtmi	r2, [pc], -lr, lsr #28
 5e4:	6873616c 	ldmdavs	r3!, {r2, r3, r5, r6, r8, sp, lr}^
 5e8:	73617245 	cmnvc	r1, #1342177284	; 0x50000004
 5ec:	63655365 	cmnvs	r5, #-1811939327	; 0x94000001
 5f0:	5f726f74 	svcpl	0x00726f74
 5f4:	6c69654b 	cfstr64vs	mvdx6, [r9], #-300	; 0xfffffed4
 5f8:	4600632e 	strmi	r6, [r0], -lr, lsr #6
 5fc:	6873616c 	ldmdavs	r3!, {r2, r3, r5, r6, r8, sp, lr}^
 600:	73617245 	cmnvc	r1, #1342177284	; 0x50000004
 604:	63655365 	cmnvs	r5, #-1811939327	; 0x94000001
 608:	30726f74 	rsbscc	r6, r2, r4, ror pc
 60c:	2f2e2e00 	svccs	0x002e2e00
 610:	73616c46 	cmnvc	r1, #17920	; 0x4600
 614:	61724568 	cmnvs	r2, r8, ror #10
 618:	75536573 	ldrbvc	r6, [r3, #-1395]	; 0xfffffa8d
 61c:	6e657073 	mcrvs	0, 3, r7, cr5, cr3, {3}
 620:	00632e64 	rsbeq	r2, r3, r4, ror #28
 624:	73616c46 	cmnvc	r1, #17920	; 0x4600
 628:	61724568 	cmnvs	r2, r8, ror #10
 62c:	75536573 	ldrbvc	r6, [r3, #-1395]	; 0xfffffa8d
 630:	6e657073 	mcrvs	0, 3, r7, cr5, cr3, {3}
 634:	6e690064 	cdpvs	0, 6, cr0, cr9, cr4, {3}
 638:	72726574 	rsbsvc	r6, r2, #116, 10	; 0x1d000000
 63c:	53747075 	cmnpl	r4, #117	; 0x75
 640:	65746174 	ldrbvs	r6, [r4, #-372]!	; 0xfffffe8c
 644:	616c4600 	cmnvs	ip, r0, lsl #12
 648:	65476873 	strbvs	r6, [r7, #-2163]	; 0xfffff78d
 64c:	746e4974 	strbtvc	r4, [lr], #-2420	; 0xfffff68c
 650:	75727265 	ldrbvc	r7, [r2, #-613]!	; 0xfffffd9b
 654:	6e457470 	mcrvs	4, 2, r7, cr5, cr0, {3}
 658:	656c6261 	strbvs	r6, [ip, #-609]!	; 0xfffffd9f
 65c:	2f2e2e00 	svccs	0x002e2e00
 660:	73616c46 	cmnvc	r1, #17920	; 0x4600
 664:	74654768 	strbtvc	r4, [r5], #-1896	; 0xfffff898
 668:	65746e49 	ldrbvs	r6, [r4, #-3657]!	; 0xfffff1b7
 66c:	70757272 	rsbsvc	r7, r5, r2, ror r2
 670:	616e4574 	smcvs	58452	; 0xe454
 674:	2e656c62 	cdpcs	12, 6, cr6, cr5, cr2, {3}
 678:	2e2e0063 	cdpcs	0, 2, cr0, cr14, cr3, {3}
 67c:	616c462f 	cmnvs	ip, pc, lsr #12
 680:	65476873 	strbvs	r6, [r7, #-2163]	; 0xfffff78d
 684:	63655374 	cmnvs	r5, #116, 6	; 0xd0000001
 688:	74697275 	strbtvc	r7, [r9], #-629	; 0xfffffd8b
 68c:	61745379 	cmnvs	r4, r9, ror r3
 690:	632e6574 	teqvs	lr, #116, 10	; 0x1d000000
 694:	616c4600 	cmnvs	ip, r0, lsl #12
 698:	65476873 	strbvs	r6, [r7, #-2163]	; 0xfffff78d
 69c:	63655374 	cmnvs	r5, #116, 6	; 0xd0000001
 6a0:	74697275 	strbtvc	r7, [r9], #-629	; 0xfffffd8b
 6a4:	61745379 	cmnvs	r4, r9, ror r3
 6a8:	73006574 	movwvc	r6, #1396	; 0x574
 6ac:	72756365 	rsbsvc	r6, r5, #-1811939327	; 0x94000001
 6b0:	53797469 	cmnpl	r9, #1761607680	; 0x69000000
 6b4:	65746174 	ldrbvs	r6, [r4, #-372]!	; 0xfffffe8c
 6b8:	45454500 	strbmi	r4, [r5, #-1280]	; 0xfffffb00
 6bc:	61746144 	cmnvs	r4, r4, asr #2
 6c0:	53746553 	cmnpl	r4, #348127232	; 0x14c00000
 6c4:	00657a69 	rsbeq	r7, r5, r9, ror #20
 6c8:	462f2e2e 	strtmi	r2, [pc], -lr, lsr #28
 6cc:	6873616c 	ldmdavs	r3!, {r2, r3, r5, r6, r8, sp, lr}^
 6d0:	74696e49 	strbtvc	r6, [r9], #-3657	; 0xfffff1b7
 6d4:	4600632e 	strmi	r6, [r0], -lr, lsr #6
 6d8:	6873616c 	ldmdavs	r3!, {r2, r3, r5, r6, r8, sp, lr}^
 6dc:	74696e49 	strbtvc	r6, [r9], #-3657	; 0xfffff1b7
 6e0:	46700030 			; <UNDEFINED> instruction: 0x46700030
 6e4:	416c6961 	cmnmi	ip, r1, ror #18
 6e8:	00726464 	rsbseq	r6, r2, r4, ror #8
 6ec:	69614670 	stmdbvs	r1!, {r4, r5, r6, r9, sl, lr}^
 6f0:	7461446c 	strbtvc	r4, [r1], #-1132	; 0xfffffb94
 6f4:	2e2e0061 	cdpcs	0, 2, cr0, cr14, cr1, {3}
 6f8:	616c462f 	cmnvs	ip, pc, lsr #12
 6fc:	72506873 	subsvc	r6, r0, #7536640	; 0x730000
 700:	6172676f 	cmnvs	r2, pc, ror #14
 704:	6568436d 	strbvs	r4, [r8, #-877]!	; 0xfffffc93
 708:	632e6b63 	teqvs	lr, #101376	; 0x18c00
 70c:	78457000 	stmdavc	r5, {ip, sp, lr}^
 710:	74636570 	strbtvc	r6, [r3], #-1392	; 0xfffffa90
 714:	61446465 	cmpvs	r4, r5, ror #8
 718:	46006174 			; <UNDEFINED> instruction: 0x46006174
 71c:	6873616c 	ldmdavs	r3!, {r2, r3, r5, r6, r8, sp, lr}^
 720:	676f7250 			; <UNDEFINED> instruction: 0x676f7250
 724:	436d6172 	cmnmi	sp, #-2147483620	; 0x8000001c
 728:	6b636568 	blvs	18d9cd0 <FlashDriver+0x18d7f0c>
 72c:	72616d00 	rsbvc	r6, r1, #0, 26
 730:	4c6e6967 	stclmi	9, cr6, [lr], #-412	; 0xfffffe64
 734:	6c657665 	stclvs	6, cr7, [r5], #-404	; 0xfffffe6c
 738:	2f2e2e00 	svccs	0x002e2e00
 73c:	73616c46 	cmnvc	r1, #17920	; 0x4600
 740:	6f725068 	svcvs	0x00725068
 744:	6d617267 	sfmvs	f7, 2, [r1, #-412]!	; 0xfffffe64
 748:	676e6f4c 	strbvs	r6, [lr, -ip, asr #30]!
 74c:	64726f77 	ldrbtvs	r6, [r2], #-3959	; 0xfffff089
 750:	69654b5f 	stmdbvs	r5!, {r0, r1, r2, r3, r4, r6, r8, r9, fp, lr}^
 754:	00632e6c 	rsbeq	r2, r3, ip, ror #28
 758:	73616c46 	cmnvc	r1, #17920	; 0x4600
 75c:	6f725068 	svcvs	0x00725068
 760:	6d617267 	sfmvs	f7, 2, [r1, #-412]!	; 0xfffffe64
 764:	676e6f4c 	strbvs	r6, [lr, -ip, asr #30]!
 768:	64726f77 	ldrbtvs	r6, [r2], #-3959	; 0xfffff089
 76c:	616c4600 	cmnvs	ip, r0, lsl #12
 770:	72506873 	subsvc	r6, r0, #7536640	; 0x730000
 774:	6172676f 	cmnvs	r2, pc, ror #14
 778:	636e4f6d 	cmnvs	lr, #436	; 0x1b4
 77c:	44700065 	ldrbtmi	r0, [r0], #-101	; 0xffffff9b
 780:	41617461 	cmnmi	r1, r1, ror #8
 784:	79617272 	stmdbvc	r1!, {r1, r4, r5, r6, r9, ip, sp, lr}^
 788:	2f2e2e00 	svccs	0x002e2e00
 78c:	73616c46 	cmnvc	r1, #17920	; 0x4600
 790:	6f725068 	svcvs	0x00725068
 794:	6d617267 	sfmvs	f7, 2, [r1, #-412]!	; 0xfffffe64
 798:	65636e4f 	strbvs	r6, [r3, #-3663]!	; 0xfffff1b1
 79c:	7300632e 	movwvc	r6, #814	; 0x32e
 7a0:	69746365 	ldmdbvs	r4!, {r0, r2, r5, r6, r8, r9, sp, lr}^
 7a4:	6c416e6f 	mcrrvs	14, 6, r6, r1, cr15
 7a8:	006e6769 	rsbeq	r6, lr, r9, ror #14
 7ac:	626d754e 	rsbvs	r7, sp, #327155712	; 0x13800000
 7b0:	55007265 	strpl	r7, [r0, #-613]	; 0xfffffd9b
 7b4:	31544e49 	cmpcc	r4, r9, asr #28
 7b8:	6c460036 	mcrrvs	0, 3, r0, r6, cr6
 7bc:	50687361 	rsbpl	r7, r8, r1, ror #6
 7c0:	72676f72 	rsbvc	r6, r7, #456	; 0x1c8
 7c4:	65536d61 	ldrbvs	r6, [r3, #-3425]	; 0xfffff29f
 7c8:	6f697463 	svcvs	0x00697463
 7cc:	2e2e006e 	cdpcs	0, 2, cr0, cr14, cr14, {3}
 7d0:	616c462f 	cmnvs	ip, pc, lsr #12
 7d4:	72506873 	subsvc	r6, r0, #7536640	; 0x730000
 7d8:	6172676f 	cmnvs	r2, pc, ror #14
 7dc:	6365536d 	cmnvs	r5, #-1275068415	; 0xb4000001
 7e0:	6e6f6974 	mcrvs	9, 3, r6, cr15, cr4, {3}
 7e4:	4600632e 	strmi	r6, [r0], -lr, lsr #6
 7e8:	6873616c 	ldmdavs	r3!, {r2, r3, r5, r6, r8, sp, lr}^
 7ec:	64616552 	strbtvs	r6, [r1], #-1362	; 0xfffffaae
 7f0:	65636e4f 	strbvs	r6, [r3, #-3663]!	; 0xfffff1b1
 7f4:	2f2e2e00 	svccs	0x002e2e00
 7f8:	73616c46 	cmnvc	r1, #17920	; 0x4600
 7fc:	61655268 	cmnvs	r5, r8, ror #4
 800:	636e4f64 	cmnvs	lr, #100, 30	; 0x190
 804:	00632e65 	rsbeq	r2, r3, r5, ror #28
 808:	462f2e2e 	strtmi	r2, [pc], -lr, lsr #28
 80c:	6873616c 	ldmdavs	r3!, {r2, r3, r5, r6, r8, sp, lr}^
 810:	64616552 	strbtvs	r6, [r1], #-1362	; 0xfffffaae
 814:	6f736552 	svcvs	0x00736552
 818:	65637275 	strbvs	r7, [r3, #-629]!	; 0xfffffd8b
 81c:	4600632e 	strmi	r6, [r0], -lr, lsr #6
 820:	6873616c 	ldmdavs	r3!, {r2, r3, r5, r6, r8, sp, lr}^
 824:	64616552 	strbtvs	r6, [r1], #-1362	; 0xfffffaae
 828:	6f736552 	svcvs	0x00736552
 82c:	65637275 	strbvs	r7, [r3, #-629]!	; 0xfffffd8b
 830:	616c4600 	cmnvs	ip, r0, lsl #12
 834:	65536873 	ldrbvs	r6, [r3, #-2163]	; 0xfffff78d
 838:	69727563 	ldmdbvs	r2!, {r0, r1, r5, r6, r8, sl, ip, sp, lr}^
 83c:	79427974 	stmdbvc	r2, {r2, r4, r5, r6, r8, fp, ip, sp, lr}^
 840:	73736170 	cmnvc	r3, #112, 2
 844:	79656b00 	stmdbvc	r5!, {r8, r9, fp, sp, lr}^
 848:	66667542 	strbtvs	r7, [r6], -r2, asr #10
 84c:	2e007265 	cdpcs	2, 0, cr7, cr0, cr5, {3}
 850:	6c462f2e 	mcrrvs	15, 2, r2, r6, cr14
 854:	53687361 	cmnpl	r8, #-2080374783	; 0x84000001
 858:	72756365 	rsbsvc	r6, r5, #-1811939327	; 0x94000001
 85c:	42797469 	rsbsmi	r7, r9, #1761607680	; 0x69000000
 860:	73617079 	cmnvc	r1, #121	; 0x79
 864:	00632e73 	rsbeq	r2, r3, r3, ror lr
 868:	73616c46 	cmnvc	r1, #17920	; 0x4600
 86c:	74655368 	strbtvc	r5, [r5], #-872	; 0xfffffc98
 870:	65746e49 	ldrbvs	r6, [r4, #-3657]!	; 0xfffff1b7
 874:	70757272 	rsbsvc	r7, r5, r2, ror r2
 878:	616e4574 	smcvs	58452	; 0xe454
 87c:	00656c62 	rsbeq	r6, r5, r2, ror #24
 880:	462f2e2e 	strtmi	r2, [pc], -lr, lsr #28
 884:	6873616c 	ldmdavs	r3!, {r2, r3, r5, r6, r8, sp, lr}^
 888:	49746553 	ldmdbmi	r4!, {r0, r1, r4, r6, r8, sl, sp, lr}^
 88c:	7265746e 	rsbvc	r7, r5, #1845493760	; 0x6e000000
 890:	74707572 	ldrbtvc	r7, [r0], #-1394	; 0xfffffa8e
 894:	62616e45 	rsbvs	r6, r1, #1104	; 0x450
 898:	632e656c 	teqvs	lr, #108, 10	; 0x1b000000
 89c:	616c4600 	cmnvs	ip, r0, lsl #12
 8a0:	65566873 	ldrbvs	r6, [r6, #-2163]	; 0xfffff78d
 8a4:	79666972 	stmdbvc	r6!, {r1, r4, r5, r6, r8, fp, sp, lr}^
 8a8:	426c6c41 	rsbmi	r6, ip, #16640	; 0x4100
 8ac:	6b636f6c 	blvs	18dc664 <FlashDriver+0x18da8a0>
 8b0:	2f2e2e00 	svccs	0x002e2e00
 8b4:	73616c46 	cmnvc	r1, #17920	; 0x4600
 8b8:	72655668 	rsbvc	r5, r5, #104, 12	; 0x6800000
 8bc:	41796669 	cmnmi	r9, r9, ror #12
 8c0:	6c426c6c 	mcrrvs	12, 6, r6, r2, cr12
 8c4:	2e6b636f 	cdpcs	3, 6, cr6, cr11, cr15, {3}
 8c8:	6c460063 	mcrrvs	0, 6, r0, r6, cr3
 8cc:	56687361 	strbtpl	r7, [r8], -r1, ror #6
 8d0:	66697265 	strbtvs	r7, [r9], -r5, ror #4
 8d4:	6f6c4279 	svcvs	0x006c4279
 8d8:	2e006b63 	vmlscs.f64	d6, d0, d19
 8dc:	6c462f2e 	mcrrvs	15, 2, r2, r6, cr14
 8e0:	56687361 	strbtpl	r7, [r8], -r1, ror #6
 8e4:	66697265 	strbtvs	r7, [r9], -r5, ror #4
 8e8:	6f6c4279 	svcvs	0x006c4279
 8ec:	632e6b63 	teqvs	lr, #101376	; 0x18c00
 8f0:	616c4600 	cmnvs	ip, r0, lsl #12
 8f4:	65566873 	ldrbvs	r6, [r6, #-2163]	; 0xfffff78d
 8f8:	79666972 	stmdbvc	r6!, {r1, r4, r5, r6, r8, fp, sp, lr}^
 8fc:	74636553 	strbtvc	r6, [r3], #-1363	; 0xfffffaad
 900:	006e6f69 	rsbeq	r6, lr, r9, ror #30
 904:	462f2e2e 	strtmi	r2, [pc], -lr, lsr #28
 908:	6873616c 	ldmdavs	r3!, {r2, r3, r5, r6, r8, sp, lr}^
 90c:	69726556 	ldmdbvs	r2!, {r1, r2, r4, r6, r8, sl, sp, lr}^
 910:	65537966 	ldrbvs	r7, [r3, #-2406]	; 0xfffff69a
 914:	6f697463 	svcvs	0x00697463
 918:	00632e6e 	rsbeq	r2, r3, lr, ror #28
 91c:	616c4650 	cmnvs	ip, r0, asr r6
 920:	65476873 	strbvs	r6, [r7, #-2163]	; 0xfffff78d
 924:	6f725074 	svcvs	0x00725074
 928:	74636574 	strbtvc	r6, [r3], #-1396	; 0xfffffa8c
 92c:	006e6f69 	rsbeq	r6, lr, r9, ror #30
 930:	502f2e2e 	eorpl	r2, pc, lr, lsr #28
 934:	73616c46 	cmnvc	r1, #17920	; 0x4600
 938:	74654768 	strbtvc	r4, [r5], #-1896	; 0xfffff898
 93c:	746f7250 	strbtvc	r7, [pc], #-592	; 944 <FlashEraseAllBlock+0x20>
 940:	69746365 	ldmdbvs	r4!, {r0, r2, r5, r6, r8, r9, sp, lr}^
 944:	632e6e6f 	teqvs	lr, #1776	; 0x6f0
 948:	67657200 	strbvs	r7, [r5, -r0, lsl #4]!
 94c:	65747369 	ldrbvs	r7, [r4, #-873]!	; 0xfffffc97
 950:	6c615672 	stclvs	6, cr5, [r1], #-456	; 0xfffffe38
 954:	00306575 	eorseq	r6, r0, r5, ror r5
 958:	69676572 	stmdbvs	r7!, {r1, r4, r5, r6, r8, sl, sp, lr}^
 95c:	72657473 	rsbvc	r7, r5, #1929379840	; 0x73000000
 960:	756c6156 	strbvc	r6, [ip, #-342]!	; 0xfffffeaa
 964:	72003165 	andvc	r3, r0, #1073741849	; 0x40000019
 968:	73696765 	cmnvc	r9, #26476544	; 0x1940000
 96c:	56726574 			; <UNDEFINED> instruction: 0x56726574
 970:	65756c61 	ldrbvs	r6, [r5, #-3169]!	; 0xfffff39f
 974:	65720032 	ldrbvs	r0, [r2, #-50]!	; 0xffffffce
 978:	74736967 	ldrbtvc	r6, [r3], #-2407	; 0xfffff699
 97c:	61567265 	cmpvs	r6, r5, ror #4
 980:	3365756c 	cmncc	r5, #108, 10	; 0x1b000000
 984:	75437000 	strbvc	r7, [r3, #-0]
 988:	6e657272 	mcrvs	2, 3, r7, cr5, cr2, {3}
 98c:	61775374 	cmnvs	r7, r4, ror r3
 990:	6f6c4270 	svcvs	0x006c4270
 994:	74536b63 	ldrbvc	r6, [r3], #-2915	; 0xfffff49d
 998:	73757461 	cmnvc	r5, #1627389952	; 0x61000000
 99c:	616c6600 	cmnvs	ip, r0, lsl #12
 9a0:	64416873 	strbvs	r6, [r1], #-2163	; 0xfffff78d
 9a4:	73657264 	cmnvc	r5, #100, 4	; 0x40000006
 9a8:	4e700073 	mrcmi	0, 3, r0, cr0, cr3, {3}
 9ac:	53747865 	cmnpl	r4, #6619136	; 0x650000
 9b0:	42706177 	rsbsmi	r6, r0, #-1073741795	; 0xc000001d
 9b4:	6b636f6c 	blvs	18dc76c <FlashDriver+0x18da9a8>
 9b8:	74617453 	strbtvc	r7, [r1], #-1107	; 0xfffffbad
 9bc:	2e007375 	mcrcs	3, 0, r7, cr0, cr5, {3}
 9c0:	46502f2e 	ldrbmi	r2, [r0], -lr, lsr #30
 9c4:	6873616c 	ldmdavs	r3!, {r2, r3, r5, r6, r8, sp, lr}^
 9c8:	53746547 	cmnpl	r4, #297795584	; 0x11c00000
 9cc:	53706177 	cmnpl	r0, #-1073741795	; 0xc000001d
 9d0:	75746174 	ldrbvc	r6, [r4, #-372]!	; 0xfffffe8c
 9d4:	00632e73 	rsbeq	r2, r3, r3, ror lr
 9d8:	616c4650 	cmnvs	ip, r0, asr r6
 9dc:	65476873 	strbvs	r6, [r7, #-2163]	; 0xfffff78d
 9e0:	61775374 	cmnvs	r7, r4, ror r3
 9e4:	61745370 	cmnvs	r4, r0, ror r3
 9e8:	00737574 	rsbseq	r7, r3, r4, ror r5
 9ec:	72754370 	rsbsvc	r4, r5, #112, 6	; 0xc0000001
 9f0:	746e6572 	strbtvc	r6, [lr], #-1394	; 0xfffffa8e
 9f4:	70617753 	rsbvc	r7, r1, r3, asr r7
 9f8:	65646f4d 	strbvs	r6, [r4, #-3917]!	; 0xfffff0b3
 9fc:	6c465000 	marvs	acc0, r5, r6
 a00:	53687361 	cmnpl	r8, #-2080374783	; 0x84000001
 a04:	72507465 	subsvc	r7, r0, #1694498816	; 0x65000000
 a08:	6365746f 	cmnvs	r5, #1862270976	; 0x6f000000
 a0c:	6e6f6974 	mcrvs	9, 3, r6, cr15, cr4, {3}
 a10:	2f2e2e00 	svccs	0x002e2e00
 a14:	616c4650 	cmnvs	ip, r0, asr r6
 a18:	65536873 	ldrbvs	r6, [r3, #-2163]	; 0xfffff78d
 a1c:	6f725074 	svcvs	0x00725074
 a20:	74636574 	strbtvc	r6, [r3], #-1396	; 0xfffffa8c
 a24:	2e6e6f69 	cdpcs	15, 6, cr6, cr14, cr9, {3}
 a28:	77730063 	ldrbvc	r0, [r3, -r3, rrx]!
 a2c:	6d637061 	stclvs	0, cr7, [r3, #-388]!	; 0xfffffe7c
 a30:	75630064 	strbvc	r0, [r3, #-100]!	; 0xffffff9c
 a34:	6e657272 	mcrvs	2, 3, r7, cr5, cr2, {3}
 a38:	61775374 	cmnvs	r7, r4, ror r3
 a3c:	646f4d70 	strbtvs	r4, [pc], #-3440	; a44 <FlashEraseSector0+0xc>
 a40:	46500065 	ldrbmi	r0, [r0], -r5, rrx
 a44:	6873616c 	ldmdavs	r3!, {r2, r3, r5, r6, r8, sp, lr}^
 a48:	70617753 	rsbvc	r7, r1, r3, asr r7
 a4c:	2f2e2e00 	svccs	0x002e2e00
 a50:	616c4650 	cmnvs	ip, r0, asr r6
 a54:	77536873 			; <UNDEFINED> instruction: 0x77536873
 a58:	632e7061 	teqvs	lr, #97	; 0x61
 a5c:	46505f00 	ldrbmi	r5, [r0], -r0, lsl #30
 a60:	6873616c 	ldmdavs	r3!, {r2, r3, r5, r6, r8, sp, lr}^
 a64:	73617245 	cmnvc	r1, #1342177284	; 0x50000004
 a68:	63655365 	cmnvs	r5, #-1811939327	; 0x94000001
 a6c:	00726f74 	rsbseq	r6, r2, r4, ror pc
 a70:	6c46505f 	mcrrvs	0, 5, r5, r6, cr15
 a74:	53687361 	cmnpl	r8, #-2080374783	; 0x84000001
 a78:	43706177 	cmnmi	r0, #-1073741795	; 0xc000001d
 a7c:	2e006c74 	mcrcs	12, 0, r6, cr0, cr4, {3}
 a80:	65532f2e 	ldrbvs	r2, [r3, #-3886]	; 0xfffff0d2
 a84:	45454574 	strbmi	r4, [r5, #-1396]	; 0xfffffa8c
 a88:	62616e45 	rsbvs	r6, r1, #1104	; 0x450
 a8c:	632e656c 	teqvs	lr, #108, 10	; 0x1b000000
 a90:	74655300 	strbtvc	r5, [r5], #-768	; 0xfffffd00
 a94:	45454545 	strbmi	r4, [r5, #-1349]	; 0xfffffabb
 a98:	6c62616e 	stfvse	f6, [r2], #-440	; 0xfffffe48
 a9c:	Address 0x00000a9c is out of bounds.


Disassembly of section .comment:

00000000 <.comment>:
   0:	3a434347 	bcc	10d0d24 <FlashDriver+0x10cef60>
   4:	6f532820 	svcvs	0x00532820
   8:	65637275 	strbvs	r7, [r3, #-629]!	; 0xfffffd8b
   c:	43207972 	teqmi	r0, #1867776	; 0x1c8000
  10:	4265646f 	rsbmi	r6, r5, #1862270976	; 0x6f000000
  14:	68636e65 	stmdavs	r3!, {r0, r2, r5, r6, r9, sl, fp, sp, lr}^
  18:	74694c20 	strbtvc	r4, [r9], #-3104	; 0xfffff3e0
  1c:	30322065 	eorscc	r2, r2, r5, rrx
  20:	302e3331 	eorcc	r3, lr, r1, lsr r3
  24:	33322d35 	teqcc	r2, #3392	; 0xd40
  28:	2e342029 	cdpcs	0, 3, cr2, cr4, cr9, {1}
  2c:	00332e37 	eorseq	r2, r3, r7, lsr lr

Disassembly of section .ARM.attributes:

00000000 <.ARM.attributes>:
   0:	00003241 	andeq	r3, r0, r1, asr #4
   4:	61656100 	cmnvs	r5, r0, lsl #2
   8:	01006962 	tsteq	r0, r2, ror #18
   c:	00000028 	andeq	r0, r0, r8, lsr #32
  10:	726f4305 	rsbvc	r4, pc, #335544320	; 0x14000000
  14:	2d786574 	cfldr64cs	mvdx6, [r8, #-464]!	; 0xfffffe30
  18:	0600344d 	streq	r3, [r0], -sp, asr #8
  1c:	094d070d 	stmdbeq	sp, {r0, r2, r3, r8, r9, sl}^
  20:	14041202 	strne	r1, [r4], #-514	; 0xfffffdfe
  24:	17011501 	strne	r1, [r1, -r1, lsl #10]
  28:	19011803 	stmdbne	r1, {r0, r1, fp, ip}
  2c:	1e011a01 	vmlane.f32	s2, s2, s2
  30:	Address 0x00000030 is out of bounds.


Disassembly of section .debug_frame:

00000000 <.debug_frame>:
   0:	0000000c 	andeq	r0, r0, ip
   4:	ffffffff 			; <UNDEFINED> instruction: 0xffffffff
   8:	7c020001 	stcvc	0, cr0, [r2], {1}
   c:	000d0c0e 	andeq	r0, sp, lr, lsl #24
  10:	0000000c 	andeq	r0, r0, ip
	...
  1c:	00000002 	andeq	r0, r0, r2
  20:	0000001c 	andeq	r0, r0, ip, lsl r0
  24:	00000000 	andeq	r0, r0, r0
  28:	00000004 	andeq	r0, r0, r4
  2c:	0000002c 	andeq	r0, r0, ip, lsr #32
  30:	87080e41 	strhi	r0, [r8, -r1, asr #28]
  34:	41018e02 	tstmi	r1, r2, lsl #28
  38:	0d41200e 	stcleq	0, cr2, [r1, #-56]	; 0xffffffc8
  3c:	00000007 	andeq	r0, r0, r7
  40:	0000000c 	andeq	r0, r0, ip
  44:	ffffffff 			; <UNDEFINED> instruction: 0xffffffff
  48:	7c020001 	stcvc	0, cr0, [r2], {1}
  4c:	000d0c0e 	andeq	r0, sp, lr, lsl #24
  50:	0000001c 	andeq	r0, r0, ip, lsl r0
  54:	00000040 	andeq	r0, r0, r0, asr #32
  58:	00000030 	andeq	r0, r0, r0, lsr r0
  5c:	00000042 	andeq	r0, r0, r2, asr #32
  60:	87080e41 	strhi	r0, [r8, -r1, asr #28]
  64:	41018e02 	tstmi	r1, r2, lsl #28
  68:	0d41280e 	stcleq	8, cr2, [r1, #-56]	; 0xffffffc8
  6c:	00000007 	andeq	r0, r0, r7
  70:	0000000c 	andeq	r0, r0, ip
  74:	ffffffff 			; <UNDEFINED> instruction: 0xffffffff
  78:	7c020001 	stcvc	0, cr0, [r2], {1}
  7c:	000d0c0e 	andeq	r0, sp, lr, lsl #24
  80:	00000018 	andeq	r0, r0, r8, lsl r0
  84:	00000070 	andeq	r0, r0, r0, ror r0
  88:	00000074 	andeq	r0, r0, r4, ror r0
  8c:	0000003e 	andeq	r0, r0, lr, lsr r0
  90:	87040e41 	strhi	r0, [r4, -r1, asr #28]
  94:	180e4101 	stmdane	lr, {r0, r8, lr}
  98:	00070d41 	andeq	r0, r7, r1, asr #26
  9c:	0000000c 	andeq	r0, r0, ip
  a0:	ffffffff 			; <UNDEFINED> instruction: 0xffffffff
  a4:	7c020001 	stcvc	0, cr0, [r2], {1}
  a8:	000d0c0e 	andeq	r0, sp, lr, lsl #24
  ac:	00000018 	andeq	r0, r0, r8, lsl r0
  b0:	0000009c 	muleq	r0, ip, r0
  b4:	000000b4 	strheq	r0, [r0], -r4
  b8:	000000a8 	andeq	r0, r0, r8, lsr #1
  bc:	87040e41 	strhi	r0, [r4, -r1, asr #28]
  c0:	180e4101 	stmdane	lr, {r0, r8, lr}
  c4:	00070d41 	andeq	r0, r7, r1, asr #26
  c8:	0000000c 	andeq	r0, r0, ip
  cc:	ffffffff 			; <UNDEFINED> instruction: 0xffffffff
  d0:	7c020001 	stcvc	0, cr0, [r2], {1}
  d4:	000d0c0e 	andeq	r0, sp, lr, lsl #24
  d8:	00000018 	andeq	r0, r0, r8, lsl r0
  dc:	000000c8 	andeq	r0, r0, r8, asr #1
  e0:	0000015c 	andeq	r0, r0, ip, asr r1
  e4:	000000be 	strheq	r0, [r0], -lr
  e8:	87040e41 	strhi	r0, [r4, -r1, asr #28]
  ec:	200e4101 	andcs	r4, lr, r1, lsl #2
  f0:	00070d41 	andeq	r0, r7, r1, asr #26
  f4:	0000000c 	andeq	r0, r0, ip
  f8:	ffffffff 			; <UNDEFINED> instruction: 0xffffffff
  fc:	7c020001 	stcvc	0, cr0, [r2], {1}
 100:	000d0c0e 	andeq	r0, sp, lr, lsl #24
 104:	00000018 	andeq	r0, r0, r8, lsl r0
 108:	000000f4 	strdeq	r0, [r0], -r4
 10c:	0000021c 	andeq	r0, r0, ip, lsl r2
 110:	0000004c 	andeq	r0, r0, ip, asr #32
 114:	87040e41 	strhi	r0, [r4, -r1, asr #28]
 118:	180e4101 	stmdane	lr, {r0, r8, lr}
 11c:	00070d41 	andeq	r0, r7, r1, asr #26
 120:	0000000c 	andeq	r0, r0, ip
 124:	ffffffff 			; <UNDEFINED> instruction: 0xffffffff
 128:	7c020001 	stcvc	0, cr0, [r2], {1}
 12c:	000d0c0e 	andeq	r0, sp, lr, lsl #24
 130:	00000018 	andeq	r0, r0, r8, lsl r0
 134:	00000120 	andeq	r0, r0, r0, lsr #2
 138:	00000268 	andeq	r0, r0, r8, ror #4
 13c:	000000b4 	strheq	r0, [r0], -r4
 140:	87040e41 	strhi	r0, [r4, -r1, asr #28]
 144:	180e4101 	stmdane	lr, {r0, r8, lr}
 148:	00070d41 	andeq	r0, r7, r1, asr #26
 14c:	0000000c 	andeq	r0, r0, ip
 150:	ffffffff 			; <UNDEFINED> instruction: 0xffffffff
 154:	7c020001 	stcvc	0, cr0, [r2], {1}
 158:	000d0c0e 	andeq	r0, sp, lr, lsl #24
 15c:	0000001c 	andeq	r0, r0, ip, lsl r0
 160:	0000014c 	andeq	r0, r0, ip, asr #2
 164:	0000031c 	andeq	r0, r0, ip, lsl r3
 168:	0000015e 	andeq	r0, r0, lr, asr r1
 16c:	87080e41 	strhi	r0, [r8, -r1, asr #28]
 170:	41018e02 	tstmi	r1, r2, lsl #28
 174:	0d41300e 	stcleq	0, cr3, [r1, #-56]	; 0xffffffc8
 178:	00000007 	andeq	r0, r0, r7
 17c:	0000001c 	andeq	r0, r0, ip, lsl r0
 180:	0000014c 	andeq	r0, r0, ip, asr #2
 184:	0000047c 	andeq	r0, r0, ip, ror r4
 188:	000000d0 	ldrdeq	r0, [r0], -r0	; <UNPREDICTABLE>
 18c:	87080e41 	strhi	r0, [r8, -r1, asr #28]
 190:	41018e02 	tstmi	r1, r2, lsl #28
 194:	0d41180e 	stcleq	8, cr1, [r1, #-56]	; 0xffffffc8
 198:	00000007 	andeq	r0, r0, r7
 19c:	00000018 	andeq	r0, r0, r8, lsl r0
 1a0:	0000014c 	andeq	r0, r0, ip, asr #2
 1a4:	0000054c 	andeq	r0, r0, ip, asr #10
 1a8:	00000018 	andeq	r0, r0, r8, lsl r0
 1ac:	87040e41 	strhi	r0, [r4, -r1, asr #28]
 1b0:	100e4101 	andne	r4, lr, r1, lsl #2
 1b4:	00070d41 	andeq	r0, r7, r1, asr #26
 1b8:	0000001c 	andeq	r0, r0, ip, lsl r0
 1bc:	0000014c 	andeq	r0, r0, ip, asr #2
 1c0:	00000564 	andeq	r0, r0, r4, ror #10
 1c4:	00000044 	andeq	r0, r0, r4, asr #32
 1c8:	87080e41 	strhi	r0, [r8, -r1, asr #28]
 1cc:	41018e02 	tstmi	r1, r2, lsl #28
 1d0:	0d41100e 	stcleq	0, cr1, [r1, #-56]	; 0xffffffc8
 1d4:	00000007 	andeq	r0, r0, r7
 1d8:	0000001c 	andeq	r0, r0, ip, lsl r0
 1dc:	0000014c 	andeq	r0, r0, ip, asr #2
 1e0:	000005a8 	andeq	r0, r0, r8, lsr #11
 1e4:	00000068 	andeq	r0, r0, r8, rrx
 1e8:	87080e41 	strhi	r0, [r8, -r1, asr #28]
 1ec:	41018e02 	tstmi	r1, r2, lsl #28
 1f0:	0c41100e 	mcrreq	0, 0, r1, r1, cr14
 1f4:	00000807 	andeq	r0, r0, r7, lsl #16
 1f8:	0000001c 	andeq	r0, r0, ip, lsl r0
 1fc:	0000014c 	andeq	r0, r0, ip, asr #2
 200:	00000610 	andeq	r0, r0, r0, lsl r6
 204:	00000054 	andeq	r0, r0, r4, asr r0
 208:	87080e41 	strhi	r0, [r8, -r1, asr #28]
 20c:	41018e02 	tstmi	r1, r2, lsl #28
 210:	0c41200e 	mcrreq	0, 0, r2, r1, cr14
 214:	00001807 	andeq	r1, r0, r7, lsl #16
 218:	0000000c 	andeq	r0, r0, ip
 21c:	ffffffff 			; <UNDEFINED> instruction: 0xffffffff
 220:	7c020001 	stcvc	0, cr0, [r2], {1}
 224:	000d0c0e 	andeq	r0, sp, lr, lsl #24
 228:	0000001c 	andeq	r0, r0, ip, lsl r0
 22c:	00000218 	andeq	r0, r0, r8, lsl r2
 230:	00000664 	andeq	r0, r0, r4, ror #12
 234:	000000ca 	andeq	r0, r0, sl, asr #1
 238:	87080e41 	strhi	r0, [r8, -r1, asr #28]
 23c:	41018e02 	tstmi	r1, r2, lsl #28
 240:	0d41280e 	stcleq	8, cr2, [r1, #-56]	; 0xffffffc8
 244:	00000007 	andeq	r0, r0, r7
 248:	0000000c 	andeq	r0, r0, ip
 24c:	ffffffff 			; <UNDEFINED> instruction: 0xffffffff
 250:	7c020001 	stcvc	0, cr0, [r2], {1}
 254:	000d0c0e 	andeq	r0, sp, lr, lsl #24
 258:	0000001c 	andeq	r0, r0, ip, lsl r0
 25c:	00000248 	andeq	r0, r0, r8, asr #4
 260:	00000730 	andeq	r0, r0, r0, lsr r7
 264:	000001f4 	strdeq	r0, [r0], -r4
 268:	87080e41 	strhi	r0, [r8, -r1, asr #28]
 26c:	41018e02 	tstmi	r1, r2, lsl #28
 270:	0d41280e 	stcleq	8, cr2, [r1, #-56]	; 0xffffffc8
 274:	00000007 	andeq	r0, r0, r7
 278:	0000000c 	andeq	r0, r0, ip
 27c:	ffffffff 			; <UNDEFINED> instruction: 0xffffffff
 280:	7c020001 	stcvc	0, cr0, [r2], {1}
 284:	000d0c0e 	andeq	r0, sp, lr, lsl #24
 288:	0000001c 	andeq	r0, r0, ip, lsl r0
 28c:	00000278 	andeq	r0, r0, r8, ror r2
 290:	00000924 	andeq	r0, r0, r4, lsr #18
 294:	00000032 	andeq	r0, r0, r2, lsr r0
 298:	87080e41 	strhi	r0, [r8, -r1, asr #28]
 29c:	41018e02 	tstmi	r1, r2, lsl #28
 2a0:	0d41180e 	stcleq	8, cr1, [r1, #-56]	; 0xffffffc8
 2a4:	00000007 	andeq	r0, r0, r7
 2a8:	0000000c 	andeq	r0, r0, ip
 2ac:	ffffffff 			; <UNDEFINED> instruction: 0xffffffff
 2b0:	7c020001 	stcvc	0, cr0, [r2], {1}
 2b4:	000d0c0e 	andeq	r0, sp, lr, lsl #24
 2b8:	0000001c 	andeq	r0, r0, ip, lsl r0
 2bc:	000002a8 	andeq	r0, r0, r8, lsr #5
 2c0:	00000958 	andeq	r0, r0, r8, asr r9
 2c4:	000000b6 	strheq	r0, [r0], -r6
 2c8:	87080e41 	strhi	r0, [r8, -r1, asr #28]
 2cc:	41018e02 	tstmi	r1, r2, lsl #28
 2d0:	0d41200e 	stcleq	0, cr2, [r1, #-56]	; 0xffffffc8
 2d4:	00000007 	andeq	r0, r0, r7
 2d8:	0000000c 	andeq	r0, r0, ip
 2dc:	ffffffff 			; <UNDEFINED> instruction: 0xffffffff
 2e0:	7c020001 	stcvc	0, cr0, [r2], {1}
 2e4:	000d0c0e 	andeq	r0, sp, lr, lsl #24
 2e8:	00000018 	andeq	r0, r0, r8, lsl r0
 2ec:	000002d8 	ldrdeq	r0, [r0], -r8
 2f0:	00000a10 	andeq	r0, r0, r0, lsl sl
 2f4:	00000026 	andeq	r0, r0, r6, lsr #32
 2f8:	87040e41 	strhi	r0, [r4, -r1, asr #28]
 2fc:	180e4101 	stmdane	lr, {r0, r8, lr}
 300:	00070d41 	andeq	r0, r7, r1, asr #26
 304:	0000000c 	andeq	r0, r0, ip
 308:	ffffffff 			; <UNDEFINED> instruction: 0xffffffff
 30c:	7c020001 	stcvc	0, cr0, [r2], {1}
 310:	000d0c0e 	andeq	r0, sp, lr, lsl #24
 314:	0000001c 	andeq	r0, r0, ip, lsl r0
 318:	00000304 	andeq	r0, r0, r4, lsl #6
 31c:	00000a38 	andeq	r0, r0, r8, lsr sl
 320:	0000007c 	andeq	r0, r0, ip, ror r0
 324:	87080e41 	strhi	r0, [r8, -r1, asr #28]
 328:	41018e02 	tstmi	r1, r2, lsl #28
 32c:	0d41280e 	stcleq	8, cr2, [r1, #-56]	; 0xffffffc8
 330:	00000007 	andeq	r0, r0, r7
 334:	0000000c 	andeq	r0, r0, ip
 338:	ffffffff 			; <UNDEFINED> instruction: 0xffffffff
 33c:	7c020001 	stcvc	0, cr0, [r2], {1}
 340:	000d0c0e 	andeq	r0, sp, lr, lsl #24
 344:	00000018 	andeq	r0, r0, r8, lsl r0
 348:	00000334 	andeq	r0, r0, r4, lsr r3
 34c:	00000ab4 			; <UNDEFINED> instruction: 0x00000ab4
 350:	00000048 	andeq	r0, r0, r8, asr #32
 354:	87040e41 	strhi	r0, [r4, -r1, asr #28]
 358:	180e4101 	stmdane	lr, {r0, r8, lr}
 35c:	00070d41 	andeq	r0, r7, r1, asr #26
 360:	0000000c 	andeq	r0, r0, ip
 364:	ffffffff 			; <UNDEFINED> instruction: 0xffffffff
 368:	7c020001 	stcvc	0, cr0, [r2], {1}
 36c:	000d0c0e 	andeq	r0, sp, lr, lsl #24
 370:	00000018 	andeq	r0, r0, r8, lsl r0
 374:	00000360 	andeq	r0, r0, r0, ror #6
 378:	00000afc 	strdeq	r0, [r0], -ip
 37c:	00000046 	andeq	r0, r0, r6, asr #32
 380:	87040e41 	strhi	r0, [r4, -r1, asr #28]
 384:	180e4101 	stmdane	lr, {r0, r8, lr}
 388:	00070d41 	andeq	r0, r7, r1, asr #26
 38c:	0000000c 	andeq	r0, r0, ip
 390:	ffffffff 			; <UNDEFINED> instruction: 0xffffffff
 394:	7c020001 	stcvc	0, cr0, [r2], {1}
 398:	000d0c0e 	andeq	r0, sp, lr, lsl #24
 39c:	00000018 	andeq	r0, r0, r8, lsl r0
 3a0:	0000038c 	andeq	r0, r0, ip, lsl #7
 3a4:	00000b44 	andeq	r0, r0, r4, asr #22
 3a8:	00000056 	andeq	r0, r0, r6, asr r0
 3ac:	87040e41 	strhi	r0, [r4, -r1, asr #28]
 3b0:	180e4101 	stmdane	lr, {r0, r8, lr}
 3b4:	00070d41 	andeq	r0, r7, r1, asr #26
 3b8:	0000000c 	andeq	r0, r0, ip
 3bc:	ffffffff 			; <UNDEFINED> instruction: 0xffffffff
 3c0:	7c020001 	stcvc	0, cr0, [r2], {1}
 3c4:	000d0c0e 	andeq	r0, sp, lr, lsl #24
 3c8:	00000018 	andeq	r0, r0, r8, lsl r0
 3cc:	000003b8 			; <UNDEFINED> instruction: 0x000003b8
 3d0:	00000b9c 	muleq	r0, ip, fp
 3d4:	000002a0 	andeq	r0, r0, r0, lsr #5
 3d8:	87040e41 	strhi	r0, [r4, -r1, asr #28]
 3dc:	180e4101 	stmdane	lr, {r0, r8, lr}
 3e0:	00070d41 	andeq	r0, r7, r1, asr #26
 3e4:	0000000c 	andeq	r0, r0, ip
 3e8:	ffffffff 			; <UNDEFINED> instruction: 0xffffffff
 3ec:	7c020001 	stcvc	0, cr0, [r2], {1}
 3f0:	000d0c0e 	andeq	r0, sp, lr, lsl #24
 3f4:	0000001c 	andeq	r0, r0, ip, lsl r0
 3f8:	000003e4 	andeq	r0, r0, r4, ror #7
 3fc:	00000e3c 	andeq	r0, r0, ip, lsr lr
 400:	00000172 	andeq	r0, r0, r2, ror r1
 404:	87080e41 	strhi	r0, [r8, -r1, asr #28]
 408:	41018e02 	tstmi	r1, r2, lsl #28
 40c:	0d41280e 	stcleq	8, cr2, [r1, #-56]	; 0xffffffc8
 410:	00000007 	andeq	r0, r0, r7
 414:	0000000c 	andeq	r0, r0, ip
 418:	ffffffff 			; <UNDEFINED> instruction: 0xffffffff
 41c:	7c020001 	stcvc	0, cr0, [r2], {1}
 420:	000d0c0e 	andeq	r0, sp, lr, lsl #24
 424:	0000001c 	andeq	r0, r0, ip, lsl r0
 428:	00000414 	andeq	r0, r0, r4, lsl r4
 42c:	00000fb0 			; <UNDEFINED> instruction: 0x00000fb0
 430:	000000c2 	andeq	r0, r0, r2, asr #1
 434:	87080e41 	strhi	r0, [r8, -r1, asr #28]
 438:	41018e02 	tstmi	r1, r2, lsl #28
 43c:	0d41280e 	stcleq	8, cr2, [r1, #-56]	; 0xffffffc8
 440:	00000007 	andeq	r0, r0, r7
 444:	0000000c 	andeq	r0, r0, ip
 448:	ffffffff 			; <UNDEFINED> instruction: 0xffffffff
 44c:	7c020001 	stcvc	0, cr0, [r2], {1}
 450:	000d0c0e 	andeq	r0, sp, lr, lsl #24
 454:	0000001c 	andeq	r0, r0, ip, lsl r0
 458:	00000444 	andeq	r0, r0, r4, asr #8
 45c:	00001074 	andeq	r1, r0, r4, ror r0
 460:	000000cc 	andeq	r0, r0, ip, asr #1
 464:	87080e41 	strhi	r0, [r8, -r1, asr #28]
 468:	41018e02 	tstmi	r1, r2, lsl #28
 46c:	0d41300e 	stcleq	0, cr3, [r1, #-56]	; 0xffffffc8
 470:	00000007 	andeq	r0, r0, r7
 474:	0000000c 	andeq	r0, r0, ip
 478:	ffffffff 			; <UNDEFINED> instruction: 0xffffffff
 47c:	7c020001 	stcvc	0, cr0, [r2], {1}
 480:	000d0c0e 	andeq	r0, sp, lr, lsl #24
 484:	0000001c 	andeq	r0, r0, ip, lsl r0
 488:	00000474 	andeq	r0, r0, r4, ror r4
 48c:	00001140 	andeq	r1, r0, r0, asr #2
 490:	00000168 	andeq	r0, r0, r8, ror #2
 494:	87080e41 	strhi	r0, [r8, -r1, asr #28]
 498:	41018e02 	tstmi	r1, r2, lsl #28
 49c:	0d41300e 	stcleq	0, cr3, [r1, #-56]	; 0xffffffc8
 4a0:	00000007 	andeq	r0, r0, r7
 4a4:	0000000c 	andeq	r0, r0, ip
 4a8:	ffffffff 			; <UNDEFINED> instruction: 0xffffffff
 4ac:	7c020001 	stcvc	0, cr0, [r2], {1}
 4b0:	000d0c0e 	andeq	r0, sp, lr, lsl #24
 4b4:	0000001c 	andeq	r0, r0, ip, lsl r0
 4b8:	000004a4 	andeq	r0, r0, r4, lsr #9
 4bc:	000012a8 	andeq	r1, r0, r8, lsr #5
 4c0:	000000d2 	ldrdeq	r0, [r0], -r2
 4c4:	87080e41 	strhi	r0, [r8, -r1, asr #28]
 4c8:	41018e02 	tstmi	r1, r2, lsl #28
 4cc:	0d41280e 	stcleq	8, cr2, [r1, #-56]	; 0xffffffc8
 4d0:	00000007 	andeq	r0, r0, r7
 4d4:	0000000c 	andeq	r0, r0, ip
 4d8:	ffffffff 			; <UNDEFINED> instruction: 0xffffffff
 4dc:	7c020001 	stcvc	0, cr0, [r2], {1}
 4e0:	000d0c0e 	andeq	r0, sp, lr, lsl #24
 4e4:	0000001c 	andeq	r0, r0, ip, lsl r0
 4e8:	000004d4 	ldrdeq	r0, [r0], -r4
 4ec:	0000137c 	andeq	r1, r0, ip, ror r3
 4f0:	00000110 	andeq	r0, r0, r0, lsl r1
 4f4:	87080e41 	strhi	r0, [r8, -r1, asr #28]
 4f8:	41018e02 	tstmi	r1, r2, lsl #28
 4fc:	0d41280e 	stcleq	8, cr2, [r1, #-56]	; 0xffffffc8
 500:	00000007 	andeq	r0, r0, r7
 504:	0000000c 	andeq	r0, r0, ip
 508:	ffffffff 			; <UNDEFINED> instruction: 0xffffffff
 50c:	7c020001 	stcvc	0, cr0, [r2], {1}
 510:	000d0c0e 	andeq	r0, sp, lr, lsl #24
 514:	0000001c 	andeq	r0, r0, ip, lsl r0
 518:	00000504 	andeq	r0, r0, r4, lsl #10
 51c:	0000148c 	andeq	r1, r0, ip, lsl #9
 520:	0000007e 	andeq	r0, r0, lr, ror r0
 524:	87080e41 	strhi	r0, [r8, -r1, asr #28]
 528:	41018e02 	tstmi	r1, r2, lsl #28
 52c:	0d41300e 	stcleq	0, cr3, [r1, #-56]	; 0xffffffc8
 530:	00000007 	andeq	r0, r0, r7
 534:	0000000c 	andeq	r0, r0, ip
 538:	ffffffff 			; <UNDEFINED> instruction: 0xffffffff
 53c:	7c020001 	stcvc	0, cr0, [r2], {1}
 540:	000d0c0e 	andeq	r0, sp, lr, lsl #24
 544:	00000018 	andeq	r0, r0, r8, lsl r0
 548:	00000534 	andeq	r0, r0, r4, lsr r5
 54c:	0000150c 	andeq	r1, r0, ip, lsl #10
 550:	0000004c 	andeq	r0, r0, ip, asr #32
 554:	87040e41 	strhi	r0, [r4, -r1, asr #28]
 558:	180e4101 	stmdane	lr, {r0, r8, lr}
 55c:	00070d41 	andeq	r0, r7, r1, asr #26
 560:	0000000c 	andeq	r0, r0, ip
 564:	ffffffff 			; <UNDEFINED> instruction: 0xffffffff
 568:	7c020001 	stcvc	0, cr0, [r2], {1}
 56c:	000d0c0e 	andeq	r0, sp, lr, lsl #24
 570:	0000001c 	andeq	r0, r0, ip, lsl r0
 574:	00000560 	andeq	r0, r0, r0, ror #10
 578:	00001558 	andeq	r1, r0, r8, asr r5
 57c:	0000003a 	andeq	r0, r0, sl, lsr r0
 580:	87080e41 	strhi	r0, [r8, -r1, asr #28]
 584:	41018e02 	tstmi	r1, r2, lsl #28
 588:	0d41200e 	stcleq	0, cr2, [r1, #-56]	; 0xffffffc8
 58c:	00000007 	andeq	r0, r0, r7
 590:	0000000c 	andeq	r0, r0, ip
 594:	ffffffff 			; <UNDEFINED> instruction: 0xffffffff
 598:	7c020001 	stcvc	0, cr0, [r2], {1}
 59c:	000d0c0e 	andeq	r0, sp, lr, lsl #24
 5a0:	0000001c 	andeq	r0, r0, ip, lsl r0
 5a4:	00000590 	muleq	r0, r0, r5
 5a8:	00001594 	muleq	r0, r4, r5
 5ac:	000000be 	strheq	r0, [r0], -lr
 5b0:	87080e41 	strhi	r0, [r8, -r1, asr #28]
 5b4:	41018e02 	tstmi	r1, r2, lsl #28
 5b8:	0d41280e 	stcleq	8, cr2, [r1, #-56]	; 0xffffffc8
 5bc:	00000007 	andeq	r0, r0, r7
 5c0:	0000000c 	andeq	r0, r0, ip
 5c4:	ffffffff 			; <UNDEFINED> instruction: 0xffffffff
 5c8:	7c020001 	stcvc	0, cr0, [r2], {1}
 5cc:	000d0c0e 	andeq	r0, sp, lr, lsl #24
 5d0:	0000001c 	andeq	r0, r0, ip, lsl r0
 5d4:	000005c0 	andeq	r0, r0, r0, asr #11
 5d8:	00001654 	andeq	r1, r0, r4, asr r6
 5dc:	00000142 	andeq	r0, r0, r2, asr #2
 5e0:	87080e41 	strhi	r0, [r8, -r1, asr #28]
 5e4:	41018e02 	tstmi	r1, r2, lsl #28
 5e8:	0d41300e 	stcleq	0, cr3, [r1, #-56]	; 0xffffffc8
 5ec:	00000007 	andeq	r0, r0, r7
 5f0:	0000000c 	andeq	r0, r0, ip
 5f4:	ffffffff 			; <UNDEFINED> instruction: 0xffffffff
 5f8:	7c020001 	stcvc	0, cr0, [r2], {1}
 5fc:	000d0c0e 	andeq	r0, sp, lr, lsl #24
 600:	00000018 	andeq	r0, r0, r8, lsl r0
 604:	000005f0 	strdeq	r0, [r0], -r0	; <UNPREDICTABLE>
 608:	00001798 	muleq	r0, r8, r7
 60c:	00000070 	andeq	r0, r0, r0, ror r0
 610:	87040e41 	strhi	r0, [r4, -r1, asr #28]
 614:	200e4101 	andcs	r4, lr, r1, lsl #2
 618:	00070d41 	andeq	r0, r7, r1, asr #26
 61c:	0000000c 	andeq	r0, r0, ip
 620:	ffffffff 			; <UNDEFINED> instruction: 0xffffffff
 624:	7c020001 	stcvc	0, cr0, [r2], {1}
 628:	000d0c0e 	andeq	r0, sp, lr, lsl #24
 62c:	0000001c 	andeq	r0, r0, ip, lsl r0
 630:	0000061c 	andeq	r0, r0, ip, lsl r6
 634:	00001808 	andeq	r1, r0, r8, lsl #16
 638:	0000010a 	andeq	r0, r0, sl, lsl #2
 63c:	87080e41 	strhi	r0, [r8, -r1, asr #28]
 640:	41018e02 	tstmi	r1, r2, lsl #28
 644:	0d41280e 	stcleq	8, cr2, [r1, #-56]	; 0xffffffc8
 648:	00000007 	andeq	r0, r0, r7
 64c:	0000000c 	andeq	r0, r0, ip
 650:	ffffffff 			; <UNDEFINED> instruction: 0xffffffff
 654:	7c020001 	stcvc	0, cr0, [r2], {1}
 658:	000d0c0e 	andeq	r0, sp, lr, lsl #24
 65c:	00000018 	andeq	r0, r0, r8, lsl r0
 660:	0000064c 	andeq	r0, r0, ip, asr #12
 664:	00001914 	andeq	r1, r0, r4, lsl r9
 668:	000001dc 	ldrdeq	r0, [r0], -ip
 66c:	87040e41 	strhi	r0, [r4, -r1, asr #28]
 670:	300e4101 	andcc	r4, lr, r1, lsl #2
 674:	00070d41 	andeq	r0, r7, r1, asr #26
 678:	0000000c 	andeq	r0, r0, ip
 67c:	ffffffff 			; <UNDEFINED> instruction: 0xffffffff
 680:	7c020001 	stcvc	0, cr0, [r2], {1}
 684:	000d0c0e 	andeq	r0, sp, lr, lsl #24
 688:	0000001c 	andeq	r0, r0, ip, lsl r0
 68c:	00000678 	andeq	r0, r0, r8, ror r6
 690:	00001af0 	strdeq	r1, [r0], -r0
 694:	0000017e 	andeq	r0, r0, lr, ror r1
 698:	87080e41 	strhi	r0, [r8, -r1, asr #28]
 69c:	41018e02 	tstmi	r1, r2, lsl #28
 6a0:	0d41200e 	stcleq	0, cr2, [r1, #-56]	; 0xffffffc8
 6a4:	00000007 	andeq	r0, r0, r7
 6a8:	0000001c 	andeq	r0, r0, ip, lsl r0
 6ac:	00000678 	andeq	r0, r0, r8, ror r6
 6b0:	00001c70 	andeq	r1, r0, r0, ror ip
 6b4:	00000070 	andeq	r0, r0, r0, ror r0
 6b8:	87080e41 	strhi	r0, [r8, -r1, asr #28]
 6bc:	41018e02 	tstmi	r1, r2, lsl #28
 6c0:	0d41280e 	stcleq	8, cr2, [r1, #-56]	; 0xffffffc8
 6c4:	00000007 	andeq	r0, r0, r7
 6c8:	0000001c 	andeq	r0, r0, ip, lsl r0
 6cc:	00000678 	andeq	r0, r0, r8, ror r6
 6d0:	00001ce0 	andeq	r1, r0, r0, ror #25
 6d4:	0000004e 	andeq	r0, r0, lr, asr #32
 6d8:	87080e41 	strhi	r0, [r8, -r1, asr #28]
 6dc:	41018e02 	tstmi	r1, r2, lsl #28
 6e0:	0d41200e 	stcleq	0, cr2, [r1, #-56]	; 0xffffffc8
 6e4:	00000007 	andeq	r0, r0, r7
 6e8:	0000000c 	andeq	r0, r0, ip
 6ec:	ffffffff 			; <UNDEFINED> instruction: 0xffffffff
 6f0:	7c020001 	stcvc	0, cr0, [r2], {1}
 6f4:	000d0c0e 	andeq	r0, sp, lr, lsl #24
 6f8:	0000001c 	andeq	r0, r0, ip, lsl r0
 6fc:	000006e8 	andeq	r0, r0, r8, ror #13
 700:	00001d30 	andeq	r1, r0, r0, lsr sp
 704:	0000003a 	andeq	r0, r0, sl, lsr r0
 708:	87080e41 	strhi	r0, [r8, -r1, asr #28]
 70c:	41018e02 	tstmi	r1, r2, lsl #28
 710:	0d41180e 	stcleq	8, cr1, [r1, #-56]	; 0xffffffc8
 714:	00000007 	andeq	r0, r0, r7
